 clexport

 Timestamp is 618bf7ca (Thu Nov 11 01:48:10 2021)

 Preferred load address is 0000000180000000

 Start         Length     Name                   Class
 0001:00000000 00000db0H .text$di                CODE
 0001:00000db0 0004aee0H .text$mn                CODE
 0001:0004bc90 00000012H .text$mn$00             CODE
 0001:0004bca2 000051c6H .text$x                 CODE
 0001:00050e68 00000451H .text$yd                CODE
 0002:00000000 000002a8H .idata$5                DATA
 0002:000002a8 00000010H .00cfg                  DATA
 0002:000002b8 00000008H .CRT$XCA                DATA
 0002:000002c0 00000008H .CRT$XCU                DATA
 0002:000002c8 00000008H .CRT$XCZ                DATA
 0002:000002d0 00000008H .CRT$XDA                DATA
 0002:000002d8 00000230H .CRT$XDU                DATA
 0002:00000508 00000008H .CRT$XDZ                DATA
 0002:00000510 00000008H .CRT$XIA                DATA
 0002:00000518 00000008H .CRT$XIZ                DATA
 0002:00000520 00000008H .CRT$XLA                DATA
 0002:00000528 00000008H .CRT$XLC                DATA
 0002:00000530 00000008H .CRT$XLD                DATA
 0002:00000538 00000008H .CRT$XLZ                DATA
 0002:00000540 00000008H .CRT$XPA                DATA
 0002:00000548 00000008H .CRT$XPZ                DATA
 0002:00000550 00000008H .CRT$XTA                DATA
 0002:00000558 00000008H .CRT$XTZ                DATA
 0002:00000560 00000000H .gfids$y                DATA
 0002:00000560 00005b90H .rdata                  DATA
 0002:000060f0 00000028H .rdata$T                DATA
 0002:00006118 00000804H .rdata$r                DATA
 0002:0000691c 000003ecH .rdata$zzzdbg           DATA
 0002:00006d08 00000008H .rtc$IAA                DATA
 0002:00006d10 00000008H .rtc$IZZ                DATA
 0002:00006d18 00000008H .rtc$TAA                DATA
 0002:00006d20 00000010H .rtc$TZZ                DATA
 0002:00006d30 00000010H .tls                    DATA
 0002:00006d40 00005e00H .tls$                   DATA
 0002:0000cb40 00000010H .tls$ZZZ                DATA
 0002:0000cb50 0000dd10H .xdata                  DATA
 0002:0001a860 000000f0H .xdata$x                DATA
 0002:0001a950 0000004cH .edata                  DATA
 0002:0001a99c 000000b4H .idata$2                DATA
 0002:0001aa50 00000018H .idata$3                DATA
 0002:0001aa68 000002a8H .idata$4                DATA
 0002:0001ad10 00000640H .idata$6                DATA
 0003:00000000 000001e8H .data                   DATA
 0003:000001e8 000002c8H .data$r                 DATA
 0003:000004b0 00000608H .bss                    DATA
 0004:00000000 00004f50H .pdata                  DATA
 0005:00000000 00000060H .rsrc$01                DATA
 0005:00000060 00000180H .rsrc$02                DATA

  Address         Publics by Value              Rva+Base               Lib:Object

 0000:00000000       __guard_fids_table         0000000000000000     <absolute>
 0000:00000000       ___safe_se_handler_table   0000000000000000     <absolute>
 0000:00000000       __guard_longjmp_table      0000000000000000     <absolute>
 0000:00000000       __guard_fids_count         0000000000000000     <absolute>
 0000:00000000       __dynamic_value_reloc_table 0000000000000000     <absolute>
 0000:00000000       __enclave_config           0000000000000000     <absolute>
 0000:00000000       __guard_longjmp_count      0000000000000000     <absolute>
 0000:00000000       __guard_iat_count          0000000000000000     <absolute>
 0000:00000000       __guard_iat_table          0000000000000000     <absolute>
 0000:00000000       __hybrid_code_map_count    0000000000000000     <absolute>
 0000:00000000       __hybrid_code_map          0000000000000000     <absolute>
 0000:00000000       __volatile_metadata        0000000000000000     <absolute>
 0000:00000000       ___safe_se_handler_count   0000000000000000     <absolute>
 0000:00000000       __hybrid_auxiliary_iat     0000000000000000     <absolute>
 0000:00000100       __guard_flags              0000000000000100     <absolute>
 0000:00000000       __ImageBase                0000000180000000     <linker-defined>
 0001:00001050       ??$?HDU?$char_traits@D@std@@V?$allocator@D@1@@std@@YA?AV?$basic_string@DU?$char_traits@D@std@@V?$allocator@D@2@@0@$$QEAV10@0@Z 0000000180002050 f i CppExport.obj
 0001:000010f0       ??$?HDU?$char_traits@D@std@@V?$allocator@D@1@@std@@YA?AV?$basic_string@DU?$char_traits@D@std@@V?$allocator@D@2@@0@$$QEAV10@QEBD@Z 00000001800020f0 f i CppExport.obj
 0001:0000115c       ??$?R$$BY03PEBUType@clcpp@@UTemplateType@1@@PtrSchema@@QEAAAEAU0@PEQTemplateType@clcpp@@Y03PEBUType@2@_K@Z 000000018000215c f i CppExport.obj
 0001:0000119c       ??$?RPEAUContainerInfo@clcpp@@UField@1@@PtrSchema@@QEAAAEAU0@PEQField@clcpp@@PEAUContainerInfo@2@_K@Z 000000018000219c f i CppExport.obj
 0001:000011dc       ??$?RPEAUContainerInfo@clcpp@@UType@1@@PtrSchema@@QEAAAEAU0@PEQType@clcpp@@PEAUContainerInfo@2@_K@Z 00000001800021dc f i CppExport.obj
 0001:0000121c       ??$?RPEBDUName@clcpp@@@PtrSchema@@QEAAAEAU0@PEQName@clcpp@@PEBD_K@Z 000000018000221c f i CppExport.obj
 0001:0000125c       ??$?RPEBDUTextAttribute@clcpp@@@PtrSchema@@QEAAAEAU0@PEQTextAttribute@clcpp@@PEBD_K@Z 000000018000225c f i CppExport.obj
 0001:0000129c       ??$?RPEBUField@clcpp@@UFunction@1@@PtrSchema@@QEAAAEAU0@PEQFunction@clcpp@@PEBUField@2@_K@Z 000000018000229c f i CppExport.obj
 0001:000012dc       ??$?RPEBUFunction@clcpp@@UClass@1@@PtrSchema@@QEAAAEAU0@PEQClass@clcpp@@PEBUFunction@2@_K@Z 00000001800022dc f i CppExport.obj
 0001:0000131c       ??$?RPEBUFunction@clcpp@@UTemplateType@1@@PtrSchema@@QEAAAEAU0@PEQTemplateType@clcpp@@PEBUFunction@2@_K@Z 000000018000231c f i CppExport.obj
 0001:0000135c       ??$?RPEBUPrimitive@clcpp@@U01@@PtrSchema@@QEAAAEAU0@PEQPrimitive@clcpp@@PEBU12@_K@Z 000000018000235c f i CppExport.obj
 0001:0000139c       ??$?RPEBUPrimitive@clcpp@@UPrimitiveAttribute@1@@PtrSchema@@QEAAAEAU0@PEQPrimitiveAttribute@clcpp@@PEBUPrimitive@2@_K@Z 000000018000239c f i CppExport.obj
 0001:000013dc       ??$?RPEBUType@clcpp@@UContainerInfo@1@@PtrSchema@@QEAAAEAU0@PEQContainerInfo@clcpp@@PEBUType@2@_K@Z 00000001800023dc f i CppExport.obj
 0001:0000141c       ??$?RPEBUType@clcpp@@UField@1@@PtrSchema@@QEAAAEAU0@PEQField@clcpp@@PEBUType@2@_K@Z 000000018000241c f i CppExport.obj
 0001:0000145c       ??$?RU?$CArray@PEBUAttribute@clcpp@@@clcpp@@UClass@1@@PtrSchema@@QEAAAEAU0@PEQClass@clcpp@@U?$CArray@PEBUAttribute@clcpp@@@2@_K@Z 000000018000245c f i CppExport.obj
 0001:0000149c       ??$?RU?$CArray@PEBUAttribute@clcpp@@@clcpp@@UEnum@1@@PtrSchema@@QEAAAEAU0@PEQEnum@clcpp@@U?$CArray@PEBUAttribute@clcpp@@@2@_K@Z 000000018000249c f i CppExport.obj
 0001:000014dc       ??$?RU?$CArray@PEBUAttribute@clcpp@@@clcpp@@UField@1@@PtrSchema@@QEAAAEAU0@PEQField@clcpp@@U?$CArray@PEBUAttribute@clcpp@@@2@_K@Z 00000001800024dc f i CppExport.obj
 0001:0000151c       ??$?RU?$CArray@PEBUAttribute@clcpp@@@clcpp@@UFunction@1@@PtrSchema@@QEAAAEAU0@PEQFunction@clcpp@@U?$CArray@PEBUAttribute@clcpp@@@2@_K@Z 000000018000251c f i CppExport.obj
 0001:0000155c       ??$?RU?$CArray@PEBUClass@clcpp@@@clcpp@@UClass@1@@PtrSchema@@QEAAAEAU0@PEQClass@clcpp@@U?$CArray@PEBUClass@clcpp@@@2@_K@Z 000000018000255c f i CppExport.obj
 0001:0000159c       ??$?RU?$CArray@PEBUClass@clcpp@@@clcpp@@UNamespace@1@@PtrSchema@@QEAAAEAU0@PEQNamespace@clcpp@@U?$CArray@PEBUClass@clcpp@@@2@_K@Z 000000018000259c f i CppExport.obj
 0001:000015dc       ??$?RU?$CArray@PEBUEnum@clcpp@@@clcpp@@UClass@1@@PtrSchema@@QEAAAEAU0@PEQClass@clcpp@@U?$CArray@PEBUEnum@clcpp@@@2@_K@Z 00000001800025dc f i CppExport.obj
 0001:0000161c       ??$?RU?$CArray@PEBUEnum@clcpp@@@clcpp@@UNamespace@1@@PtrSchema@@QEAAAEAU0@PEQNamespace@clcpp@@U?$CArray@PEBUEnum@clcpp@@@2@_K@Z 000000018000261c f i CppExport.obj
 0001:0000165c       ??$?RU?$CArray@PEBUEnumConstant@clcpp@@@clcpp@@UEnum@1@@PtrSchema@@QEAAAEAU0@PEQEnum@clcpp@@U?$CArray@PEBUEnumConstant@clcpp@@@2@_K@Z 000000018000265c f i CppExport.obj
 0001:0000169c       ??$?RU?$CArray@PEBUField@clcpp@@@clcpp@@UClass@1@@PtrSchema@@QEAAAEAU0@PEQClass@clcpp@@U?$CArray@PEBUField@clcpp@@@2@_K@Z 000000018000269c f i CppExport.obj
 0001:000016dc       ??$?RU?$CArray@PEBUField@clcpp@@@clcpp@@UFunction@1@@PtrSchema@@QEAAAEAU0@PEQFunction@clcpp@@U?$CArray@PEBUField@clcpp@@@2@_K@Z 00000001800026dc f i CppExport.obj
 0001:0000171c       ??$?RU?$CArray@PEBUFunction@clcpp@@@clcpp@@UClass@1@@PtrSchema@@QEAAAEAU0@PEQClass@clcpp@@U?$CArray@PEBUFunction@clcpp@@@2@_K@Z 000000018000271c f i CppExport.obj
 0001:0000175c       ??$?RU?$CArray@PEBUFunction@clcpp@@@clcpp@@UNamespace@1@@PtrSchema@@QEAAAEAU0@PEQNamespace@clcpp@@U?$CArray@PEBUFunction@clcpp@@@2@_K@Z 000000018000275c f i CppExport.obj
 0001:0000179c       ??$?RU?$CArray@PEBUNamespace@clcpp@@@clcpp@@UNamespace@1@@PtrSchema@@QEAAAEAU0@PEQNamespace@clcpp@@U?$CArray@PEBUNamespace@clcpp@@@2@_K@Z 000000018000279c f i CppExport.obj
 0001:000017dc       ??$?RU?$CArray@PEBUTemplate@clcpp@@@clcpp@@UClass@1@@PtrSchema@@QEAAAEAU0@PEQClass@clcpp@@U?$CArray@PEBUTemplate@clcpp@@@2@_K@Z 00000001800027dc f i CppExport.obj
 0001:0000181c       ??$?RU?$CArray@PEBUTemplate@clcpp@@@clcpp@@UNamespace@1@@PtrSchema@@QEAAAEAU0@PEQNamespace@clcpp@@U?$CArray@PEBUTemplate@clcpp@@@2@_K@Z 000000018000281c f i CppExport.obj
 0001:0000185c       ??$?RU?$CArray@PEBUTemplateType@clcpp@@@clcpp@@UTemplate@1@@PtrSchema@@QEAAAEAU0@PEQTemplate@clcpp@@U?$CArray@PEBUTemplateType@clcpp@@@2@_K@Z 000000018000285c f i CppExport.obj
 0001:0000189c       ??$?RU?$CArray@PEBUType@clcpp@@@clcpp@@UNamespace@1@@PtrSchema@@QEAAAEAU0@PEQNamespace@clcpp@@U?$CArray@PEBUType@clcpp@@@2@_K@Z 000000018000289c f i CppExport.obj
 0001:000018dc       ??$?RU?$CArray@PEBUType@clcpp@@@clcpp@@UType@1@@PtrSchema@@QEAAAEAU0@PEQType@clcpp@@U?$CArray@PEBUType@clcpp@@@2@_K@Z 00000001800028dc f i CppExport.obj
 0001:00001a78       ??$Alloc@UClass@clcpp@@@StackAllocator@@QEAAXAEAU?$CArray@UClass@clcpp@@@clcpp@@H@Z 0000000180002a78 f i CppExport.obj
 0001:00001afc       ??$Alloc@UContainerInfo@clcpp@@@StackAllocator@@QEAAXAEAU?$CArray@UContainerInfo@clcpp@@@clcpp@@H@Z 0000000180002afc f i CppExport.obj
 0001:00001b7c       ??$Alloc@UEnum@clcpp@@@StackAllocator@@QEAAXAEAU?$CArray@UEnum@clcpp@@@clcpp@@H@Z 0000000180002b7c f i CppExport.obj
 0001:00001c00       ??$Alloc@UEnumConstant@clcpp@@@StackAllocator@@QEAAXAEAU?$CArray@UEnumConstant@clcpp@@@clcpp@@H@Z 0000000180002c00 f i CppExport.obj
 0001:00001c80       ??$Alloc@UField@clcpp@@@StackAllocator@@QEAAXAEAU?$CArray@UField@clcpp@@@clcpp@@H@Z 0000000180002c80 f i CppExport.obj
 0001:00001d00       ??$Alloc@UFlagAttribute@clcpp@@@StackAllocator@@QEAAXAEAU?$CArray@UFlagAttribute@clcpp@@@clcpp@@H@Z 0000000180002d00 f i CppExport.obj
 0001:00001d84       ??$Alloc@UFloatAttribute@clcpp@@@StackAllocator@@QEAAXAEAU?$CArray@UFloatAttribute@clcpp@@@clcpp@@H@Z 0000000180002d84 f i CppExport.obj
 0001:00001e10       ??$Alloc@UFunction@clcpp@@@StackAllocator@@QEAAXAEAU?$CArray@UFunction@clcpp@@@clcpp@@H@Z 0000000180002e10 f i CppExport.obj
 0001:00001e90       ??$Alloc@UIntAttribute@clcpp@@@StackAllocator@@QEAAXAEAU?$CArray@UIntAttribute@clcpp@@@clcpp@@H@Z 0000000180002e90 f i CppExport.obj
 0001:00001f1c       ??$Alloc@UName@clcpp@@@StackAllocator@@QEAAXAEAU?$CArray@UName@clcpp@@@clcpp@@H@Z 0000000180002f1c f i CppExport.obj
 0001:00001f9c       ??$Alloc@UNamespace@clcpp@@@StackAllocator@@QEAAXAEAU?$CArray@UNamespace@clcpp@@@clcpp@@H@Z 0000000180002f9c f i CppExport.obj
 0001:00002020       ??$Alloc@UPrimitiveAttribute@clcpp@@@StackAllocator@@QEAAXAEAU?$CArray@UPrimitiveAttribute@clcpp@@@clcpp@@H@Z 0000000180003020 f i CppExport.obj
 0001:000020ac       ??$Alloc@UTemplate@clcpp@@@StackAllocator@@QEAAXAEAU?$CArray@UTemplate@clcpp@@@clcpp@@H@Z 00000001800030ac f i CppExport.obj
 0001:0000212c       ??$Alloc@UTemplateType@clcpp@@@StackAllocator@@QEAAXAEAU?$CArray@UTemplateType@clcpp@@@clcpp@@H@Z 000000018000312c f i CppExport.obj
 0001:000021b0       ??$Alloc@UTextAttribute@clcpp@@@StackAllocator@@QEAAXAEAU?$CArray@UTextAttribute@clcpp@@@clcpp@@H@Z 00000001800031b0 f i CppExport.obj
 0001:0000223c       ??$Alloc@UType@clcpp@@@StackAllocator@@QEAAXAEAU?$CArray@UType@clcpp@@@clcpp@@H@Z 000000018000323c f i CppExport.obj
 0001:00008b80       ??$_Buynode@AEBUpiecewise_construct_t@std@@V?$tuple@$$QEAPEAUType@clcpp@@@2@V?$tuple@$$V@2@@?$_Tree_comp_alloc@V?$_Tmap_traits@PEAUType@clcpp@@V?$vector@PEBUType@clcpp@@V?$allocator@PEBUType@clcpp@@@std@@@std@@U?$less@PEAUType@clcpp@@@4@V?$allocator@U?$pair@QEAUType@clcpp@@V?$vector@PEBUType@clcpp@@V?$allocator@PEBUType@clcpp@@@std@@@std@@@std@@@4@$0A@@std@@@std@@QEAAPEAU?$_Tree_node@U?$pair@QEAUType@clcpp@@V?$vector@PEBUType@clcpp@@V?$allocator@PEBUType@clcpp@@@std@@@std@@@std@@PEAX@1@AEBUpiecewise_construct_t@1@$$QEAV?$tuple@$$QEAPEAUType@clcpp@@@1@$$QEAV?$tuple@$$V@1@@Z 0000000180009b80 f i CppExport.obj
 0001:00008bcc       ??$_Buynode@AEBUpiecewise_construct_t@std@@V?$tuple@AEBI@2@V?$tuple@$$V@2@@?$_Tree_comp_alloc@V?$_Tmap_traits@IPEBDU?$less@I@std@@V?$allocator@U?$pair@$$CBIPEBD@std@@@2@$0A@@std@@@std@@QEAAPEAU?$_Tree_node@U?$pair@$$CBIPEBD@std@@PEAX@1@AEBUpiecewise_construct_t@1@$$QEAV?$tuple@AEBI@1@$$QEAV?$tuple@$$V@1@@Z 0000000180009bcc f i CppExport.obj
 0001:00008c0c       ??$_Buynode@AEBUpiecewise_construct_t@std@@V?$tuple@AEBI@2@V?$tuple@$$V@2@@?$_Tree_comp_alloc@V?$_Tmap_traits@IPEBUPrimitive@clcpp@@U?$less@I@std@@V?$allocator@U?$pair@$$CBIPEBUPrimitive@clcpp@@@std@@@4@$0A@@std@@@std@@QEAAPEAU?$_Tree_node@U?$pair@$$CBIPEBUPrimitive@clcpp@@@std@@PEAX@1@AEBUpiecewise_construct_t@1@$$QEAV?$tuple@AEBI@1@$$QEAV?$tuple@$$V@1@@Z 0000000180009c0c f i CppExport.obj
 0001:00008c4c       ??$_Buynode@AEBUpiecewise_construct_t@std@@V?$tuple@AEBI@2@V?$tuple@$$V@2@@?$_Tree_comp_alloc@V?$_Tmap_traits@IPEBUTemplate@clcpp@@U?$less@I@std@@V?$allocator@U?$pair@$$CBIPEBUTemplate@clcpp@@@std@@@4@$0A@@std@@@std@@QEAAPEAU?$_Tree_node@U?$pair@$$CBIPEBUTemplate@clcpp@@@std@@PEAX@1@AEBUpiecewise_construct_t@1@$$QEAV?$tuple@AEBI@1@$$QEAV?$tuple@$$V@1@@Z 0000000180009c4c f i CppExport.obj
 0001:00008c8c       ??$_Buynode@U?$pair@$$CBIPEAUFunction@clcpp@@@std@@@?$_Tree_comp_alloc@V?$_Tmap_traits@IPEAUFunction@clcpp@@U?$less@I@std@@V?$allocator@U?$pair@$$CBIPEAUFunction@clcpp@@@std@@@4@$0A@@std@@@std@@QEAAPEAU?$_Tree_node@U?$pair@$$CBIPEAUFunction@clcpp@@@std@@PEAX@1@$$QEAU?$pair@$$CBIPEAUFunction@clcpp@@@1@@Z 0000000180009c8c f i CppExport.obj
 0001:00008cc0       ??$_Buynode@U?$pair@$$CBIPEBUType@clcpp@@@std@@@?$_Tree_comp_alloc@V?$_Tmap_traits@IPEBUType@clcpp@@U?$less@I@std@@V?$allocator@U?$pair@$$CBIPEBUType@clcpp@@@std@@@4@$00@std@@@std@@QEAAPEAU?$_Tree_node@U?$pair@$$CBIPEBUType@clcpp@@@std@@PEAX@1@$$QEAU?$pair@$$CBIPEBUType@clcpp@@@1@@Z 0000000180009cc0 f i CppExport.obj
 0001:00008cf4       ??$_Buynode@U?$pair@$$CBIU?$pair@PEAUClass@clcpp@@H@std@@@std@@@?$_Tree_comp_alloc@V?$_Tmap_traits@IU?$pair@PEAUClass@clcpp@@H@std@@U?$less@I@2@V?$allocator@U?$pair@$$CBIU?$pair@PEAUClass@clcpp@@H@std@@@std@@@2@$00@std@@@std@@QEAAPEAU?$_Tree_node@U?$pair@$$CBIU?$pair@PEAUClass@clcpp@@H@std@@@std@@PEAX@1@$$QEAU?$pair@$$CBIU?$pair@PEAUClass@clcpp@@H@std@@@1@@Z 0000000180009cf4 f i CppExport.obj
 0001:00008d30       ??$_Buynode@U?$pair@$$CBIU?$pair@PEAUEnum@clcpp@@H@std@@@std@@@?$_Tree_comp_alloc@V?$_Tmap_traits@IU?$pair@PEAUEnum@clcpp@@H@std@@U?$less@I@2@V?$allocator@U?$pair@$$CBIU?$pair@PEAUEnum@clcpp@@H@std@@@std@@@2@$00@std@@@std@@QEAAPEAU?$_Tree_node@U?$pair@$$CBIU?$pair@PEAUEnum@clcpp@@H@std@@@std@@PEAX@1@$$QEAU?$pair@$$CBIU?$pair@PEAUEnum@clcpp@@H@std@@@1@@Z 0000000180009d30 f i CppExport.obj
 0001:00008d6c       ??$_Buynode@U?$pair@$$CBIU?$pair@PEAUField@clcpp@@H@std@@@std@@@?$_Tree_comp_alloc@V?$_Tmap_traits@IU?$pair@PEAUField@clcpp@@H@std@@U?$less@I@2@V?$allocator@U?$pair@$$CBIU?$pair@PEAUField@clcpp@@H@std@@@std@@@2@$00@std@@@std@@QEAAPEAU?$_Tree_node@U?$pair@$$CBIU?$pair@PEAUField@clcpp@@H@std@@@std@@PEAX@1@$$QEAU?$pair@$$CBIU?$pair@PEAUField@clcpp@@H@std@@@1@@Z 0000000180009d6c f i CppExport.obj
 0001:00008da8       ??$_Buynode@U?$pair@$$CBIU?$pair@PEAUFunction@clcpp@@H@std@@@std@@@?$_Tree_comp_alloc@V?$_Tmap_traits@IU?$pair@PEAUFunction@clcpp@@H@std@@U?$less@I@2@V?$allocator@U?$pair@$$CBIU?$pair@PEAUFunction@clcpp@@H@std@@@std@@@2@$00@std@@@std@@QEAAPEAU?$_Tree_node@U?$pair@$$CBIU?$pair@PEAUFunction@clcpp@@H@std@@@std@@PEAX@1@$$QEAU?$pair@$$CBIU?$pair@PEAUFunction@clcpp@@H@std@@@1@@Z 0000000180009da8 f i CppExport.obj
 0001:00008de4       ??$_Buynode@U?$pair@$$CBIU?$pair@PEAUNamespace@clcpp@@H@std@@@std@@@?$_Tree_comp_alloc@V?$_Tmap_traits@IU?$pair@PEAUNamespace@clcpp@@H@std@@U?$less@I@2@V?$allocator@U?$pair@$$CBIU?$pair@PEAUNamespace@clcpp@@H@std@@@std@@@2@$00@std@@@std@@QEAAPEAU?$_Tree_node@U?$pair@$$CBIU?$pair@PEAUNamespace@clcpp@@H@std@@@std@@PEAX@1@$$QEAU?$pair@$$CBIU?$pair@PEAUNamespace@clcpp@@H@std@@@1@@Z 0000000180009de4 f i CppExport.obj
 0001:00008e20       ??$_Buynode@U?$pair@$$CBIU?$pair@PEAUTemplate@clcpp@@H@std@@@std@@@?$_Tree_comp_alloc@V?$_Tmap_traits@IU?$pair@PEAUTemplate@clcpp@@H@std@@U?$less@I@2@V?$allocator@U?$pair@$$CBIU?$pair@PEAUTemplate@clcpp@@H@std@@@std@@@2@$00@std@@@std@@QEAAPEAU?$_Tree_node@U?$pair@$$CBIU?$pair@PEAUTemplate@clcpp@@H@std@@@std@@PEAX@1@$$QEAU?$pair@$$CBIU?$pair@PEAUTemplate@clcpp@@H@std@@@1@@Z 0000000180009e20 f i CppExport.obj
 0001:00008e5c       ??$_Emplace_reallocate@AEBQEBUType@clcpp@@@?$vector@PEBUType@clcpp@@V?$allocator@PEBUType@clcpp@@@std@@@std@@QEAAPEAPEBUType@clcpp@@QEAPEBU23@AEBQEBU23@@Z 0000000180009e5c f i CppExport.obj
 0001:00008f60       ??$_Emplace_reallocate@AEB_K@?$vector@_KV?$allocator@_K@std@@@std@@QEAAPEA_KQEA_KAEB_K@Z 0000000180009f60 f i CppExport.obj
 0001:00009064       ??$_Emplace_reallocate@_K@?$vector@_KV?$allocator@_K@std@@@std@@QEAAPEA_KQEA_K$$QEA_K@Z 000000018000a064 f i CppExport.obj
 0001:00009168       ??$_Eqrange@I@?$_Tree@V?$_Tmap_traits@IU?$pair@PEAUClass@clcpp@@H@std@@U?$less@I@2@V?$allocator@U?$pair@$$CBIU?$pair@PEAUClass@clcpp@@H@std@@@std@@@2@$00@std@@@std@@IEBA?AU?$pair@V?$_Tree_const_iterator@V?$_Tree_val@U?$_Tree_simple_types@U?$pair@$$CBIU?$pair@PEAUClass@clcpp@@H@std@@@std@@@std@@@std@@@std@@V12@@1@AEBI@Z 000000018000a168 f i CppExport.obj
 0001:000091dc       ??$_Eqrange@I@?$_Tree@V?$_Tmap_traits@IU?$pair@PEAUEnum@clcpp@@H@std@@U?$less@I@2@V?$allocator@U?$pair@$$CBIU?$pair@PEAUEnum@clcpp@@H@std@@@std@@@2@$00@std@@@std@@IEBA?AU?$pair@V?$_Tree_const_iterator@V?$_Tree_val@U?$_Tree_simple_types@U?$pair@$$CBIU?$pair@PEAUEnum@clcpp@@H@std@@@std@@@std@@@std@@@std@@V12@@1@AEBI@Z 000000018000a1dc f i CppExport.obj
 0001:00009250       ??$_Eqrange@I@?$_Tree@V?$_Tmap_traits@IU?$pair@PEAUField@clcpp@@H@std@@U?$less@I@2@V?$allocator@U?$pair@$$CBIU?$pair@PEAUField@clcpp@@H@std@@@std@@@2@$00@std@@@std@@IEBA?AU?$pair@V?$_Tree_const_iterator@V?$_Tree_val@U?$_Tree_simple_types@U?$pair@$$CBIU?$pair@PEAUField@clcpp@@H@std@@@std@@@std@@@std@@@std@@V12@@1@AEBI@Z 000000018000a250 f i CppExport.obj
 0001:000092c4       ??$_Eqrange@I@?$_Tree@V?$_Tmap_traits@IU?$pair@PEAUFunction@clcpp@@H@std@@U?$less@I@2@V?$allocator@U?$pair@$$CBIU?$pair@PEAUFunction@clcpp@@H@std@@@std@@@2@$00@std@@@std@@IEBA?AU?$pair@V?$_Tree_const_iterator@V?$_Tree_val@U?$_Tree_simple_types@U?$pair@$$CBIU?$pair@PEAUFunction@clcpp@@H@std@@@std@@@std@@@std@@@std@@V12@@1@AEBI@Z 000000018000a2c4 f i CppExport.obj
 0001:00009338       ??$_Eqrange@I@?$_Tree@V?$_Tmap_traits@IU?$pair@PEAUNamespace@clcpp@@H@std@@U?$less@I@2@V?$allocator@U?$pair@$$CBIU?$pair@PEAUNamespace@clcpp@@H@std@@@std@@@2@$00@std@@@std@@IEBA?AU?$pair@V?$_Tree_const_iterator@V?$_Tree_val@U?$_Tree_simple_types@U?$pair@$$CBIU?$pair@PEAUNamespace@clcpp@@H@std@@@std@@@std@@@std@@@std@@V12@@1@AEBI@Z 000000018000a338 f i CppExport.obj
 0001:000093ac       ??$_Eqrange@I@?$_Tree@V?$_Tmap_traits@IU?$pair@PEAUTemplate@clcpp@@H@std@@U?$less@I@2@V?$allocator@U?$pair@$$CBIU?$pair@PEAUTemplate@clcpp@@H@std@@@std@@@2@$00@std@@@std@@IEBA?AU?$pair@V?$_Tree_const_iterator@V?$_Tree_val@U?$_Tree_simple_types@U?$pair@$$CBIU?$pair@PEAUTemplate@clcpp@@H@std@@@std@@@std@@@std@@@std@@V12@@1@AEBI@Z 000000018000a3ac f i CppExport.obj
 0001:00009420       ??$_Guess_median_unchecked@PEAPEBUAttribute@clcpp@@P6A_NPEBUPrimitive@2@0@Z@std@@YAXPEAPEBUAttribute@clcpp@@00P6A_NPEBUPrimitive@2@1@Z@Z 000000018000a420 f i CppExport.obj
 0001:000094e4       ??$_Guess_median_unchecked@PEAPEBUClass@clcpp@@P6A_NPEBUPrimitive@2@0@Z@std@@YAXPEAPEBUClass@clcpp@@00P6A_NPEBUPrimitive@2@1@Z@Z 000000018000a4e4 f i CppExport.obj
 0001:000095a8       ??$_Guess_median_unchecked@PEAPEBUEnum@clcpp@@P6A_NPEBUPrimitive@2@0@Z@std@@YAXPEAPEBUEnum@clcpp@@00P6A_NPEBUPrimitive@2@1@Z@Z 000000018000a5a8 f i CppExport.obj
 0001:0000966c       ??$_Guess_median_unchecked@PEAPEBUEnumConstant@clcpp@@P6A_NPEBU12@0@Z@std@@YAXPEAPEBUEnumConstant@clcpp@@00P6A_NPEBU12@1@Z@Z 000000018000a66c f i CppExport.obj
 0001:00009730       ??$_Guess_median_unchecked@PEAPEBUEnumConstant@clcpp@@P6A_NPEBUPrimitive@2@0@Z@std@@YAXPEAPEBUEnumConstant@clcpp@@00P6A_NPEBUPrimitive@2@1@Z@Z 000000018000a730 f i CppExport.obj
 0001:000097f4       ??$_Guess_median_unchecked@PEAPEBUField@clcpp@@P6A_NPEBU12@0@Z@std@@YAXPEAPEBUField@clcpp@@00P6A_NPEBU12@1@Z@Z 000000018000a7f4 f i CppExport.obj
 0001:000098b8       ??$_Guess_median_unchecked@PEAPEBUField@clcpp@@P6A_NPEBUPrimitive@2@0@Z@std@@YAXPEAPEBUField@clcpp@@00P6A_NPEBUPrimitive@2@1@Z@Z 000000018000a8b8 f i CppExport.obj
 0001:0000997c       ??$_Guess_median_unchecked@PEAPEBUFunction@clcpp@@P6A_NPEBUPrimitive@2@0@Z@std@@YAXPEAPEBUFunction@clcpp@@00P6A_NPEBUPrimitive@2@1@Z@Z 000000018000a97c f i CppExport.obj
 0001:00009a40       ??$_Guess_median_unchecked@PEAPEBUNamespace@clcpp@@P6A_NPEBUPrimitive@2@0@Z@std@@YAXPEAPEBUNamespace@clcpp@@00P6A_NPEBUPrimitive@2@1@Z@Z 000000018000aa40 f i CppExport.obj
 0001:00009b04       ??$_Guess_median_unchecked@PEAPEBUTemplate@clcpp@@P6A_NPEBUPrimitive@2@0@Z@std@@YAXPEAPEBUTemplate@clcpp@@00P6A_NPEBUPrimitive@2@1@Z@Z 000000018000ab04 f i CppExport.obj
 0001:00009bc8       ??$_Guess_median_unchecked@PEAPEBUTemplateType@clcpp@@P6A_NPEBUPrimitive@2@0@Z@std@@YAXPEAPEBUTemplateType@clcpp@@00P6A_NPEBUPrimitive@2@1@Z@Z 000000018000abc8 f i CppExport.obj
 0001:00009c8c       ??$_Guess_median_unchecked@PEAPEBUType@clcpp@@P6A_NPEBUPrimitive@2@0@Z@std@@YAXPEAPEBUType@clcpp@@00P6A_NPEBUPrimitive@2@1@Z@Z 000000018000ac8c f i CppExport.obj
 0001:00009d50       ??$_Insert_at@AEAU?$pair@$$CBIPEBD@std@@PEAU?$_Tree_node@U?$pair@$$CBIPEBD@std@@PEAX@2@@?$_Tree@V?$_Tmap_traits@IPEBDU?$less@I@std@@V?$allocator@U?$pair@$$CBIPEBD@std@@@2@$0A@@std@@@std@@IEAA?AV?$_Tree_iterator@V?$_Tree_val@U?$_Tree_simple_types@U?$pair@$$CBIPEBD@std@@@std@@@std@@@1@_NPEAU?$_Tree_node@U?$pair@$$CBIPEBD@std@@PEAX@1@AEAU?$pair@$$CBIPEBD@1@1@Z 000000018000ad50 f i CppExport.obj
 0001:00009fdc       ??$_Insert_at@AEAU?$pair@$$CBIPEBUPrimitive@clcpp@@@std@@PEAU?$_Tree_node@U?$pair@$$CBIPEBUPrimitive@clcpp@@@std@@PEAX@2@@?$_Tree@V?$_Tmap_traits@IPEBUPrimitive@clcpp@@U?$less@I@std@@V?$allocator@U?$pair@$$CBIPEBUPrimitive@clcpp@@@std@@@4@$0A@@std@@@std@@IEAA?AV?$_Tree_iterator@V?$_Tree_val@U?$_Tree_simple_types@U?$pair@$$CBIPEBUPrimitive@clcpp@@@std@@@std@@@std@@@1@_NPEAU?$_Tree_node@U?$pair@$$CBIPEBUPrimitive@clcpp@@@std@@PEAX@1@AEAU?$pair@$$CBIPEBUPrimitive@clcpp@@@1@1@Z 000000018000afdc f i CppExport.obj
 0001:0000a268       ??$_Insert_at@AEAU?$pair@$$CBIPEBUTemplate@clcpp@@@std@@PEAU?$_Tree_node@U?$pair@$$CBIPEBUTemplate@clcpp@@@std@@PEAX@2@@?$_Tree@V?$_Tmap_traits@IPEBUTemplate@clcpp@@U?$less@I@std@@V?$allocator@U?$pair@$$CBIPEBUTemplate@clcpp@@@std@@@4@$0A@@std@@@std@@IEAA?AV?$_Tree_iterator@V?$_Tree_val@U?$_Tree_simple_types@U?$pair@$$CBIPEBUTemplate@clcpp@@@std@@@std@@@std@@@1@_NPEAU?$_Tree_node@U?$pair@$$CBIPEBUTemplate@clcpp@@@std@@PEAX@1@AEAU?$pair@$$CBIPEBUTemplate@clcpp@@@1@1@Z 000000018000b268 f i CppExport.obj
 0001:0000a4f4       ??$_Insert_at@AEAU?$pair@QEAUType@clcpp@@V?$vector@PEBUType@clcpp@@V?$allocator@PEBUType@clcpp@@@std@@@std@@@std@@PEAU?$_Tree_node@U?$pair@QEAUType@clcpp@@V?$vector@PEBUType@clcpp@@V?$allocator@PEBUType@clcpp@@@std@@@std@@@std@@PEAX@2@@?$_Tree@V?$_Tmap_traits@PEAUType@clcpp@@V?$vector@PEBUType@clcpp@@V?$allocator@PEBUType@clcpp@@@std@@@std@@U?$less@PEAUType@clcpp@@@4@V?$allocator@U?$pair@QEAUType@clcpp@@V?$vector@PEBUType@clcpp@@V?$allocator@PEBUType@clcpp@@@std@@@std@@@std@@@4@$0A@@std@@@std@@IEAA?AV?$_Tree_iterator@V?$_Tree_val@U?$_Tree_simple_types@U?$pair@QEAUType@clcpp@@V?$vector@PEBUType@clcpp@@V?$allocator@PEBUType@clcpp@@@std@@@std@@@std@@@std@@@std@@@1@_NPEAU?$_Tree_node@U?$pair@QEAUType@clcpp@@V?$vector@PEBUType@clcpp@@V?$allocator@PEBUType@clcpp@@@std@@@std@@@std@@PEAX@1@AEAU?$pair@QEAUType@clcpp@@V?$vector@PEBUType@clcpp@@V?$allocator@PEBUType@clcpp@@@std@@@std@@@1@1@Z 000000018000b4f4 f i CppExport.obj
 0001:0000a780       ??$_Insert_at@U?$pair@$$CBIPEAUFunction@clcpp@@@std@@U_Not_a_node_tag@2@@?$_Tree@V?$_Tmap_traits@IPEAUFunction@clcpp@@U?$less@I@std@@V?$allocator@U?$pair@$$CBIPEAUFunction@clcpp@@@std@@@4@$0A@@std@@@std@@IEAA?AV?$_Tree_iterator@V?$_Tree_val@U?$_Tree_simple_types@U?$pair@$$CBIPEAUFunction@clcpp@@@std@@@std@@@std@@@1@_NPEAU?$_Tree_node@U?$pair@$$CBIPEAUFunction@clcpp@@@std@@PEAX@1@$$QEAU?$pair@$$CBIPEAUFunction@clcpp@@@1@U_Not_a_node_tag@1@@Z 000000018000b780 f i CppExport.obj
 0001:0000aa1c       ??$_Insert_at@U?$pair@$$CBIPEBUType@clcpp@@@std@@U_Not_a_node_tag@2@@?$_Tree@V?$_Tmap_traits@IPEBUType@clcpp@@U?$less@I@std@@V?$allocator@U?$pair@$$CBIPEBUType@clcpp@@@std@@@4@$00@std@@@std@@IEAA?AV?$_Tree_iterator@V?$_Tree_val@U?$_Tree_simple_types@U?$pair@$$CBIPEBUType@clcpp@@@std@@@std@@@std@@@1@_NPEAU?$_Tree_node@U?$pair@$$CBIPEBUType@clcpp@@@std@@PEAX@1@$$QEAU?$pair@$$CBIPEBUType@clcpp@@@1@U_Not_a_node_tag@1@@Z 000000018000ba1c f i CppExport.obj
 0001:0000acb8       ??$_Insert_at@U?$pair@$$CBIU?$pair@PEAUClass@clcpp@@H@std@@@std@@U_Not_a_node_tag@2@@?$_Tree@V?$_Tmap_traits@IU?$pair@PEAUClass@clcpp@@H@std@@U?$less@I@2@V?$allocator@U?$pair@$$CBIU?$pair@PEAUClass@clcpp@@H@std@@@std@@@2@$00@std@@@std@@IEAA?AV?$_Tree_iterator@V?$_Tree_val@U?$_Tree_simple_types@U?$pair@$$CBIU?$pair@PEAUClass@clcpp@@H@std@@@std@@@std@@@std@@@1@_NPEAU?$_Tree_node@U?$pair@$$CBIU?$pair@PEAUClass@clcpp@@H@std@@@std@@PEAX@1@$$QEAU?$pair@$$CBIU?$pair@PEAUClass@clcpp@@H@std@@@1@U_Not_a_node_tag@1@@Z 000000018000bcb8 f i CppExport.obj
 0001:0000af54       ??$_Insert_at@U?$pair@$$CBIU?$pair@PEAUEnum@clcpp@@H@std@@@std@@U_Not_a_node_tag@2@@?$_Tree@V?$_Tmap_traits@IU?$pair@PEAUEnum@clcpp@@H@std@@U?$less@I@2@V?$allocator@U?$pair@$$CBIU?$pair@PEAUEnum@clcpp@@H@std@@@std@@@2@$00@std@@@std@@IEAA?AV?$_Tree_iterator@V?$_Tree_val@U?$_Tree_simple_types@U?$pair@$$CBIU?$pair@PEAUEnum@clcpp@@H@std@@@std@@@std@@@std@@@1@_NPEAU?$_Tree_node@U?$pair@$$CBIU?$pair@PEAUEnum@clcpp@@H@std@@@std@@PEAX@1@$$QEAU?$pair@$$CBIU?$pair@PEAUEnum@clcpp@@H@std@@@1@U_Not_a_node_tag@1@@Z 000000018000bf54 f i CppExport.obj
 0001:0000b1f0       ??$_Insert_at@U?$pair@$$CBIU?$pair@PEAUField@clcpp@@H@std@@@std@@U_Not_a_node_tag@2@@?$_Tree@V?$_Tmap_traits@IU?$pair@PEAUField@clcpp@@H@std@@U?$less@I@2@V?$allocator@U?$pair@$$CBIU?$pair@PEAUField@clcpp@@H@std@@@std@@@2@$00@std@@@std@@IEAA?AV?$_Tree_iterator@V?$_Tree_val@U?$_Tree_simple_types@U?$pair@$$CBIU?$pair@PEAUField@clcpp@@H@std@@@std@@@std@@@std@@@1@_NPEAU?$_Tree_node@U?$pair@$$CBIU?$pair@PEAUField@clcpp@@H@std@@@std@@PEAX@1@$$QEAU?$pair@$$CBIU?$pair@PEAUField@clcpp@@H@std@@@1@U_Not_a_node_tag@1@@Z 000000018000c1f0 f i CppExport.obj
 0001:0000b48c       ??$_Insert_at@U?$pair@$$CBIU?$pair@PEAUFunction@clcpp@@H@std@@@std@@U_Not_a_node_tag@2@@?$_Tree@V?$_Tmap_traits@IU?$pair@PEAUFunction@clcpp@@H@std@@U?$less@I@2@V?$allocator@U?$pair@$$CBIU?$pair@PEAUFunction@clcpp@@H@std@@@std@@@2@$00@std@@@std@@IEAA?AV?$_Tree_iterator@V?$_Tree_val@U?$_Tree_simple_types@U?$pair@$$CBIU?$pair@PEAUFunction@clcpp@@H@std@@@std@@@std@@@std@@@1@_NPEAU?$_Tree_node@U?$pair@$$CBIU?$pair@PEAUFunction@clcpp@@H@std@@@std@@PEAX@1@$$QEAU?$pair@$$CBIU?$pair@PEAUFunction@clcpp@@H@std@@@1@U_Not_a_node_tag@1@@Z 000000018000c48c f i CppExport.obj
 0001:0000b728       ??$_Insert_at@U?$pair@$$CBIU?$pair@PEAUNamespace@clcpp@@H@std@@@std@@U_Not_a_node_tag@2@@?$_Tree@V?$_Tmap_traits@IU?$pair@PEAUNamespace@clcpp@@H@std@@U?$less@I@2@V?$allocator@U?$pair@$$CBIU?$pair@PEAUNamespace@clcpp@@H@std@@@std@@@2@$00@std@@@std@@IEAA?AV?$_Tree_iterator@V?$_Tree_val@U?$_Tree_simple_types@U?$pair@$$CBIU?$pair@PEAUNamespace@clcpp@@H@std@@@std@@@std@@@std@@@1@_NPEAU?$_Tree_node@U?$pair@$$CBIU?$pair@PEAUNamespace@clcpp@@H@std@@@std@@PEAX@1@$$QEAU?$pair@$$CBIU?$pair@PEAUNamespace@clcpp@@H@std@@@1@U_Not_a_node_tag@1@@Z 000000018000c728 f i CppExport.obj
 0001:0000b9c4       ??$_Insert_at@U?$pair@$$CBIU?$pair@PEAUTemplate@clcpp@@H@std@@@std@@U_Not_a_node_tag@2@@?$_Tree@V?$_Tmap_traits@IU?$pair@PEAUTemplate@clcpp@@H@std@@U?$less@I@2@V?$allocator@U?$pair@$$CBIU?$pair@PEAUTemplate@clcpp@@H@std@@@std@@@2@$00@std@@@std@@IEAA?AV?$_Tree_iterator@V?$_Tree_val@U?$_Tree_simple_types@U?$pair@$$CBIU?$pair@PEAUTemplate@clcpp@@H@std@@@std@@@std@@@std@@@1@_NPEAU?$_Tree_node@U?$pair@$$CBIU?$pair@PEAUTemplate@clcpp@@H@std@@@std@@PEAX@1@$$QEAU?$pair@$$CBIU?$pair@PEAUTemplate@clcpp@@H@std@@@1@U_Not_a_node_tag@1@@Z 000000018000c9c4 f i CppExport.obj
 0001:0000bc60       ??$_Insert_hint@AEAU?$pair@$$CBIPEBD@std@@PEAU?$_Tree_node@U?$pair@$$CBIPEBD@std@@PEAX@2@@?$_Tree@V?$_Tmap_traits@IPEBDU?$less@I@std@@V?$allocator@U?$pair@$$CBIPEBD@std@@@2@$0A@@std@@@std@@IEAA?AV?$_Tree_iterator@V?$_Tree_val@U?$_Tree_simple_types@U?$pair@$$CBIPEBD@std@@@std@@@std@@@1@V?$_Tree_const_iterator@V?$_Tree_val@U?$_Tree_simple_types@U?$pair@$$CBIPEBD@std@@@std@@@std@@@1@AEAU?$pair@$$CBIPEBD@1@PEAU?$_Tree_node@U?$pair@$$CBIPEBD@std@@PEAX@1@@Z 000000018000cc60 f i CppExport.obj
 0001:0000be78       ??$_Insert_hint@AEAU?$pair@$$CBIPEBUPrimitive@clcpp@@@std@@PEAU?$_Tree_node@U?$pair@$$CBIPEBUPrimitive@clcpp@@@std@@PEAX@2@@?$_Tree@V?$_Tmap_traits@IPEBUPrimitive@clcpp@@U?$less@I@std@@V?$allocator@U?$pair@$$CBIPEBUPrimitive@clcpp@@@std@@@4@$0A@@std@@@std@@IEAA?AV?$_Tree_iterator@V?$_Tree_val@U?$_Tree_simple_types@U?$pair@$$CBIPEBUPrimitive@clcpp@@@std@@@std@@@std@@@1@V?$_Tree_const_iterator@V?$_Tree_val@U?$_Tree_simple_types@U?$pair@$$CBIPEBUPrimitive@clcpp@@@std@@@std@@@std@@@1@AEAU?$pair@$$CBIPEBUPrimitive@clcpp@@@1@PEAU?$_Tree_node@U?$pair@$$CBIPEBUPrimitive@clcpp@@@std@@PEAX@1@@Z 000000018000ce78 f i CppExport.obj
 0001:0000c090       ??$_Insert_hint@AEAU?$pair@$$CBIPEBUTemplate@clcpp@@@std@@PEAU?$_Tree_node@U?$pair@$$CBIPEBUTemplate@clcpp@@@std@@PEAX@2@@?$_Tree@V?$_Tmap_traits@IPEBUTemplate@clcpp@@U?$less@I@std@@V?$allocator@U?$pair@$$CBIPEBUTemplate@clcpp@@@std@@@4@$0A@@std@@@std@@IEAA?AV?$_Tree_iterator@V?$_Tree_val@U?$_Tree_simple_types@U?$pair@$$CBIPEBUTemplate@clcpp@@@std@@@std@@@std@@@1@V?$_Tree_const_iterator@V?$_Tree_val@U?$_Tree_simple_types@U?$pair@$$CBIPEBUTemplate@clcpp@@@std@@@std@@@std@@@1@AEAU?$pair@$$CBIPEBUTemplate@clcpp@@@1@PEAU?$_Tree_node@U?$pair@$$CBIPEBUTemplate@clcpp@@@std@@PEAX@1@@Z 000000018000d090 f i CppExport.obj
 0001:0000c2a8       ??$_Insert_hint@AEAU?$pair@QEAUType@clcpp@@V?$vector@PEBUType@clcpp@@V?$allocator@PEBUType@clcpp@@@std@@@std@@@std@@PEAU?$_Tree_node@U?$pair@QEAUType@clcpp@@V?$vector@PEBUType@clcpp@@V?$allocator@PEBUType@clcpp@@@std@@@std@@@std@@PEAX@2@@?$_Tree@V?$_Tmap_traits@PEAUType@clcpp@@V?$vector@PEBUType@clcpp@@V?$allocator@PEBUType@clcpp@@@std@@@std@@U?$less@PEAUType@clcpp@@@4@V?$allocator@U?$pair@QEAUType@clcpp@@V?$vector@PEBUType@clcpp@@V?$allocator@PEBUType@clcpp@@@std@@@std@@@std@@@4@$0A@@std@@@std@@IEAA?AV?$_Tree_iterator@V?$_Tree_val@U?$_Tree_simple_types@U?$pair@QEAUType@clcpp@@V?$vector@PEBUType@clcpp@@V?$allocator@PEBUType@clcpp@@@std@@@std@@@std@@@std@@@std@@@1@V?$_Tree_const_iterator@V?$_Tree_val@U?$_Tree_simple_types@U?$pair@QEAUType@clcpp@@V?$vector@PEBUType@clcpp@@V?$allocator@PEBUType@clcpp@@@std@@@std@@@std@@@std@@@std@@@1@AEAU?$pair@QEAUType@clcpp@@V?$vector@PEBUType@clcpp@@V?$allocator@PEBUType@clcpp@@@std@@@std@@@1@PEAU?$_Tree_node@U?$pair@QEAUType@clcpp@@V?$vector@PEBUType@clcpp@@V?$allocator@PEBUType@clcpp@@@std@@@std@@@std@@PEAX@1@@Z 000000018000d2a8 f i CppExport.obj
 0001:0000c4c0       ??$_Insert_nohint@AEAU?$pair@$$CBIPEBD@std@@PEAU?$_Tree_node@U?$pair@$$CBIPEBD@std@@PEAX@2@@?$_Tree@V?$_Tmap_traits@IPEBDU?$less@I@std@@V?$allocator@U?$pair@$$CBIPEBD@std@@@2@$0A@@std@@@std@@IEAA?AU?$pair@V?$_Tree_iterator@V?$_Tree_val@U?$_Tree_simple_types@U?$pair@$$CBIPEBD@std@@@std@@@std@@@std@@_N@1@_NAEAU?$pair@$$CBIPEBD@1@PEAU?$_Tree_node@U?$pair@$$CBIPEBD@std@@PEAX@1@@Z 000000018000d4c0 f i CppExport.obj
 0001:0000c5f8       ??$_Insert_nohint@AEAU?$pair@$$CBIPEBUPrimitive@clcpp@@@std@@PEAU?$_Tree_node@U?$pair@$$CBIPEBUPrimitive@clcpp@@@std@@PEAX@2@@?$_Tree@V?$_Tmap_traits@IPEBUPrimitive@clcpp@@U?$less@I@std@@V?$allocator@U?$pair@$$CBIPEBUPrimitive@clcpp@@@std@@@4@$0A@@std@@@std@@IEAA?AU?$pair@V?$_Tree_iterator@V?$_Tree_val@U?$_Tree_simple_types@U?$pair@$$CBIPEBUPrimitive@clcpp@@@std@@@std@@@std@@@std@@_N@1@_NAEAU?$pair@$$CBIPEBUPrimitive@clcpp@@@1@PEAU?$_Tree_node@U?$pair@$$CBIPEBUPrimitive@clcpp@@@std@@PEAX@1@@Z 000000018000d5f8 f i CppExport.obj
 0001:0000c730       ??$_Insert_nohint@AEAU?$pair@$$CBIPEBUTemplate@clcpp@@@std@@PEAU?$_Tree_node@U?$pair@$$CBIPEBUTemplate@clcpp@@@std@@PEAX@2@@?$_Tree@V?$_Tmap_traits@IPEBUTemplate@clcpp@@U?$less@I@std@@V?$allocator@U?$pair@$$CBIPEBUTemplate@clcpp@@@std@@@4@$0A@@std@@@std@@IEAA?AU?$pair@V?$_Tree_iterator@V?$_Tree_val@U?$_Tree_simple_types@U?$pair@$$CBIPEBUTemplate@clcpp@@@std@@@std@@@std@@@std@@_N@1@_NAEAU?$pair@$$CBIPEBUTemplate@clcpp@@@1@PEAU?$_Tree_node@U?$pair@$$CBIPEBUTemplate@clcpp@@@std@@PEAX@1@@Z 000000018000d730 f i CppExport.obj
 0001:0000c868       ??$_Insert_nohint@AEAU?$pair@QEAUType@clcpp@@V?$vector@PEBUType@clcpp@@V?$allocator@PEBUType@clcpp@@@std@@@std@@@std@@PEAU?$_Tree_node@U?$pair@QEAUType@clcpp@@V?$vector@PEBUType@clcpp@@V?$allocator@PEBUType@clcpp@@@std@@@std@@@std@@PEAX@2@@?$_Tree@V?$_Tmap_traits@PEAUType@clcpp@@V?$vector@PEBUType@clcpp@@V?$allocator@PEBUType@clcpp@@@std@@@std@@U?$less@PEAUType@clcpp@@@4@V?$allocator@U?$pair@QEAUType@clcpp@@V?$vector@PEBUType@clcpp@@V?$allocator@PEBUType@clcpp@@@std@@@std@@@std@@@4@$0A@@std@@@std@@IEAA?AU?$pair@V?$_Tree_iterator@V?$_Tree_val@U?$_Tree_simple_types@U?$pair@QEAUType@clcpp@@V?$vector@PEBUType@clcpp@@V?$allocator@PEBUType@clcpp@@@std@@@std@@@std@@@std@@@std@@@std@@_N@1@_NAEAU?$pair@QEAUType@clcpp@@V?$vector@PEBUType@clcpp@@V?$allocator@PEBUType@clcpp@@@std@@@std@@@1@PEAU?$_Tree_node@U?$pair@QEAUType@clcpp@@V?$vector@PEBUType@clcpp@@V?$allocator@PEBUType@clcpp@@@std@@@std@@@std@@PEAX@1@@Z 000000018000d868 f i CppExport.obj
 0001:0000c9b4       ??$_Insert_nohint@U?$pair@$$CBIPEAUFunction@clcpp@@@std@@U_Not_a_node_tag@2@@?$_Tree@V?$_Tmap_traits@IPEAUFunction@clcpp@@U?$less@I@std@@V?$allocator@U?$pair@$$CBIPEAUFunction@clcpp@@@std@@@4@$0A@@std@@@std@@IEAA?AU?$pair@V?$_Tree_iterator@V?$_Tree_val@U?$_Tree_simple_types@U?$pair@$$CBIPEAUFunction@clcpp@@@std@@@std@@@std@@@std@@_N@1@_N$$QEAU?$pair@$$CBIPEAUFunction@clcpp@@@1@U_Not_a_node_tag@1@@Z 000000018000d9b4 f i CppExport.obj
 0001:0000cac8       ??$_Insert_nohint@U?$pair@$$CBIPEBUType@clcpp@@@std@@U_Not_a_node_tag@2@@?$_Tree@V?$_Tmap_traits@IPEBUType@clcpp@@U?$less@I@std@@V?$allocator@U?$pair@$$CBIPEBUType@clcpp@@@std@@@4@$00@std@@@std@@IEAA?AU?$pair@V?$_Tree_iterator@V?$_Tree_val@U?$_Tree_simple_types@U?$pair@$$CBIPEBUType@clcpp@@@std@@@std@@@std@@@std@@_N@1@_N$$QEAU?$pair@$$CBIPEBUType@clcpp@@@1@U_Not_a_node_tag@1@@Z 000000018000dac8 f i CppExport.obj
 0001:0000cb4c       ??$_Insert_nohint@U?$pair@$$CBIU?$pair@PEAUClass@clcpp@@H@std@@@std@@U_Not_a_node_tag@2@@?$_Tree@V?$_Tmap_traits@IU?$pair@PEAUClass@clcpp@@H@std@@U?$less@I@2@V?$allocator@U?$pair@$$CBIU?$pair@PEAUClass@clcpp@@H@std@@@std@@@2@$00@std@@@std@@IEAA?AU?$pair@V?$_Tree_iterator@V?$_Tree_val@U?$_Tree_simple_types@U?$pair@$$CBIU?$pair@PEAUClass@clcpp@@H@std@@@std@@@std@@@std@@@std@@_N@1@_N$$QEAU?$pair@$$CBIU?$pair@PEAUClass@clcpp@@H@std@@@1@U_Not_a_node_tag@1@@Z 000000018000db4c f i CppExport.obj
 0001:0000cbd0       ??$_Insert_nohint@U?$pair@$$CBIU?$pair@PEAUEnum@clcpp@@H@std@@@std@@U_Not_a_node_tag@2@@?$_Tree@V?$_Tmap_traits@IU?$pair@PEAUEnum@clcpp@@H@std@@U?$less@I@2@V?$allocator@U?$pair@$$CBIU?$pair@PEAUEnum@clcpp@@H@std@@@std@@@2@$00@std@@@std@@IEAA?AU?$pair@V?$_Tree_iterator@V?$_Tree_val@U?$_Tree_simple_types@U?$pair@$$CBIU?$pair@PEAUEnum@clcpp@@H@std@@@std@@@std@@@std@@@std@@_N@1@_N$$QEAU?$pair@$$CBIU?$pair@PEAUEnum@clcpp@@H@std@@@1@U_Not_a_node_tag@1@@Z 000000018000dbd0 f i CppExport.obj
 0001:0000cc54       ??$_Insert_nohint@U?$pair@$$CBIU?$pair@PEAUField@clcpp@@H@std@@@std@@U_Not_a_node_tag@2@@?$_Tree@V?$_Tmap_traits@IU?$pair@PEAUField@clcpp@@H@std@@U?$less@I@2@V?$allocator@U?$pair@$$CBIU?$pair@PEAUField@clcpp@@H@std@@@std@@@2@$00@std@@@std@@IEAA?AU?$pair@V?$_Tree_iterator@V?$_Tree_val@U?$_Tree_simple_types@U?$pair@$$CBIU?$pair@PEAUField@clcpp@@H@std@@@std@@@std@@@std@@@std@@_N@1@_N$$QEAU?$pair@$$CBIU?$pair@PEAUField@clcpp@@H@std@@@1@U_Not_a_node_tag@1@@Z 000000018000dc54 f i CppExport.obj
 0001:0000ccd8       ??$_Insert_nohint@U?$pair@$$CBIU?$pair@PEAUFunction@clcpp@@H@std@@@std@@U_Not_a_node_tag@2@@?$_Tree@V?$_Tmap_traits@IU?$pair@PEAUFunction@clcpp@@H@std@@U?$less@I@2@V?$allocator@U?$pair@$$CBIU?$pair@PEAUFunction@clcpp@@H@std@@@std@@@2@$00@std@@@std@@IEAA?AU?$pair@V?$_Tree_iterator@V?$_Tree_val@U?$_Tree_simple_types@U?$pair@$$CBIU?$pair@PEAUFunction@clcpp@@H@std@@@std@@@std@@@std@@@std@@_N@1@_N$$QEAU?$pair@$$CBIU?$pair@PEAUFunction@clcpp@@H@std@@@1@U_Not_a_node_tag@1@@Z 000000018000dcd8 f i CppExport.obj
 0001:0000cd5c       ??$_Insert_nohint@U?$pair@$$CBIU?$pair@PEAUNamespace@clcpp@@H@std@@@std@@U_Not_a_node_tag@2@@?$_Tree@V?$_Tmap_traits@IU?$pair@PEAUNamespace@clcpp@@H@std@@U?$less@I@2@V?$allocator@U?$pair@$$CBIU?$pair@PEAUNamespace@clcpp@@H@std@@@std@@@2@$00@std@@@std@@IEAA?AU?$pair@V?$_Tree_iterator@V?$_Tree_val@U?$_Tree_simple_types@U?$pair@$$CBIU?$pair@PEAUNamespace@clcpp@@H@std@@@std@@@std@@@std@@@std@@_N@1@_N$$QEAU?$pair@$$CBIU?$pair@PEAUNamespace@clcpp@@H@std@@@1@U_Not_a_node_tag@1@@Z 000000018000dd5c f i CppExport.obj
 0001:0000cde0       ??$_Insert_nohint@U?$pair@$$CBIU?$pair@PEAUTemplate@clcpp@@H@std@@@std@@U_Not_a_node_tag@2@@?$_Tree@V?$_Tmap_traits@IU?$pair@PEAUTemplate@clcpp@@H@std@@U?$less@I@2@V?$allocator@U?$pair@$$CBIU?$pair@PEAUTemplate@clcpp@@H@std@@@std@@@2@$00@std@@@std@@IEAA?AU?$pair@V?$_Tree_iterator@V?$_Tree_val@U?$_Tree_simple_types@U?$pair@$$CBIU?$pair@PEAUTemplate@clcpp@@H@std@@@std@@@std@@@std@@@std@@_N@1@_N$$QEAU?$pair@$$CBIU?$pair@PEAUTemplate@clcpp@@H@std@@@1@U_Not_a_node_tag@1@@Z 000000018000dde0 f i CppExport.obj
 0001:0000ce64       ??$_Insertion_sort_unchecked@PEAPEBUAttribute@clcpp@@P6A_NPEBUPrimitive@2@0@Z@std@@YAPEAPEBUAttribute@clcpp@@PEAPEBU12@QEAPEBU12@P6A_NPEBUPrimitive@2@2@Z@Z 000000018000de64 f i CppExport.obj
 0001:0000cf14       ??$_Insertion_sort_unchecked@PEAPEBUClass@clcpp@@P6A_NPEBUPrimitive@2@0@Z@std@@YAPEAPEBUClass@clcpp@@PEAPEBU12@QEAPEBU12@P6A_NPEBUPrimitive@2@2@Z@Z 000000018000df14 f i CppExport.obj
 0001:0000cfc4       ??$_Insertion_sort_unchecked@PEAPEBUEnum@clcpp@@P6A_NPEBUPrimitive@2@0@Z@std@@YAPEAPEBUEnum@clcpp@@PEAPEBU12@QEAPEBU12@P6A_NPEBUPrimitive@2@2@Z@Z 000000018000dfc4 f i CppExport.obj
 0001:0000d074       ??$_Insertion_sort_unchecked@PEAPEBUEnumConstant@clcpp@@P6A_NPEBU12@0@Z@std@@YAPEAPEBUEnumConstant@clcpp@@PEAPEBU12@QEAPEBU12@P6A_NPEBU12@2@Z@Z 000000018000e074 f i CppExport.obj
 0001:0000d124       ??$_Insertion_sort_unchecked@PEAPEBUEnumConstant@clcpp@@P6A_NPEBUPrimitive@2@0@Z@std@@YAPEAPEBUEnumConstant@clcpp@@PEAPEBU12@QEAPEBU12@P6A_NPEBUPrimitive@2@2@Z@Z 000000018000e124 f i CppExport.obj
 0001:0000d1d4       ??$_Insertion_sort_unchecked@PEAPEBUField@clcpp@@P6A_NPEBU12@0@Z@std@@YAPEAPEBUField@clcpp@@PEAPEBU12@QEAPEBU12@P6A_NPEBU12@2@Z@Z 000000018000e1d4 f i CppExport.obj
 0001:0000d284       ??$_Insertion_sort_unchecked@PEAPEBUField@clcpp@@P6A_NPEBUPrimitive@2@0@Z@std@@YAPEAPEBUField@clcpp@@PEAPEBU12@QEAPEBU12@P6A_NPEBUPrimitive@2@2@Z@Z 000000018000e284 f i CppExport.obj
 0001:0000d334       ??$_Insertion_sort_unchecked@PEAPEBUFunction@clcpp@@P6A_NPEBUPrimitive@2@0@Z@std@@YAPEAPEBUFunction@clcpp@@PEAPEBU12@QEAPEBU12@P6A_NPEBUPrimitive@2@2@Z@Z 000000018000e334 f i CppExport.obj
 0001:0000d3e4       ??$_Insertion_sort_unchecked@PEAPEBUNamespace@clcpp@@P6A_NPEBUPrimitive@2@0@Z@std@@YAPEAPEBUNamespace@clcpp@@PEAPEBU12@QEAPEBU12@P6A_NPEBUPrimitive@2@2@Z@Z 000000018000e3e4 f i CppExport.obj
 0001:0000d494       ??$_Insertion_sort_unchecked@PEAPEBUTemplate@clcpp@@P6A_NPEBUPrimitive@2@0@Z@std@@YAPEAPEBUTemplate@clcpp@@PEAPEBU12@QEAPEBU12@P6A_NPEBUPrimitive@2@2@Z@Z 000000018000e494 f i CppExport.obj
 0001:0000d544       ??$_Insertion_sort_unchecked@PEAPEBUTemplateType@clcpp@@P6A_NPEBUPrimitive@2@0@Z@std@@YAPEAPEBUTemplateType@clcpp@@PEAPEBU12@QEAPEBU12@P6A_NPEBUPrimitive@2@2@Z@Z 000000018000e544 f i CppExport.obj
 0001:0000d5f4       ??$_Insertion_sort_unchecked@PEAPEBUType@clcpp@@P6A_NPEBUPrimitive@2@0@Z@std@@YAPEAPEBUType@clcpp@@PEAPEBU12@QEAPEBU12@P6A_NPEBUPrimitive@2@2@Z@Z 000000018000e5f4 f i CppExport.obj
 0001:0000d6a4       ??$_Make_heap_unchecked@PEAPEBUAttribute@clcpp@@P6A_NPEBUPrimitive@2@0@Z@std@@YAXPEAPEBUAttribute@clcpp@@0P6A_NPEBUPrimitive@2@1@Z@Z 000000018000e6a4 f i CppExport.obj
 0001:0000d710       ??$_Make_heap_unchecked@PEAPEBUClass@clcpp@@P6A_NPEBUPrimitive@2@0@Z@std@@YAXPEAPEBUClass@clcpp@@0P6A_NPEBUPrimitive@2@1@Z@Z 000000018000e710 f i CppExport.obj
 0001:0000d77c       ??$_Make_heap_unchecked@PEAPEBUEnum@clcpp@@P6A_NPEBUPrimitive@2@0@Z@std@@YAXPEAPEBUEnum@clcpp@@0P6A_NPEBUPrimitive@2@1@Z@Z 000000018000e77c f i CppExport.obj
 0001:0000d7e8       ??$_Make_heap_unchecked@PEAPEBUEnumConstant@clcpp@@P6A_NPEBU12@0@Z@std@@YAXPEAPEBUEnumConstant@clcpp@@0P6A_NPEBU12@1@Z@Z 000000018000e7e8 f i CppExport.obj
 0001:0000d854       ??$_Make_heap_unchecked@PEAPEBUEnumConstant@clcpp@@P6A_NPEBUPrimitive@2@0@Z@std@@YAXPEAPEBUEnumConstant@clcpp@@0P6A_NPEBUPrimitive@2@1@Z@Z 000000018000e854 f i CppExport.obj
 0001:0000d8c0       ??$_Make_heap_unchecked@PEAPEBUField@clcpp@@P6A_NPEBU12@0@Z@std@@YAXPEAPEBUField@clcpp@@0P6A_NPEBU12@1@Z@Z 000000018000e8c0 f i CppExport.obj
 0001:0000d92c       ??$_Make_heap_unchecked@PEAPEBUField@clcpp@@P6A_NPEBUPrimitive@2@0@Z@std@@YAXPEAPEBUField@clcpp@@0P6A_NPEBUPrimitive@2@1@Z@Z 000000018000e92c f i CppExport.obj
 0001:0000d998       ??$_Make_heap_unchecked@PEAPEBUFunction@clcpp@@P6A_NPEBUPrimitive@2@0@Z@std@@YAXPEAPEBUFunction@clcpp@@0P6A_NPEBUPrimitive@2@1@Z@Z 000000018000e998 f i CppExport.obj
 0001:0000da04       ??$_Make_heap_unchecked@PEAPEBUNamespace@clcpp@@P6A_NPEBUPrimitive@2@0@Z@std@@YAXPEAPEBUNamespace@clcpp@@0P6A_NPEBUPrimitive@2@1@Z@Z 000000018000ea04 f i CppExport.obj
 0001:0000da70       ??$_Make_heap_unchecked@PEAPEBUTemplate@clcpp@@P6A_NPEBUPrimitive@2@0@Z@std@@YAXPEAPEBUTemplate@clcpp@@0P6A_NPEBUPrimitive@2@1@Z@Z 000000018000ea70 f i CppExport.obj
 0001:0000dadc       ??$_Make_heap_unchecked@PEAPEBUTemplateType@clcpp@@P6A_NPEBUPrimitive@2@0@Z@std@@YAXPEAPEBUTemplateType@clcpp@@0P6A_NPEBUPrimitive@2@1@Z@Z 000000018000eadc f i CppExport.obj
 0001:0000db48       ??$_Make_heap_unchecked@PEAPEBUType@clcpp@@P6A_NPEBUPrimitive@2@0@Z@std@@YAXPEAPEBUType@clcpp@@0P6A_NPEBUPrimitive@2@1@Z@Z 000000018000eb48 f i CppExport.obj
 0001:0000dbb4       ??$_Med3_unchecked@PEAPEBUAttribute@clcpp@@P6A_NPEBUPrimitive@2@0@Z@std@@YAXPEAPEBUAttribute@clcpp@@00P6A_NPEBUPrimitive@2@1@Z@Z 000000018000ebb4 f i CppExport.obj
 0001:0000dc30       ??$_Med3_unchecked@PEAPEBUClass@clcpp@@P6A_NPEBUPrimitive@2@0@Z@std@@YAXPEAPEBUClass@clcpp@@00P6A_NPEBUPrimitive@2@1@Z@Z 000000018000ec30 f i CppExport.obj
 0001:0000dcac       ??$_Med3_unchecked@PEAPEBUEnum@clcpp@@P6A_NPEBUPrimitive@2@0@Z@std@@YAXPEAPEBUEnum@clcpp@@00P6A_NPEBUPrimitive@2@1@Z@Z 000000018000ecac f i CppExport.obj
 0001:0000dd28       ??$_Med3_unchecked@PEAPEBUEnumConstant@clcpp@@P6A_NPEBU12@0@Z@std@@YAXPEAPEBUEnumConstant@clcpp@@00P6A_NPEBU12@1@Z@Z 000000018000ed28 f i CppExport.obj
 0001:0000dda4       ??$_Med3_unchecked@PEAPEBUEnumConstant@clcpp@@P6A_NPEBUPrimitive@2@0@Z@std@@YAXPEAPEBUEnumConstant@clcpp@@00P6A_NPEBUPrimitive@2@1@Z@Z 000000018000eda4 f i CppExport.obj
 0001:0000de20       ??$_Med3_unchecked@PEAPEBUField@clcpp@@P6A_NPEBU12@0@Z@std@@YAXPEAPEBUField@clcpp@@00P6A_NPEBU12@1@Z@Z 000000018000ee20 f i CppExport.obj
 0001:0000de9c       ??$_Med3_unchecked@PEAPEBUField@clcpp@@P6A_NPEBUPrimitive@2@0@Z@std@@YAXPEAPEBUField@clcpp@@00P6A_NPEBUPrimitive@2@1@Z@Z 000000018000ee9c f i CppExport.obj
 0001:0000df18       ??$_Med3_unchecked@PEAPEBUFunction@clcpp@@P6A_NPEBUPrimitive@2@0@Z@std@@YAXPEAPEBUFunction@clcpp@@00P6A_NPEBUPrimitive@2@1@Z@Z 000000018000ef18 f i CppExport.obj
 0001:0000df94       ??$_Med3_unchecked@PEAPEBUNamespace@clcpp@@P6A_NPEBUPrimitive@2@0@Z@std@@YAXPEAPEBUNamespace@clcpp@@00P6A_NPEBUPrimitive@2@1@Z@Z 000000018000ef94 f i CppExport.obj
 0001:0000e010       ??$_Med3_unchecked@PEAPEBUTemplate@clcpp@@P6A_NPEBUPrimitive@2@0@Z@std@@YAXPEAPEBUTemplate@clcpp@@00P6A_NPEBUPrimitive@2@1@Z@Z 000000018000f010 f i CppExport.obj
 0001:0000e08c       ??$_Med3_unchecked@PEAPEBUTemplateType@clcpp@@P6A_NPEBUPrimitive@2@0@Z@std@@YAXPEAPEBUTemplateType@clcpp@@00P6A_NPEBUPrimitive@2@1@Z@Z 000000018000f08c f i CppExport.obj
 0001:0000e108       ??$_Med3_unchecked@PEAPEBUType@clcpp@@P6A_NPEBUPrimitive@2@0@Z@std@@YAXPEAPEBUType@clcpp@@00P6A_NPEBUPrimitive@2@1@Z@Z 000000018000f108 f i CppExport.obj
 0001:0000e184       ??$_Partition_by_median_guess_unchecked@PEAPEBUAttribute@clcpp@@P6A_NPEBUPrimitive@2@0@Z@std@@YA?AU?$pair@PEAPEBUAttribute@clcpp@@PEAPEBU12@@0@PEAPEBUAttribute@clcpp@@0P6A_NPEBUPrimitive@3@1@Z@Z 000000018000f184 f i CppExport.obj
 0001:0000e350       ??$_Partition_by_median_guess_unchecked@PEAPEBUClass@clcpp@@P6A_NPEBUPrimitive@2@0@Z@std@@YA?AU?$pair@PEAPEBUClass@clcpp@@PEAPEBU12@@0@PEAPEBUClass@clcpp@@0P6A_NPEBUPrimitive@3@1@Z@Z 000000018000f350 f i CppExport.obj
 0001:0000e51c       ??$_Partition_by_median_guess_unchecked@PEAPEBUEnum@clcpp@@P6A_NPEBUPrimitive@2@0@Z@std@@YA?AU?$pair@PEAPEBUEnum@clcpp@@PEAPEBU12@@0@PEAPEBUEnum@clcpp@@0P6A_NPEBUPrimitive@3@1@Z@Z 000000018000f51c f i CppExport.obj
 0001:0000e6e8       ??$_Partition_by_median_guess_unchecked@PEAPEBUEnumConstant@clcpp@@P6A_NPEBU12@0@Z@std@@YA?AU?$pair@PEAPEBUEnumConstant@clcpp@@PEAPEBU12@@0@PEAPEBUEnumConstant@clcpp@@0P6A_NPEBU23@1@Z@Z 000000018000f6e8 f i CppExport.obj
 0001:0000e8b4       ??$_Partition_by_median_guess_unchecked@PEAPEBUEnumConstant@clcpp@@P6A_NPEBUPrimitive@2@0@Z@std@@YA?AU?$pair@PEAPEBUEnumConstant@clcpp@@PEAPEBU12@@0@PEAPEBUEnumConstant@clcpp@@0P6A_NPEBUPrimitive@3@1@Z@Z 000000018000f8b4 f i CppExport.obj
 0001:0000ea80       ??$_Partition_by_median_guess_unchecked@PEAPEBUField@clcpp@@P6A_NPEBU12@0@Z@std@@YA?AU?$pair@PEAPEBUField@clcpp@@PEAPEBU12@@0@PEAPEBUField@clcpp@@0P6A_NPEBU23@1@Z@Z 000000018000fa80 f i CppExport.obj
 0001:0000ec4c       ??$_Partition_by_median_guess_unchecked@PEAPEBUField@clcpp@@P6A_NPEBUPrimitive@2@0@Z@std@@YA?AU?$pair@PEAPEBUField@clcpp@@PEAPEBU12@@0@PEAPEBUField@clcpp@@0P6A_NPEBUPrimitive@3@1@Z@Z 000000018000fc4c f i CppExport.obj
 0001:0000ee18       ??$_Partition_by_median_guess_unchecked@PEAPEBUFunction@clcpp@@P6A_NPEBUPrimitive@2@0@Z@std@@YA?AU?$pair@PEAPEBUFunction@clcpp@@PEAPEBU12@@0@PEAPEBUFunction@clcpp@@0P6A_NPEBUPrimitive@3@1@Z@Z 000000018000fe18 f i CppExport.obj
 0001:0000efe4       ??$_Partition_by_median_guess_unchecked@PEAPEBUNamespace@clcpp@@P6A_NPEBUPrimitive@2@0@Z@std@@YA?AU?$pair@PEAPEBUNamespace@clcpp@@PEAPEBU12@@0@PEAPEBUNamespace@clcpp@@0P6A_NPEBUPrimitive@3@1@Z@Z 000000018000ffe4 f i CppExport.obj
 0001:0000f1b0       ??$_Partition_by_median_guess_unchecked@PEAPEBUTemplate@clcpp@@P6A_NPEBUPrimitive@2@0@Z@std@@YA?AU?$pair@PEAPEBUTemplate@clcpp@@PEAPEBU12@@0@PEAPEBUTemplate@clcpp@@0P6A_NPEBUPrimitive@3@1@Z@Z 00000001800101b0 f i CppExport.obj
 0001:0000f37c       ??$_Partition_by_median_guess_unchecked@PEAPEBUTemplateType@clcpp@@P6A_NPEBUPrimitive@2@0@Z@std@@YA?AU?$pair@PEAPEBUTemplateType@clcpp@@PEAPEBU12@@0@PEAPEBUTemplateType@clcpp@@0P6A_NPEBUPrimitive@3@1@Z@Z 000000018001037c f i CppExport.obj
 0001:0000f548       ??$_Partition_by_median_guess_unchecked@PEAPEBUType@clcpp@@P6A_NPEBUPrimitive@2@0@Z@std@@YA?AU?$pair@PEAPEBUType@clcpp@@PEAPEBU12@@0@PEAPEBUType@clcpp@@0P6A_NPEBUPrimitive@3@1@Z@Z 0000000180010548 f i CppExport.obj
 0001:0000f714       ??$_Pop_heap_hole_by_index@PEAPEBUAttribute@clcpp@@PEBU12@P6A_NPEBUPrimitive@2@0@Z@std@@YAXPEAPEBUAttribute@clcpp@@_J1$$QEAPEBU12@P6A_NPEBUPrimitive@2@3@Z@Z 0000000180010714 f i CppExport.obj
 0001:0000f7d8       ??$_Pop_heap_hole_by_index@PEAPEBUClass@clcpp@@PEBU12@P6A_NPEBUPrimitive@2@0@Z@std@@YAXPEAPEBUClass@clcpp@@_J1$$QEAPEBU12@P6A_NPEBUPrimitive@2@3@Z@Z 00000001800107d8 f i CppExport.obj
 0001:0000f89c       ??$_Pop_heap_hole_by_index@PEAPEBUEnum@clcpp@@PEBU12@P6A_NPEBUPrimitive@2@0@Z@std@@YAXPEAPEBUEnum@clcpp@@_J1$$QEAPEBU12@P6A_NPEBUPrimitive@2@3@Z@Z 000000018001089c f i CppExport.obj
 0001:0000f960       ??$_Pop_heap_hole_by_index@PEAPEBUEnumConstant@clcpp@@PEBU12@P6A_NPEBU12@0@Z@std@@YAXPEAPEBUEnumConstant@clcpp@@_J1$$QEAPEBU12@P6A_NPEBU12@3@Z@Z 0000000180010960 f i CppExport.obj
 0001:0000fa24       ??$_Pop_heap_hole_by_index@PEAPEBUEnumConstant@clcpp@@PEBU12@P6A_NPEBUPrimitive@2@0@Z@std@@YAXPEAPEBUEnumConstant@clcpp@@_J1$$QEAPEBU12@P6A_NPEBUPrimitive@2@3@Z@Z 0000000180010a24 f i CppExport.obj
 0001:0000fae8       ??$_Pop_heap_hole_by_index@PEAPEBUField@clcpp@@PEBU12@P6A_NPEBU12@0@Z@std@@YAXPEAPEBUField@clcpp@@_J1$$QEAPEBU12@P6A_NPEBU12@3@Z@Z 0000000180010ae8 f i CppExport.obj
 0001:0000fbac       ??$_Pop_heap_hole_by_index@PEAPEBUField@clcpp@@PEBU12@P6A_NPEBUPrimitive@2@0@Z@std@@YAXPEAPEBUField@clcpp@@_J1$$QEAPEBU12@P6A_NPEBUPrimitive@2@3@Z@Z 0000000180010bac f i CppExport.obj
 0001:0000fc70       ??$_Pop_heap_hole_by_index@PEAPEBUFunction@clcpp@@PEBU12@P6A_NPEBUPrimitive@2@0@Z@std@@YAXPEAPEBUFunction@clcpp@@_J1$$QEAPEBU12@P6A_NPEBUPrimitive@2@3@Z@Z 0000000180010c70 f i CppExport.obj
 0001:0000fd34       ??$_Pop_heap_hole_by_index@PEAPEBUNamespace@clcpp@@PEBU12@P6A_NPEBUPrimitive@2@0@Z@std@@YAXPEAPEBUNamespace@clcpp@@_J1$$QEAPEBU12@P6A_NPEBUPrimitive@2@3@Z@Z 0000000180010d34 f i CppExport.obj
 0001:0000fdf8       ??$_Pop_heap_hole_by_index@PEAPEBUTemplate@clcpp@@PEBU12@P6A_NPEBUPrimitive@2@0@Z@std@@YAXPEAPEBUTemplate@clcpp@@_J1$$QEAPEBU12@P6A_NPEBUPrimitive@2@3@Z@Z 0000000180010df8 f i CppExport.obj
 0001:0000febc       ??$_Pop_heap_hole_by_index@PEAPEBUTemplateType@clcpp@@PEBU12@P6A_NPEBUPrimitive@2@0@Z@std@@YAXPEAPEBUTemplateType@clcpp@@_J1$$QEAPEBU12@P6A_NPEBUPrimitive@2@3@Z@Z 0000000180010ebc f i CppExport.obj
 0001:0000ff80       ??$_Pop_heap_hole_by_index@PEAPEBUType@clcpp@@PEBU12@P6A_NPEBUPrimitive@2@0@Z@std@@YAXPEAPEBUType@clcpp@@_J1$$QEAPEBU12@P6A_NPEBUPrimitive@2@3@Z@Z 0000000180010f80 f i CppExport.obj
 0001:00010044       ??$_Push_heap_by_index@PEAPEBUAttribute@clcpp@@PEBU12@P6A_NPEBUPrimitive@2@0@Z@std@@YAXPEAPEBUAttribute@clcpp@@_J1$$QEAPEBU12@P6A_NPEBUPrimitive@2@3@Z@Z 0000000180011044 f i CppExport.obj
 0001:000100b8       ??$_Push_heap_by_index@PEAPEBUClass@clcpp@@PEBU12@P6A_NPEBUPrimitive@2@0@Z@std@@YAXPEAPEBUClass@clcpp@@_J1$$QEAPEBU12@P6A_NPEBUPrimitive@2@3@Z@Z 00000001800110b8 f i CppExport.obj
 0001:0001012c       ??$_Push_heap_by_index@PEAPEBUEnum@clcpp@@PEBU12@P6A_NPEBUPrimitive@2@0@Z@std@@YAXPEAPEBUEnum@clcpp@@_J1$$QEAPEBU12@P6A_NPEBUPrimitive@2@3@Z@Z 000000018001112c f i CppExport.obj
 0001:000101a0       ??$_Push_heap_by_index@PEAPEBUEnumConstant@clcpp@@PEBU12@P6A_NPEBU12@0@Z@std@@YAXPEAPEBUEnumConstant@clcpp@@_J1$$QEAPEBU12@P6A_NPEBU12@3@Z@Z 00000001800111a0 f i CppExport.obj
 0001:00010214       ??$_Push_heap_by_index@PEAPEBUEnumConstant@clcpp@@PEBU12@P6A_NPEBUPrimitive@2@0@Z@std@@YAXPEAPEBUEnumConstant@clcpp@@_J1$$QEAPEBU12@P6A_NPEBUPrimitive@2@3@Z@Z 0000000180011214 f i CppExport.obj
 0001:00010288       ??$_Push_heap_by_index@PEAPEBUField@clcpp@@PEBU12@P6A_NPEBU12@0@Z@std@@YAXPEAPEBUField@clcpp@@_J1$$QEAPEBU12@P6A_NPEBU12@3@Z@Z 0000000180011288 f i CppExport.obj
 0001:000102fc       ??$_Push_heap_by_index@PEAPEBUField@clcpp@@PEBU12@P6A_NPEBUPrimitive@2@0@Z@std@@YAXPEAPEBUField@clcpp@@_J1$$QEAPEBU12@P6A_NPEBUPrimitive@2@3@Z@Z 00000001800112fc f i CppExport.obj
 0001:00010370       ??$_Push_heap_by_index@PEAPEBUFunction@clcpp@@PEBU12@P6A_NPEBUPrimitive@2@0@Z@std@@YAXPEAPEBUFunction@clcpp@@_J1$$QEAPEBU12@P6A_NPEBUPrimitive@2@3@Z@Z 0000000180011370 f i CppExport.obj
 0001:000103e4       ??$_Push_heap_by_index@PEAPEBUNamespace@clcpp@@PEBU12@P6A_NPEBUPrimitive@2@0@Z@std@@YAXPEAPEBUNamespace@clcpp@@_J1$$QEAPEBU12@P6A_NPEBUPrimitive@2@3@Z@Z 00000001800113e4 f i CppExport.obj
 0001:00010458       ??$_Push_heap_by_index@PEAPEBUTemplate@clcpp@@PEBU12@P6A_NPEBUPrimitive@2@0@Z@std@@YAXPEAPEBUTemplate@clcpp@@_J1$$QEAPEBU12@P6A_NPEBUPrimitive@2@3@Z@Z 0000000180011458 f i CppExport.obj
 0001:000104cc       ??$_Push_heap_by_index@PEAPEBUTemplateType@clcpp@@PEBU12@P6A_NPEBUPrimitive@2@0@Z@std@@YAXPEAPEBUTemplateType@clcpp@@_J1$$QEAPEBU12@P6A_NPEBUPrimitive@2@3@Z@Z 00000001800114cc f i CppExport.obj
 0001:00010540       ??$_Push_heap_by_index@PEAPEBUType@clcpp@@PEBU12@P6A_NPEBUPrimitive@2@0@Z@std@@YAXPEAPEBUType@clcpp@@_J1$$QEAPEBU12@P6A_NPEBUPrimitive@2@3@Z@Z 0000000180011540 f i CppExport.obj
 0001:000105b4       ??$_Reallocate_for@V<lambda_66f57f934f28d61049862f64df852ff0>@@PEBD@?$basic_string@DU?$char_traits@D@std@@V?$allocator@D@2@@std@@QEAAAEAV01@_KV<lambda_66f57f934f28d61049862f64df852ff0>@@PEBD@Z 00000001800115b4 f i CppExport.obj
 0001:000106dc       ??$_Reallocate_grow_by@V<lambda_65e615be2a453ca0576c979606f46740>@@PEBD_K@?$basic_string@DU?$char_traits@D@std@@V?$allocator@D@2@@std@@QEAAAEAV01@_KV<lambda_65e615be2a453ca0576c979606f46740>@@PEBD_K@Z 00000001800116dc f i CppExport.obj
 0001:00010850       ??$_Reallocate_grow_by@V<lambda_f3a66ab6a0570788f31503db83886f49>@@_KPEBD_K@?$basic_string@DU?$char_traits@D@std@@V?$allocator@D@2@@std@@QEAAAEAV01@_KV<lambda_f3a66ab6a0570788f31503db83886f49>@@_KPEBD2@Z 0000000180011850 f i CppExport.obj
 0001:000109e4       ??$_Sort_heap_unchecked@PEAPEBUAttribute@clcpp@@P6A_NPEBUPrimitive@2@0@Z@std@@YAXPEAPEBUAttribute@clcpp@@0P6A_NPEBUPrimitive@2@1@Z@Z 00000001800119e4 f i CppExport.obj
 0001:00010a74       ??$_Sort_heap_unchecked@PEAPEBUClass@clcpp@@P6A_NPEBUPrimitive@2@0@Z@std@@YAXPEAPEBUClass@clcpp@@0P6A_NPEBUPrimitive@2@1@Z@Z 0000000180011a74 f i CppExport.obj
 0001:00010b04       ??$_Sort_heap_unchecked@PEAPEBUEnum@clcpp@@P6A_NPEBUPrimitive@2@0@Z@std@@YAXPEAPEBUEnum@clcpp@@0P6A_NPEBUPrimitive@2@1@Z@Z 0000000180011b04 f i CppExport.obj
 0001:00010b94       ??$_Sort_heap_unchecked@PEAPEBUEnumConstant@clcpp@@P6A_NPEBU12@0@Z@std@@YAXPEAPEBUEnumConstant@clcpp@@0P6A_NPEBU12@1@Z@Z 0000000180011b94 f i CppExport.obj
 0001:00010c24       ??$_Sort_heap_unchecked@PEAPEBUEnumConstant@clcpp@@P6A_NPEBUPrimitive@2@0@Z@std@@YAXPEAPEBUEnumConstant@clcpp@@0P6A_NPEBUPrimitive@2@1@Z@Z 0000000180011c24 f i CppExport.obj
 0001:00010cb4       ??$_Sort_heap_unchecked@PEAPEBUField@clcpp@@P6A_NPEBU12@0@Z@std@@YAXPEAPEBUField@clcpp@@0P6A_NPEBU12@1@Z@Z 0000000180011cb4 f i CppExport.obj
 0001:00010d44       ??$_Sort_heap_unchecked@PEAPEBUField@clcpp@@P6A_NPEBUPrimitive@2@0@Z@std@@YAXPEAPEBUField@clcpp@@0P6A_NPEBUPrimitive@2@1@Z@Z 0000000180011d44 f i CppExport.obj
 0001:00010dd4       ??$_Sort_heap_unchecked@PEAPEBUFunction@clcpp@@P6A_NPEBUPrimitive@2@0@Z@std@@YAXPEAPEBUFunction@clcpp@@0P6A_NPEBUPrimitive@2@1@Z@Z 0000000180011dd4 f i CppExport.obj
 0001:00010e64       ??$_Sort_heap_unchecked@PEAPEBUNamespace@clcpp@@P6A_NPEBUPrimitive@2@0@Z@std@@YAXPEAPEBUNamespace@clcpp@@0P6A_NPEBUPrimitive@2@1@Z@Z 0000000180011e64 f i CppExport.obj
 0001:00010ef4       ??$_Sort_heap_unchecked@PEAPEBUTemplate@clcpp@@P6A_NPEBUPrimitive@2@0@Z@std@@YAXPEAPEBUTemplate@clcpp@@0P6A_NPEBUPrimitive@2@1@Z@Z 0000000180011ef4 f i CppExport.obj
 0001:00010f84       ??$_Sort_heap_unchecked@PEAPEBUTemplateType@clcpp@@P6A_NPEBUPrimitive@2@0@Z@std@@YAXPEAPEBUTemplateType@clcpp@@0P6A_NPEBUPrimitive@2@1@Z@Z 0000000180011f84 f i CppExport.obj
 0001:00011014       ??$_Sort_heap_unchecked@PEAPEBUType@clcpp@@P6A_NPEBUPrimitive@2@0@Z@std@@YAXPEAPEBUType@clcpp@@0P6A_NPEBUPrimitive@2@1@Z@Z 0000000180012014 f i CppExport.obj
 0001:000110a4       ??$_Sort_unchecked@PEAPEBUAttribute@clcpp@@P6A_NPEBUPrimitive@2@0@Z@std@@YAXPEAPEBUAttribute@clcpp@@0_JP6A_NPEBUPrimitive@2@2@Z@Z 00000001800120a4 f i CppExport.obj
 0001:000111a4       ??$_Sort_unchecked@PEAPEBUClass@clcpp@@P6A_NPEBUPrimitive@2@0@Z@std@@YAXPEAPEBUClass@clcpp@@0_JP6A_NPEBUPrimitive@2@2@Z@Z 00000001800121a4 f i CppExport.obj
 0001:000112a4       ??$_Sort_unchecked@PEAPEBUEnum@clcpp@@P6A_NPEBUPrimitive@2@0@Z@std@@YAXPEAPEBUEnum@clcpp@@0_JP6A_NPEBUPrimitive@2@2@Z@Z 00000001800122a4 f i CppExport.obj
 0001:000113a4       ??$_Sort_unchecked@PEAPEBUEnumConstant@clcpp@@P6A_NPEBU12@0@Z@std@@YAXPEAPEBUEnumConstant@clcpp@@0_JP6A_NPEBU12@2@Z@Z 00000001800123a4 f i CppExport.obj
 0001:000114a4       ??$_Sort_unchecked@PEAPEBUEnumConstant@clcpp@@P6A_NPEBUPrimitive@2@0@Z@std@@YAXPEAPEBUEnumConstant@clcpp@@0_JP6A_NPEBUPrimitive@2@2@Z@Z 00000001800124a4 f i CppExport.obj
 0001:000115a4       ??$_Sort_unchecked@PEAPEBUField@clcpp@@P6A_NPEBU12@0@Z@std@@YAXPEAPEBUField@clcpp@@0_JP6A_NPEBU12@2@Z@Z 00000001800125a4 f i CppExport.obj
 0001:000116a4       ??$_Sort_unchecked@PEAPEBUField@clcpp@@P6A_NPEBUPrimitive@2@0@Z@std@@YAXPEAPEBUField@clcpp@@0_JP6A_NPEBUPrimitive@2@2@Z@Z 00000001800126a4 f i CppExport.obj
 0001:000117a4       ??$_Sort_unchecked@PEAPEBUFunction@clcpp@@P6A_NPEBUPrimitive@2@0@Z@std@@YAXPEAPEBUFunction@clcpp@@0_JP6A_NPEBUPrimitive@2@2@Z@Z 00000001800127a4 f i CppExport.obj
 0001:000118a4       ??$_Sort_unchecked@PEAPEBUNamespace@clcpp@@P6A_NPEBUPrimitive@2@0@Z@std@@YAXPEAPEBUNamespace@clcpp@@0_JP6A_NPEBUPrimitive@2@2@Z@Z 00000001800128a4 f i CppExport.obj
 0001:000119a4       ??$_Sort_unchecked@PEAPEBUTemplate@clcpp@@P6A_NPEBUPrimitive@2@0@Z@std@@YAXPEAPEBUTemplate@clcpp@@0_JP6A_NPEBUPrimitive@2@2@Z@Z 00000001800129a4 f i CppExport.obj
 0001:00011aa4       ??$_Sort_unchecked@PEAPEBUTemplateType@clcpp@@P6A_NPEBUPrimitive@2@0@Z@std@@YAXPEAPEBUTemplateType@clcpp@@0_JP6A_NPEBUPrimitive@2@2@Z@Z 0000000180012aa4 f i CppExport.obj
 0001:00011ba4       ??$_Sort_unchecked@PEAPEBUType@clcpp@@P6A_NPEBUPrimitive@2@0@Z@std@@YAXPEAPEBUType@clcpp@@0_JP6A_NPEBUPrimitive@2@2@Z@Z 0000000180012ba4 f i CppExport.obj
 0001:00011ca4       ??$_Try_emplace@AEBI$$V@?$map@IPEBDU?$less@I@std@@V?$allocator@U?$pair@$$CBIPEBD@std@@@2@@std@@QEAA?AU?$pair@V?$_Tree_iterator@V?$_Tree_val@U?$_Tree_simple_types@U?$pair@$$CBIPEBD@std@@@std@@@std@@@std@@_N@1@AEBI@Z 0000000180012ca4 f i CppExport.obj
 0001:00011d48       ??$_Try_emplace@AEBI$$V@?$map@IPEBUPrimitive@clcpp@@U?$less@I@std@@V?$allocator@U?$pair@$$CBIPEBUPrimitive@clcpp@@@std@@@4@@std@@QEAA?AU?$pair@V?$_Tree_iterator@V?$_Tree_val@U?$_Tree_simple_types@U?$pair@$$CBIPEBUPrimitive@clcpp@@@std@@@std@@@std@@@std@@_N@1@AEBI@Z 0000000180012d48 f i CppExport.obj
 0001:00011dec       ??$_Try_emplace@AEBI$$V@?$map@IPEBUTemplate@clcpp@@U?$less@I@std@@V?$allocator@U?$pair@$$CBIPEBUTemplate@clcpp@@@std@@@4@@std@@QEAA?AU?$pair@V?$_Tree_iterator@V?$_Tree_val@U?$_Tree_simple_types@U?$pair@$$CBIPEBUTemplate@clcpp@@@std@@@std@@@std@@@std@@_N@1@AEBI@Z 0000000180012dec f i CppExport.obj
 0001:00011e90       ??$_Try_emplace@PEAUType@clcpp@@$$V@?$map@PEAUType@clcpp@@V?$vector@PEBUType@clcpp@@V?$allocator@PEBUType@clcpp@@@std@@@std@@U?$less@PEAUType@clcpp@@@4@V?$allocator@U?$pair@QEAUType@clcpp@@V?$vector@PEBUType@clcpp@@V?$allocator@PEBUType@clcpp@@@std@@@std@@@std@@@4@@std@@QEAA?AU?$pair@V?$_Tree_iterator@V?$_Tree_val@U?$_Tree_simple_types@U?$pair@QEAUType@clcpp@@V?$vector@PEBUType@clcpp@@V?$allocator@PEBUType@clcpp@@@std@@@std@@@std@@@std@@@std@@@std@@_N@1@$$QEAPEAUType@clcpp@@@Z 0000000180012e90 f i CppExport.obj
 0001:00011f38       ??1?$CArray@PEAUClass@clcpp@@@@QEAA@XZ 0000000180012f38 f i CppExport.obj
 0001:00011f64       ??1?$CArray@PEAUEnum@clcpp@@@@QEAA@XZ 0000000180012f64 f i CppExport.obj
 0001:00011f90       ??1?$CArray@PEAUEnumConstant@clcpp@@@@QEAA@XZ 0000000180012f90 f i CppExport.obj
 0001:00011fbc       ??1?$CArray@PEAUField@clcpp@@@@QEAA@XZ 0000000180012fbc f i CppExport.obj
 0001:00011fe8       ??1?$CArray@PEAUFunction@clcpp@@@@QEAA@XZ 0000000180012fe8 f i CppExport.obj
 0001:00012014       ??1?$CArray@PEAUNamespace@clcpp@@@@QEAA@XZ 0000000180013014 f i CppExport.obj
 0001:00012040       ??1?$CArray@PEAUTemplate@clcpp@@@@QEAA@XZ 0000000180013040 f i CppExport.obj
 0001:0001206c       ??1?$CArray@PEAUTemplateType@clcpp@@@@QEAA@XZ 000000018001306c f i CppExport.obj
 0001:00012098       ??1?$CArray@PEAUType@clcpp@@@@QEAA@XZ 0000000180013098 f i CppExport.obj
 0001:000120c4       ??1?$CArray@PEBUField@clcpp@@@@QEAA@XZ 00000001800130c4 f i CppExport.obj
 0001:000121f8       ??1?$basic_string@DU?$char_traits@D@std@@V?$allocator@D@2@@std@@QEAA@XZ 00000001800131f8 f i CppExport.obj
 0001:00012254       ??1?$list@UPtrSchema@@V?$allocator@UPtrSchema@@@std@@@std@@QEAA@XZ 0000000180013254 f i CppExport.obj
 0001:000122c4       ??1?$map@IPEAUFunction@clcpp@@U?$less@I@std@@V?$allocator@U?$pair@$$CBIPEAUFunction@clcpp@@@std@@@4@@std@@QEAA@XZ 00000001800132c4 f i CppExport.obj
 0001:000122f0       ??1?$map@IPEBUPrimitive@clcpp@@U?$less@I@std@@V?$allocator@U?$pair@$$CBIPEBUPrimitive@clcpp@@@std@@@4@@std@@QEAA@XZ 00000001800132f0 f i CppExport.obj
 0001:0001231c       ??1?$map@IPEBUTemplate@clcpp@@U?$less@I@std@@V?$allocator@U?$pair@$$CBIPEBUTemplate@clcpp@@@std@@@4@@std@@QEAA@XZ 000000018001331c f i CppExport.obj
 0001:00012348       ??1?$map@PEAUType@clcpp@@V?$vector@PEBUType@clcpp@@V?$allocator@PEBUType@clcpp@@@std@@@std@@U?$less@PEAUType@clcpp@@@4@V?$allocator@U?$pair@QEAUType@clcpp@@V?$vector@PEBUType@clcpp@@V?$allocator@PEBUType@clcpp@@@std@@@std@@@std@@@4@@std@@QEAA@XZ 0000000180013348 f i CppExport.obj
 0001:00012374       ??1?$multimap@IPEBUType@clcpp@@U?$less@I@std@@V?$allocator@U?$pair@$$CBIPEBUType@clcpp@@@std@@@4@@std@@QEAA@XZ 0000000180013374 f i CppExport.obj
 0001:000123a0       ??1?$multimap@IU?$pair@PEAUClass@clcpp@@H@std@@U?$less@I@2@V?$allocator@U?$pair@$$CBIU?$pair@PEAUClass@clcpp@@H@std@@@std@@@2@@std@@QEAA@XZ 00000001800133a0 f i CppExport.obj
 0001:000123cc       ??1?$multimap@IU?$pair@PEAUEnum@clcpp@@H@std@@U?$less@I@2@V?$allocator@U?$pair@$$CBIU?$pair@PEAUEnum@clcpp@@H@std@@@std@@@2@@std@@QEAA@XZ 00000001800133cc f i CppExport.obj
 0001:000123f8       ??1?$multimap@IU?$pair@PEAUField@clcpp@@H@std@@U?$less@I@2@V?$allocator@U?$pair@$$CBIU?$pair@PEAUField@clcpp@@H@std@@@std@@@2@@std@@QEAA@XZ 00000001800133f8 f i CppExport.obj
 0001:00012424       ??1?$multimap@IU?$pair@PEAUFunction@clcpp@@H@std@@U?$less@I@2@V?$allocator@U?$pair@$$CBIU?$pair@PEAUFunction@clcpp@@H@std@@@std@@@2@@std@@QEAA@XZ 0000000180013424 f i CppExport.obj
 0001:00012450       ??1?$multimap@IU?$pair@PEAUNamespace@clcpp@@H@std@@U?$less@I@2@V?$allocator@U?$pair@$$CBIU?$pair@PEAUNamespace@clcpp@@H@std@@@std@@@2@@std@@QEAA@XZ 0000000180013450 f i CppExport.obj
 0001:0001247c       ??1?$multimap@IU?$pair@PEAUTemplate@clcpp@@H@std@@U?$less@I@2@V?$allocator@U?$pair@$$CBIU?$pair@PEAUTemplate@clcpp@@H@std@@@std@@@2@@std@@QEAA@XZ 000000018001347c f i CppExport.obj
 0001:000124a8       ??1PtrRelocator@@QEAA@XZ   00000001800134a8 f i CppExport.obj
 0001:00012518       ??F?$_Tree_unchecked_const_iterator@V?$_Tree_val@U?$_Tree_simple_types@U?$pair@$$CBIPEAUFunction@clcpp@@@std@@@std@@@std@@U_Iterator_base0@2@@std@@QEAAAEAV01@XZ 0000000180013518 f i CppExport.obj
 0001:0001258c       ??F?$_Tree_unchecked_const_iterator@V?$_Tree_val@U?$_Tree_simple_types@U?$pair@$$CBIPEBD@std@@@std@@@std@@U_Iterator_base0@2@@std@@QEAAAEAV01@XZ 000000018001358c f i CppExport.obj
 0001:00012600       ??F?$_Tree_unchecked_const_iterator@V?$_Tree_val@U?$_Tree_simple_types@U?$pair@$$CBIPEBUPrimitive@clcpp@@@std@@@std@@@std@@U_Iterator_base0@2@@std@@QEAAAEAV01@XZ 0000000180013600 f i CppExport.obj
 0001:00012674       ??F?$_Tree_unchecked_const_iterator@V?$_Tree_val@U?$_Tree_simple_types@U?$pair@$$CBIPEBUTemplate@clcpp@@@std@@@std@@@std@@U_Iterator_base0@2@@std@@QEAAAEAV01@XZ 0000000180013674 f i CppExport.obj
 0001:000126e8       ??F?$_Tree_unchecked_const_iterator@V?$_Tree_val@U?$_Tree_simple_types@U?$pair@QEAUType@clcpp@@V?$vector@PEBUType@clcpp@@V?$allocator@PEBUType@clcpp@@@std@@@std@@@std@@@std@@@std@@U_Iterator_base0@2@@std@@QEAAAEAV01@XZ 00000001800136e8 f i CppExport.obj
 0001:0001275c       ??_G?$pair@QEAUType@clcpp@@V?$vector@PEBUType@clcpp@@V?$allocator@PEBUType@clcpp@@@std@@@std@@@std@@QEAAPEAXI@Z 000000018001375c f i CppExport.obj
 0001:000127dc       ??_GPtrSchema@@QEAAPEAXI@Z 00000001800137dc f i CppExport.obj
 0001:00012f04       ?BuildCppExport@@YA_NAEBVDatabase@cldb@@AEAUCppExport@@@Z 0000000180013f04 f   CppExport.obj
 0001:000165b8       ?SaveCppExport@@YAXAEAUCppExport@@PEBD@Z 00000001800175b8 f   CppExport.obj
 0001:00017d98       ?WriteCppExportAsText@@YAXAEBUCppExport@@PEBD@Z 0000000180018d98 f   CppExport.obj
 0001:00017dcc       ?_Buyheadnode@?$_Tree_comp_alloc@V?$_Tmap_traits@IPEAUFunction@clcpp@@U?$less@I@std@@V?$allocator@U?$pair@$$CBIPEAUFunction@clcpp@@@std@@@4@$0A@@std@@@std@@QEAAPEAU?$_Tree_node@U?$pair@$$CBIPEAUFunction@clcpp@@@std@@PEAX@2@XZ 0000000180018dcc f i CppExport.obj
 0001:00017e04       ?_Buyheadnode@?$_Tree_comp_alloc@V?$_Tmap_traits@IPEBUPrimitive@clcpp@@U?$less@I@std@@V?$allocator@U?$pair@$$CBIPEBUPrimitive@clcpp@@@std@@@4@$0A@@std@@@std@@QEAAPEAU?$_Tree_node@U?$pair@$$CBIPEBUPrimitive@clcpp@@@std@@PEAX@2@XZ 0000000180018e04 f i CppExport.obj
 0001:00017e3c       ?_Buyheadnode@?$_Tree_comp_alloc@V?$_Tmap_traits@IPEBUTemplate@clcpp@@U?$less@I@std@@V?$allocator@U?$pair@$$CBIPEBUTemplate@clcpp@@@std@@@4@$0A@@std@@@std@@QEAAPEAU?$_Tree_node@U?$pair@$$CBIPEBUTemplate@clcpp@@@std@@PEAX@2@XZ 0000000180018e3c f i CppExport.obj
 0001:00017e74       ?_Buyheadnode@?$_Tree_comp_alloc@V?$_Tmap_traits@IPEBUType@clcpp@@U?$less@I@std@@V?$allocator@U?$pair@$$CBIPEBUType@clcpp@@@std@@@4@$00@std@@@std@@QEAAPEAU?$_Tree_node@U?$pair@$$CBIPEBUType@clcpp@@@std@@PEAX@2@XZ 0000000180018e74 f i CppExport.obj
 0001:00017eac       ?_Buyheadnode@?$_Tree_comp_alloc@V?$_Tmap_traits@IU?$pair@PEAUClass@clcpp@@H@std@@U?$less@I@2@V?$allocator@U?$pair@$$CBIU?$pair@PEAUClass@clcpp@@H@std@@@std@@@2@$00@std@@@std@@QEAAPEAU?$_Tree_node@U?$pair@$$CBIU?$pair@PEAUClass@clcpp@@H@std@@@std@@PEAX@2@XZ 0000000180018eac f i CppExport.obj
 0001:00017ee4       ?_Buyheadnode@?$_Tree_comp_alloc@V?$_Tmap_traits@IU?$pair@PEAUEnum@clcpp@@H@std@@U?$less@I@2@V?$allocator@U?$pair@$$CBIU?$pair@PEAUEnum@clcpp@@H@std@@@std@@@2@$00@std@@@std@@QEAAPEAU?$_Tree_node@U?$pair@$$CBIU?$pair@PEAUEnum@clcpp@@H@std@@@std@@PEAX@2@XZ 0000000180018ee4 f i CppExport.obj
 0001:00017f1c       ?_Buyheadnode@?$_Tree_comp_alloc@V?$_Tmap_traits@IU?$pair@PEAUField@clcpp@@H@std@@U?$less@I@2@V?$allocator@U?$pair@$$CBIU?$pair@PEAUField@clcpp@@H@std@@@std@@@2@$00@std@@@std@@QEAAPEAU?$_Tree_node@U?$pair@$$CBIU?$pair@PEAUField@clcpp@@H@std@@@std@@PEAX@2@XZ 0000000180018f1c f i CppExport.obj
 0001:00017f54       ?_Buyheadnode@?$_Tree_comp_alloc@V?$_Tmap_traits@IU?$pair@PEAUFunction@clcpp@@H@std@@U?$less@I@2@V?$allocator@U?$pair@$$CBIU?$pair@PEAUFunction@clcpp@@H@std@@@std@@@2@$00@std@@@std@@QEAAPEAU?$_Tree_node@U?$pair@$$CBIU?$pair@PEAUFunction@clcpp@@H@std@@@std@@PEAX@2@XZ 0000000180018f54 f i CppExport.obj
 0001:00017f8c       ?_Buyheadnode@?$_Tree_comp_alloc@V?$_Tmap_traits@IU?$pair@PEAUNamespace@clcpp@@H@std@@U?$less@I@2@V?$allocator@U?$pair@$$CBIU?$pair@PEAUNamespace@clcpp@@H@std@@@std@@@2@$00@std@@@std@@QEAAPEAU?$_Tree_node@U?$pair@$$CBIU?$pair@PEAUNamespace@clcpp@@H@std@@@std@@PEAX@2@XZ 0000000180018f8c f i CppExport.obj
 0001:00017fc4       ?_Buyheadnode@?$_Tree_comp_alloc@V?$_Tmap_traits@IU?$pair@PEAUTemplate@clcpp@@H@std@@U?$less@I@2@V?$allocator@U?$pair@$$CBIU?$pair@PEAUTemplate@clcpp@@H@std@@@std@@@2@$00@std@@@std@@QEAAPEAU?$_Tree_node@U?$pair@$$CBIU?$pair@PEAUTemplate@clcpp@@H@std@@@std@@PEAX@2@XZ 0000000180018fc4 f i CppExport.obj
 0001:00017ffc       ?_Buyheadnode@?$_Tree_comp_alloc@V?$_Tmap_traits@PEAUType@clcpp@@V?$vector@PEBUType@clcpp@@V?$allocator@PEBUType@clcpp@@@std@@@std@@U?$less@PEAUType@clcpp@@@4@V?$allocator@U?$pair@QEAUType@clcpp@@V?$vector@PEBUType@clcpp@@V?$allocator@PEBUType@clcpp@@@std@@@std@@@std@@@4@$0A@@std@@@std@@QEAAPEAU?$_Tree_node@U?$pair@QEAUType@clcpp@@V?$vector@PEBUType@clcpp@@V?$allocator@PEBUType@clcpp@@@std@@@std@@@std@@PEAX@2@XZ 0000000180018ffc f i CppExport.obj
 0001:00018034       ?_Buynode0@?$_Tree_comp_alloc@V?$_Tmap_traits@IPEAUFunction@clcpp@@U?$less@I@std@@V?$allocator@U?$pair@$$CBIPEAUFunction@clcpp@@@std@@@4@$0A@@std@@@std@@QEAAPEAU?$_Tree_node@U?$pair@$$CBIPEAUFunction@clcpp@@@std@@PEAX@2@XZ 0000000180019034 f i CppExport.obj
 0001:00018074       ?_Buynode0@?$_Tree_comp_alloc@V?$_Tmap_traits@IPEBDU?$less@I@std@@V?$allocator@U?$pair@$$CBIPEBD@std@@@2@$0A@@std@@@std@@QEAAPEAU?$_Tree_node@U?$pair@$$CBIPEBD@std@@PEAX@2@XZ 0000000180019074 f i CppExport.obj
 0001:000180b4       ?_Buynode0@?$_Tree_comp_alloc@V?$_Tmap_traits@IPEBUPrimitive@clcpp@@U?$less@I@std@@V?$allocator@U?$pair@$$CBIPEBUPrimitive@clcpp@@@std@@@4@$0A@@std@@@std@@QEAAPEAU?$_Tree_node@U?$pair@$$CBIPEBUPrimitive@clcpp@@@std@@PEAX@2@XZ 00000001800190b4 f i CppExport.obj
 0001:000180f4       ?_Buynode0@?$_Tree_comp_alloc@V?$_Tmap_traits@IPEBUTemplate@clcpp@@U?$less@I@std@@V?$allocator@U?$pair@$$CBIPEBUTemplate@clcpp@@@std@@@4@$0A@@std@@@std@@QEAAPEAU?$_Tree_node@U?$pair@$$CBIPEBUTemplate@clcpp@@@std@@PEAX@2@XZ 00000001800190f4 f i CppExport.obj
 0001:00018134       ?_Buynode0@?$_Tree_comp_alloc@V?$_Tmap_traits@IPEBUType@clcpp@@U?$less@I@std@@V?$allocator@U?$pair@$$CBIPEBUType@clcpp@@@std@@@4@$00@std@@@std@@QEAAPEAU?$_Tree_node@U?$pair@$$CBIPEBUType@clcpp@@@std@@PEAX@2@XZ 0000000180019134 f i CppExport.obj
 0001:00018174       ?_Buynode0@?$_Tree_comp_alloc@V?$_Tmap_traits@IU?$pair@PEAUClass@clcpp@@H@std@@U?$less@I@2@V?$allocator@U?$pair@$$CBIU?$pair@PEAUClass@clcpp@@H@std@@@std@@@2@$00@std@@@std@@QEAAPEAU?$_Tree_node@U?$pair@$$CBIU?$pair@PEAUClass@clcpp@@H@std@@@std@@PEAX@2@XZ 0000000180019174 f i CppExport.obj
 0001:000181b4       ?_Buynode0@?$_Tree_comp_alloc@V?$_Tmap_traits@IU?$pair@PEAUEnum@clcpp@@H@std@@U?$less@I@2@V?$allocator@U?$pair@$$CBIU?$pair@PEAUEnum@clcpp@@H@std@@@std@@@2@$00@std@@@std@@QEAAPEAU?$_Tree_node@U?$pair@$$CBIU?$pair@PEAUEnum@clcpp@@H@std@@@std@@PEAX@2@XZ 00000001800191b4 f i CppExport.obj
 0001:000181f4       ?_Buynode0@?$_Tree_comp_alloc@V?$_Tmap_traits@IU?$pair@PEAUField@clcpp@@H@std@@U?$less@I@2@V?$allocator@U?$pair@$$CBIU?$pair@PEAUField@clcpp@@H@std@@@std@@@2@$00@std@@@std@@QEAAPEAU?$_Tree_node@U?$pair@$$CBIU?$pair@PEAUField@clcpp@@H@std@@@std@@PEAX@2@XZ 00000001800191f4 f i CppExport.obj
 0001:00018234       ?_Buynode0@?$_Tree_comp_alloc@V?$_Tmap_traits@IU?$pair@PEAUFunction@clcpp@@H@std@@U?$less@I@2@V?$allocator@U?$pair@$$CBIU?$pair@PEAUFunction@clcpp@@H@std@@@std@@@2@$00@std@@@std@@QEAAPEAU?$_Tree_node@U?$pair@$$CBIU?$pair@PEAUFunction@clcpp@@H@std@@@std@@PEAX@2@XZ 0000000180019234 f i CppExport.obj
 0001:00018274       ?_Buynode0@?$_Tree_comp_alloc@V?$_Tmap_traits@IU?$pair@PEAUNamespace@clcpp@@H@std@@U?$less@I@2@V?$allocator@U?$pair@$$CBIU?$pair@PEAUNamespace@clcpp@@H@std@@@std@@@2@$00@std@@@std@@QEAAPEAU?$_Tree_node@U?$pair@$$CBIU?$pair@PEAUNamespace@clcpp@@H@std@@@std@@PEAX@2@XZ 0000000180019274 f i CppExport.obj
 0001:000182b4       ?_Buynode0@?$_Tree_comp_alloc@V?$_Tmap_traits@IU?$pair@PEAUTemplate@clcpp@@H@std@@U?$less@I@2@V?$allocator@U?$pair@$$CBIU?$pair@PEAUTemplate@clcpp@@H@std@@@std@@@2@$00@std@@@std@@QEAAPEAU?$_Tree_node@U?$pair@$$CBIU?$pair@PEAUTemplate@clcpp@@H@std@@@std@@PEAX@2@XZ 00000001800192b4 f i CppExport.obj
 0001:000182f4       ?_Buynode0@?$_Tree_comp_alloc@V?$_Tmap_traits@PEAUType@clcpp@@V?$vector@PEBUType@clcpp@@V?$allocator@PEBUType@clcpp@@@std@@@std@@U?$less@PEAUType@clcpp@@@4@V?$allocator@U?$pair@QEAUType@clcpp@@V?$vector@PEBUType@clcpp@@V?$allocator@PEBUType@clcpp@@@std@@@std@@@std@@@4@$0A@@std@@@std@@QEAAPEAU?$_Tree_node@U?$pair@QEAUType@clcpp@@V?$vector@PEBUType@clcpp@@V?$allocator@PEBUType@clcpp@@@std@@@std@@@std@@PEAX@2@XZ 00000001800192f4 f i CppExport.obj
 0001:00018334       ?_Change_array@?$vector@PEBUType@clcpp@@V?$allocator@PEBUType@clcpp@@@std@@@std@@AEAAXQEAPEBUType@clcpp@@_K1@Z 0000000180019334 f i CppExport.obj
 0001:000183bc       ?_Change_array@?$vector@_KV?$allocator@_K@std@@@std@@AEAAXQEA_K_K1@Z 00000001800193bc f i CppExport.obj
 0001:00018444       ?_Destroy_if_node@?$_Tree@V?$_Tmap_traits@IPEBDU?$less@I@std@@V?$allocator@U?$pair@$$CBIPEBD@std@@@2@$0A@@std@@@std@@IEAAXPEAU?$_Tree_node@U?$pair@$$CBIPEBD@std@@PEAX@2@@Z 0000000180019444 f i CppExport.obj
 0001:00018454       ?_Destroy_if_node@?$_Tree@V?$_Tmap_traits@IPEBUPrimitive@clcpp@@U?$less@I@std@@V?$allocator@U?$pair@$$CBIPEBUPrimitive@clcpp@@@std@@@4@$0A@@std@@@std@@IEAAXPEAU?$_Tree_node@U?$pair@$$CBIPEBUPrimitive@clcpp@@@std@@PEAX@2@@Z 0000000180019454 f i CppExport.obj
 0001:00018464       ?_Destroy_if_node@?$_Tree@V?$_Tmap_traits@IPEBUTemplate@clcpp@@U?$less@I@std@@V?$allocator@U?$pair@$$CBIPEBUTemplate@clcpp@@@std@@@4@$0A@@std@@@std@@IEAAXPEAU?$_Tree_node@U?$pair@$$CBIPEBUTemplate@clcpp@@@std@@PEAX@2@@Z 0000000180019464 f i CppExport.obj
 0001:00018474       ?_Destroy_if_node@?$_Tree@V?$_Tmap_traits@PEAUType@clcpp@@V?$vector@PEBUType@clcpp@@V?$allocator@PEBUType@clcpp@@@std@@@std@@U?$less@PEAUType@clcpp@@@4@V?$allocator@U?$pair@QEAUType@clcpp@@V?$vector@PEBUType@clcpp@@V?$allocator@PEBUType@clcpp@@@std@@@std@@@std@@@4@$0A@@std@@@std@@IEAAXPEAU?$_Tree_node@U?$pair@QEAUType@clcpp@@V?$vector@PEBUType@clcpp@@V?$allocator@PEBUType@clcpp@@@std@@@std@@@std@@PEAX@2@@Z 0000000180019474 f i CppExport.obj
 0001:0001849c       ?_Erase@?$_Tree@V?$_Tmap_traits@IPEAUFunction@clcpp@@U?$less@I@std@@V?$allocator@U?$pair@$$CBIPEAUFunction@clcpp@@@std@@@4@$0A@@std@@@std@@IEAAXPEAU?$_Tree_node@U?$pair@$$CBIPEAUFunction@clcpp@@@std@@PEAX@2@@Z 000000018001949c f i CppExport.obj
 0001:000184f0       ?_Erase@?$_Tree@V?$_Tmap_traits@IPEBUPrimitive@clcpp@@U?$less@I@std@@V?$allocator@U?$pair@$$CBIPEBUPrimitive@clcpp@@@std@@@4@$0A@@std@@@std@@IEAAXPEAU?$_Tree_node@U?$pair@$$CBIPEBUPrimitive@clcpp@@@std@@PEAX@2@@Z 00000001800194f0 f i CppExport.obj
 0001:00018544       ?_Erase@?$_Tree@V?$_Tmap_traits@IPEBUTemplate@clcpp@@U?$less@I@std@@V?$allocator@U?$pair@$$CBIPEBUTemplate@clcpp@@@std@@@4@$0A@@std@@@std@@IEAAXPEAU?$_Tree_node@U?$pair@$$CBIPEBUTemplate@clcpp@@@std@@PEAX@2@@Z 0000000180019544 f i CppExport.obj
 0001:00018598       ?_Erase@?$_Tree@V?$_Tmap_traits@IPEBUType@clcpp@@U?$less@I@std@@V?$allocator@U?$pair@$$CBIPEBUType@clcpp@@@std@@@4@$00@std@@@std@@IEAAXPEAU?$_Tree_node@U?$pair@$$CBIPEBUType@clcpp@@@std@@PEAX@2@@Z 0000000180019598 f i CppExport.obj
 0001:000185ec       ?_Erase@?$_Tree@V?$_Tmap_traits@IU?$pair@PEAUClass@clcpp@@H@std@@U?$less@I@2@V?$allocator@U?$pair@$$CBIU?$pair@PEAUClass@clcpp@@H@std@@@std@@@2@$00@std@@@std@@IEAAXPEAU?$_Tree_node@U?$pair@$$CBIU?$pair@PEAUClass@clcpp@@H@std@@@std@@PEAX@2@@Z 00000001800195ec f i CppExport.obj
 0001:00018640       ?_Erase@?$_Tree@V?$_Tmap_traits@IU?$pair@PEAUEnum@clcpp@@H@std@@U?$less@I@2@V?$allocator@U?$pair@$$CBIU?$pair@PEAUEnum@clcpp@@H@std@@@std@@@2@$00@std@@@std@@IEAAXPEAU?$_Tree_node@U?$pair@$$CBIU?$pair@PEAUEnum@clcpp@@H@std@@@std@@PEAX@2@@Z 0000000180019640 f i CppExport.obj
 0001:00018694       ?_Erase@?$_Tree@V?$_Tmap_traits@IU?$pair@PEAUField@clcpp@@H@std@@U?$less@I@2@V?$allocator@U?$pair@$$CBIU?$pair@PEAUField@clcpp@@H@std@@@std@@@2@$00@std@@@std@@IEAAXPEAU?$_Tree_node@U?$pair@$$CBIU?$pair@PEAUField@clcpp@@H@std@@@std@@PEAX@2@@Z 0000000180019694 f i CppExport.obj
 0001:000186e8       ?_Erase@?$_Tree@V?$_Tmap_traits@IU?$pair@PEAUFunction@clcpp@@H@std@@U?$less@I@2@V?$allocator@U?$pair@$$CBIU?$pair@PEAUFunction@clcpp@@H@std@@@std@@@2@$00@std@@@std@@IEAAXPEAU?$_Tree_node@U?$pair@$$CBIU?$pair@PEAUFunction@clcpp@@H@std@@@std@@PEAX@2@@Z 00000001800196e8 f i CppExport.obj
 0001:0001873c       ?_Erase@?$_Tree@V?$_Tmap_traits@IU?$pair@PEAUNamespace@clcpp@@H@std@@U?$less@I@2@V?$allocator@U?$pair@$$CBIU?$pair@PEAUNamespace@clcpp@@H@std@@@std@@@2@$00@std@@@std@@IEAAXPEAU?$_Tree_node@U?$pair@$$CBIU?$pair@PEAUNamespace@clcpp@@H@std@@@std@@PEAX@2@@Z 000000018001973c f i CppExport.obj
 0001:00018790       ?_Erase@?$_Tree@V?$_Tmap_traits@IU?$pair@PEAUTemplate@clcpp@@H@std@@U?$less@I@2@V?$allocator@U?$pair@$$CBIU?$pair@PEAUTemplate@clcpp@@H@std@@@std@@@2@$00@std@@@std@@IEAAXPEAU?$_Tree_node@U?$pair@$$CBIU?$pair@PEAUTemplate@clcpp@@H@std@@@std@@PEAX@2@@Z 0000000180019790 f i CppExport.obj
 0001:000187e4       ?_Erase@?$_Tree@V?$_Tmap_traits@PEAUType@clcpp@@V?$vector@PEBUType@clcpp@@V?$allocator@PEBUType@clcpp@@@std@@@std@@U?$less@PEAUType@clcpp@@@4@V?$allocator@U?$pair@QEAUType@clcpp@@V?$vector@PEBUType@clcpp@@V?$allocator@PEBUType@clcpp@@@std@@@std@@@std@@@4@$0A@@std@@@std@@IEAAXPEAU?$_Tree_node@U?$pair@QEAUType@clcpp@@V?$vector@PEBUType@clcpp@@V?$allocator@PEBUType@clcpp@@@std@@@std@@@std@@PEAX@2@@Z 00000001800197e4 f i CppExport.obj
 0001:00018844       ?_Extract@?$_Tree_val@U?$_Tree_simple_types@U?$pair@$$CBIPEAUFunction@clcpp@@@std@@@std@@@std@@QEAAPEAU?$_Tree_node@U?$pair@$$CBIPEAUFunction@clcpp@@@std@@PEAX@2@V?$_Tree_const_iterator@V?$_Tree_val@U?$_Tree_simple_types@U?$pair@$$CBIPEAUFunction@clcpp@@@std@@@std@@@std@@@2@@Z 0000000180019844 f i CppExport.obj
 0001:00018c9c       ?_Extract@?$_Tree_val@U?$_Tree_simple_types@U?$pair@$$CBIPEBUPrimitive@clcpp@@@std@@@std@@@std@@QEAAPEAU?$_Tree_node@U?$pair@$$CBIPEBUPrimitive@clcpp@@@std@@PEAX@2@V?$_Tree_const_iterator@V?$_Tree_val@U?$_Tree_simple_types@U?$pair@$$CBIPEBUPrimitive@clcpp@@@std@@@std@@@std@@@2@@Z 0000000180019c9c f i CppExport.obj
 0001:000190f4       ?_Extract@?$_Tree_val@U?$_Tree_simple_types@U?$pair@$$CBIPEBUTemplate@clcpp@@@std@@@std@@@std@@QEAAPEAU?$_Tree_node@U?$pair@$$CBIPEBUTemplate@clcpp@@@std@@PEAX@2@V?$_Tree_const_iterator@V?$_Tree_val@U?$_Tree_simple_types@U?$pair@$$CBIPEBUTemplate@clcpp@@@std@@@std@@@std@@@2@@Z 000000018001a0f4 f i CppExport.obj
 0001:0001954c       ?_Extract@?$_Tree_val@U?$_Tree_simple_types@U?$pair@$$CBIPEBUType@clcpp@@@std@@@std@@@std@@QEAAPEAU?$_Tree_node@U?$pair@$$CBIPEBUType@clcpp@@@std@@PEAX@2@V?$_Tree_const_iterator@V?$_Tree_val@U?$_Tree_simple_types@U?$pair@$$CBIPEBUType@clcpp@@@std@@@std@@@std@@@2@@Z 000000018001a54c f i CppExport.obj
 0001:000199a4       ?_Extract@?$_Tree_val@U?$_Tree_simple_types@U?$pair@$$CBIU?$pair@PEAUClass@clcpp@@H@std@@@std@@@std@@@std@@QEAAPEAU?$_Tree_node@U?$pair@$$CBIU?$pair@PEAUClass@clcpp@@H@std@@@std@@PEAX@2@V?$_Tree_const_iterator@V?$_Tree_val@U?$_Tree_simple_types@U?$pair@$$CBIU?$pair@PEAUClass@clcpp@@H@std@@@std@@@std@@@std@@@2@@Z 000000018001a9a4 f i CppExport.obj
 0001:00019dfc       ?_Extract@?$_Tree_val@U?$_Tree_simple_types@U?$pair@$$CBIU?$pair@PEAUEnum@clcpp@@H@std@@@std@@@std@@@std@@QEAAPEAU?$_Tree_node@U?$pair@$$CBIU?$pair@PEAUEnum@clcpp@@H@std@@@std@@PEAX@2@V?$_Tree_const_iterator@V?$_Tree_val@U?$_Tree_simple_types@U?$pair@$$CBIU?$pair@PEAUEnum@clcpp@@H@std@@@std@@@std@@@std@@@2@@Z 000000018001adfc f i CppExport.obj
 0001:0001a254       ?_Extract@?$_Tree_val@U?$_Tree_simple_types@U?$pair@$$CBIU?$pair@PEAUField@clcpp@@H@std@@@std@@@std@@@std@@QEAAPEAU?$_Tree_node@U?$pair@$$CBIU?$pair@PEAUField@clcpp@@H@std@@@std@@PEAX@2@V?$_Tree_const_iterator@V?$_Tree_val@U?$_Tree_simple_types@U?$pair@$$CBIU?$pair@PEAUField@clcpp@@H@std@@@std@@@std@@@std@@@2@@Z 000000018001b254 f i CppExport.obj
 0001:0001a6ac       ?_Extract@?$_Tree_val@U?$_Tree_simple_types@U?$pair@$$CBIU?$pair@PEAUFunction@clcpp@@H@std@@@std@@@std@@@std@@QEAAPEAU?$_Tree_node@U?$pair@$$CBIU?$pair@PEAUFunction@clcpp@@H@std@@@std@@PEAX@2@V?$_Tree_const_iterator@V?$_Tree_val@U?$_Tree_simple_types@U?$pair@$$CBIU?$pair@PEAUFunction@clcpp@@H@std@@@std@@@std@@@std@@@2@@Z 000000018001b6ac f i CppExport.obj
 0001:0001ab04       ?_Extract@?$_Tree_val@U?$_Tree_simple_types@U?$pair@$$CBIU?$pair@PEAUNamespace@clcpp@@H@std@@@std@@@std@@@std@@QEAAPEAU?$_Tree_node@U?$pair@$$CBIU?$pair@PEAUNamespace@clcpp@@H@std@@@std@@PEAX@2@V?$_Tree_const_iterator@V?$_Tree_val@U?$_Tree_simple_types@U?$pair@$$CBIU?$pair@PEAUNamespace@clcpp@@H@std@@@std@@@std@@@std@@@2@@Z 000000018001bb04 f i CppExport.obj
 0001:0001af5c       ?_Extract@?$_Tree_val@U?$_Tree_simple_types@U?$pair@$$CBIU?$pair@PEAUTemplate@clcpp@@H@std@@@std@@@std@@@std@@QEAAPEAU?$_Tree_node@U?$pair@$$CBIU?$pair@PEAUTemplate@clcpp@@H@std@@@std@@PEAX@2@V?$_Tree_const_iterator@V?$_Tree_val@U?$_Tree_simple_types@U?$pair@$$CBIU?$pair@PEAUTemplate@clcpp@@H@std@@@std@@@std@@@std@@@2@@Z 000000018001bf5c f i CppExport.obj
 0001:0001b3b4       ?_Extract@?$_Tree_val@U?$_Tree_simple_types@U?$pair@QEAUType@clcpp@@V?$vector@PEBUType@clcpp@@V?$allocator@PEBUType@clcpp@@@std@@@std@@@std@@@std@@@std@@QEAAPEAU?$_Tree_node@U?$pair@QEAUType@clcpp@@V?$vector@PEBUType@clcpp@@V?$allocator@PEBUType@clcpp@@@std@@@std@@@std@@PEAX@2@V?$_Tree_const_iterator@V?$_Tree_val@U?$_Tree_simple_types@U?$pair@QEAUType@clcpp@@V?$vector@PEBUType@clcpp@@V?$allocator@PEBUType@clcpp@@@std@@@std@@@std@@@std@@@std@@@2@@Z 000000018001c3b4 f i CppExport.obj
 0001:0001b80c       ?_Freenode0@?$_Tree_comp_alloc@V?$_Tmap_traits@IPEAUFunction@clcpp@@U?$less@I@std@@V?$allocator@U?$pair@$$CBIPEAUFunction@clcpp@@@std@@@4@$0A@@std@@@std@@QEAAXPEAU?$_Tree_node@U?$pair@$$CBIPEAUFunction@clcpp@@@std@@PEAX@2@@Z 000000018001c80c f i CppExport.obj
 0001:0001b81c       ?_Freenode0@?$_Tree_comp_alloc@V?$_Tmap_traits@IPEBDU?$less@I@std@@V?$allocator@U?$pair@$$CBIPEBD@std@@@2@$0A@@std@@@std@@QEAAXPEAU?$_Tree_node@U?$pair@$$CBIPEBD@std@@PEAX@2@@Z 000000018001c81c f i CppExport.obj
 0001:0001b82c       ?_Freenode0@?$_Tree_comp_alloc@V?$_Tmap_traits@IPEBUPrimitive@clcpp@@U?$less@I@std@@V?$allocator@U?$pair@$$CBIPEBUPrimitive@clcpp@@@std@@@4@$0A@@std@@@std@@QEAAXPEAU?$_Tree_node@U?$pair@$$CBIPEBUPrimitive@clcpp@@@std@@PEAX@2@@Z 000000018001c82c f i CppExport.obj
 0001:0001b83c       ?_Freenode0@?$_Tree_comp_alloc@V?$_Tmap_traits@IPEBUTemplate@clcpp@@U?$less@I@std@@V?$allocator@U?$pair@$$CBIPEBUTemplate@clcpp@@@std@@@4@$0A@@std@@@std@@QEAAXPEAU?$_Tree_node@U?$pair@$$CBIPEBUTemplate@clcpp@@@std@@PEAX@2@@Z 000000018001c83c f i CppExport.obj
 0001:0001b84c       ?_Freenode0@?$_Tree_comp_alloc@V?$_Tmap_traits@IPEBUType@clcpp@@U?$less@I@std@@V?$allocator@U?$pair@$$CBIPEBUType@clcpp@@@std@@@4@$00@std@@@std@@QEAAXPEAU?$_Tree_node@U?$pair@$$CBIPEBUType@clcpp@@@std@@PEAX@2@@Z 000000018001c84c f i CppExport.obj
 0001:0001b85c       ?_Freenode0@?$_Tree_comp_alloc@V?$_Tmap_traits@IU?$pair@PEAUClass@clcpp@@H@std@@U?$less@I@2@V?$allocator@U?$pair@$$CBIU?$pair@PEAUClass@clcpp@@H@std@@@std@@@2@$00@std@@@std@@QEAAXPEAU?$_Tree_node@U?$pair@$$CBIU?$pair@PEAUClass@clcpp@@H@std@@@std@@PEAX@2@@Z 000000018001c85c f i CppExport.obj
 0001:0001b86c       ?_Freenode0@?$_Tree_comp_alloc@V?$_Tmap_traits@IU?$pair@PEAUEnum@clcpp@@H@std@@U?$less@I@2@V?$allocator@U?$pair@$$CBIU?$pair@PEAUEnum@clcpp@@H@std@@@std@@@2@$00@std@@@std@@QEAAXPEAU?$_Tree_node@U?$pair@$$CBIU?$pair@PEAUEnum@clcpp@@H@std@@@std@@PEAX@2@@Z 000000018001c86c f i CppExport.obj
 0001:0001b87c       ?_Freenode0@?$_Tree_comp_alloc@V?$_Tmap_traits@IU?$pair@PEAUField@clcpp@@H@std@@U?$less@I@2@V?$allocator@U?$pair@$$CBIU?$pair@PEAUField@clcpp@@H@std@@@std@@@2@$00@std@@@std@@QEAAXPEAU?$_Tree_node@U?$pair@$$CBIU?$pair@PEAUField@clcpp@@H@std@@@std@@PEAX@2@@Z 000000018001c87c f i CppExport.obj
 0001:0001b88c       ?_Freenode0@?$_Tree_comp_alloc@V?$_Tmap_traits@IU?$pair@PEAUFunction@clcpp@@H@std@@U?$less@I@2@V?$allocator@U?$pair@$$CBIU?$pair@PEAUFunction@clcpp@@H@std@@@std@@@2@$00@std@@@std@@QEAAXPEAU?$_Tree_node@U?$pair@$$CBIU?$pair@PEAUFunction@clcpp@@H@std@@@std@@PEAX@2@@Z 000000018001c88c f i CppExport.obj
 0001:0001b89c       ?_Freenode0@?$_Tree_comp_alloc@V?$_Tmap_traits@IU?$pair@PEAUNamespace@clcpp@@H@std@@U?$less@I@2@V?$allocator@U?$pair@$$CBIU?$pair@PEAUNamespace@clcpp@@H@std@@@std@@@2@$00@std@@@std@@QEAAXPEAU?$_Tree_node@U?$pair@$$CBIU?$pair@PEAUNamespace@clcpp@@H@std@@@std@@PEAX@2@@Z 000000018001c89c f i CppExport.obj
 0001:0001b8ac       ?_Freenode0@?$_Tree_comp_alloc@V?$_Tmap_traits@IU?$pair@PEAUTemplate@clcpp@@H@std@@U?$less@I@2@V?$allocator@U?$pair@$$CBIU?$pair@PEAUTemplate@clcpp@@H@std@@@std@@@2@$00@std@@@std@@QEAAXPEAU?$_Tree_node@U?$pair@$$CBIU?$pair@PEAUTemplate@clcpp@@H@std@@@std@@PEAX@2@@Z 000000018001c8ac f i CppExport.obj
 0001:0001b8bc       ?_Freenode0@?$_Tree_comp_alloc@V?$_Tmap_traits@PEAUType@clcpp@@V?$vector@PEBUType@clcpp@@V?$allocator@PEBUType@clcpp@@@std@@@std@@U?$less@PEAUType@clcpp@@@4@V?$allocator@U?$pair@QEAUType@clcpp@@V?$vector@PEBUType@clcpp@@V?$allocator@PEBUType@clcpp@@@std@@@std@@@std@@@4@$0A@@std@@@std@@QEAAXPEAU?$_Tree_node@U?$pair@QEAUType@clcpp@@V?$vector@PEBUType@clcpp@@V?$allocator@PEBUType@clcpp@@@std@@@std@@@std@@PEAX@2@@Z 000000018001c8bc f i CppExport.obj
 0001:0001b8cc       ?_Tidy@?$vector@UPtrRelocation@@V?$allocator@UPtrRelocation@@@std@@@std@@AEAAXXZ 000000018001c8cc f i CppExport.obj
 0001:0001b948       ?_Xlen@?$basic_string@DU?$char_traits@D@std@@V?$allocator@D@2@@std@@SAXXZ 000000018001c948 f i CppExport.obj
 0001:0001b95c       ?_Xlength@?$vector@PEBUType@clcpp@@V?$allocator@PEBUType@clcpp@@@std@@@std@@CAXXZ 000000018001c95c f i CppExport.obj
 0001:0001b970       ?_Xlength@?$vector@_KV?$allocator@_K@std@@@std@@CAXXZ 000000018001c970 f i CppExport.obj
 0001:0001b984       ?_Xran@?$_String_val@U?$_Simple_types@D@std@@@std@@SAXXZ 000000018001c984 f i CppExport.obj
 0001:0001b998       ?allocate@?$allocator@PEBUType@clcpp@@@std@@QEAAPEAPEBUType@clcpp@@_K@Z 000000018001c998 f i CppExport.obj
 0001:0001ba08       ?allocate@?$allocator@_K@std@@QEAAPEA_K_K@Z 000000018001ca08 f i CppExport.obj
 0001:0001ba78       ?append@?$basic_string@DU?$char_traits@D@std@@V?$allocator@D@2@@std@@QEAAAEAV12@QEBD_K@Z 000000018001ca78 f i CppExport.obj
 0001:0001baf0       ?assign@?$basic_string@DU?$char_traits@D@std@@V?$allocator@D@2@@std@@QEAAAEAV12@QEBD@Z 000000018001caf0 f i CppExport.obj
 0001:0001bb6c       ?clear@?$_Tree@V?$_Tmap_traits@IPEAUFunction@clcpp@@U?$less@I@std@@V?$allocator@U?$pair@$$CBIPEAUFunction@clcpp@@@std@@@4@$0A@@std@@@std@@QEAAXXZ 000000018001cb6c f i CppExport.obj
 0001:0001bbf4       ?clear@?$_Tree@V?$_Tmap_traits@IPEBUPrimitive@clcpp@@U?$less@I@std@@V?$allocator@U?$pair@$$CBIPEBUPrimitive@clcpp@@@std@@@4@$0A@@std@@@std@@QEAAXXZ 000000018001cbf4 f i CppExport.obj
 0001:0001bc7c       ?clear@?$_Tree@V?$_Tmap_traits@IPEBUTemplate@clcpp@@U?$less@I@std@@V?$allocator@U?$pair@$$CBIPEBUTemplate@clcpp@@@std@@@4@$0A@@std@@@std@@QEAAXXZ 000000018001cc7c f i CppExport.obj
 0001:0001bd04       ?clear@?$_Tree@V?$_Tmap_traits@IPEBUType@clcpp@@U?$less@I@std@@V?$allocator@U?$pair@$$CBIPEBUType@clcpp@@@std@@@4@$00@std@@@std@@QEAAXXZ 000000018001cd04 f i CppExport.obj
 0001:0001bd8c       ?clear@?$_Tree@V?$_Tmap_traits@IU?$pair@PEAUClass@clcpp@@H@std@@U?$less@I@2@V?$allocator@U?$pair@$$CBIU?$pair@PEAUClass@clcpp@@H@std@@@std@@@2@$00@std@@@std@@QEAAXXZ 000000018001cd8c f i CppExport.obj
 0001:0001be14       ?clear@?$_Tree@V?$_Tmap_traits@IU?$pair@PEAUEnum@clcpp@@H@std@@U?$less@I@2@V?$allocator@U?$pair@$$CBIU?$pair@PEAUEnum@clcpp@@H@std@@@std@@@2@$00@std@@@std@@QEAAXXZ 000000018001ce14 f i CppExport.obj
 0001:0001be9c       ?clear@?$_Tree@V?$_Tmap_traits@IU?$pair@PEAUField@clcpp@@H@std@@U?$less@I@2@V?$allocator@U?$pair@$$CBIU?$pair@PEAUField@clcpp@@H@std@@@std@@@2@$00@std@@@std@@QEAAXXZ 000000018001ce9c f i CppExport.obj
 0001:0001bf24       ?clear@?$_Tree@V?$_Tmap_traits@IU?$pair@PEAUFunction@clcpp@@H@std@@U?$less@I@2@V?$allocator@U?$pair@$$CBIU?$pair@PEAUFunction@clcpp@@H@std@@@std@@@2@$00@std@@@std@@QEAAXXZ 000000018001cf24 f i CppExport.obj
 0001:0001bfac       ?clear@?$_Tree@V?$_Tmap_traits@IU?$pair@PEAUNamespace@clcpp@@H@std@@U?$less@I@2@V?$allocator@U?$pair@$$CBIU?$pair@PEAUNamespace@clcpp@@H@std@@@std@@@2@$00@std@@@std@@QEAAXXZ 000000018001cfac f i CppExport.obj
 0001:0001c034       ?clear@?$_Tree@V?$_Tmap_traits@IU?$pair@PEAUTemplate@clcpp@@H@std@@U?$less@I@2@V?$allocator@U?$pair@$$CBIU?$pair@PEAUTemplate@clcpp@@H@std@@@std@@@2@$00@std@@@std@@QEAAXXZ 000000018001d034 f i CppExport.obj
 0001:0001c0bc       ?clear@?$_Tree@V?$_Tmap_traits@PEAUType@clcpp@@V?$vector@PEBUType@clcpp@@V?$allocator@PEBUType@clcpp@@@std@@@std@@U?$less@PEAUType@clcpp@@@4@V?$allocator@U?$pair@QEAUType@clcpp@@V?$vector@PEBUType@clcpp@@V?$allocator@PEBUType@clcpp@@@std@@@std@@@std@@@4@$0A@@std@@@std@@QEAAXXZ 000000018001d0bc f i CppExport.obj
 0001:0001c154       ?deallocate@?$allocator@PEBUType@clcpp@@@std@@QEAAXQEAPEBUType@clcpp@@_K@Z 000000018001d154 f i CppExport.obj
 0001:0001c198       ?deallocate@?$allocator@U?$_Tree_node@U?$pair@$$CBIPEAUFunction@clcpp@@@std@@PEAX@std@@@std@@QEAAXQEAU?$_Tree_node@U?$pair@$$CBIPEAUFunction@clcpp@@@std@@PEAX@2@_K@Z 000000018001d198 f i CppExport.obj
 0001:0001c1dc       ?deallocate@?$allocator@U?$_Tree_node@U?$pair@$$CBIPEBD@std@@PEAX@std@@@std@@QEAAXQEAU?$_Tree_node@U?$pair@$$CBIPEBD@std@@PEAX@2@_K@Z 000000018001d1dc f i CppExport.obj
 0001:0001c220       ?deallocate@?$allocator@U?$_Tree_node@U?$pair@$$CBIPEBUPrimitive@clcpp@@@std@@PEAX@std@@@std@@QEAAXQEAU?$_Tree_node@U?$pair@$$CBIPEBUPrimitive@clcpp@@@std@@PEAX@2@_K@Z 000000018001d220 f i CppExport.obj
 0001:0001c264       ?deallocate@?$allocator@U?$_Tree_node@U?$pair@$$CBIPEBUTemplate@clcpp@@@std@@PEAX@std@@@std@@QEAAXQEAU?$_Tree_node@U?$pair@$$CBIPEBUTemplate@clcpp@@@std@@PEAX@2@_K@Z 000000018001d264 f i CppExport.obj
 0001:0001c2a8       ?deallocate@?$allocator@U?$_Tree_node@U?$pair@$$CBIPEBUType@clcpp@@@std@@PEAX@std@@@std@@QEAAXQEAU?$_Tree_node@U?$pair@$$CBIPEBUType@clcpp@@@std@@PEAX@2@_K@Z 000000018001d2a8 f i CppExport.obj
 0001:0001c2ec       ?deallocate@?$allocator@U?$_Tree_node@U?$pair@$$CBIU?$pair@PEAUClass@clcpp@@H@std@@@std@@PEAX@std@@@std@@QEAAXQEAU?$_Tree_node@U?$pair@$$CBIU?$pair@PEAUClass@clcpp@@H@std@@@std@@PEAX@2@_K@Z 000000018001d2ec f i CppExport.obj
 0001:0001c32c       ?deallocate@?$allocator@U?$_Tree_node@U?$pair@$$CBIU?$pair@PEAUEnum@clcpp@@H@std@@@std@@PEAX@std@@@std@@QEAAXQEAU?$_Tree_node@U?$pair@$$CBIU?$pair@PEAUEnum@clcpp@@H@std@@@std@@PEAX@2@_K@Z 000000018001d32c f i CppExport.obj
 0001:0001c36c       ?deallocate@?$allocator@U?$_Tree_node@U?$pair@$$CBIU?$pair@PEAUField@clcpp@@H@std@@@std@@PEAX@std@@@std@@QEAAXQEAU?$_Tree_node@U?$pair@$$CBIU?$pair@PEAUField@clcpp@@H@std@@@std@@PEAX@2@_K@Z 000000018001d36c f i CppExport.obj
 0001:0001c3ac       ?deallocate@?$allocator@U?$_Tree_node@U?$pair@$$CBIU?$pair@PEAUFunction@clcpp@@H@std@@@std@@PEAX@std@@@std@@QEAAXQEAU?$_Tree_node@U?$pair@$$CBIU?$pair@PEAUFunction@clcpp@@H@std@@@std@@PEAX@2@_K@Z 000000018001d3ac f i CppExport.obj
 0001:0001c3ec       ?deallocate@?$allocator@U?$_Tree_node@U?$pair@$$CBIU?$pair@PEAUNamespace@clcpp@@H@std@@@std@@PEAX@std@@@std@@QEAAXQEAU?$_Tree_node@U?$pair@$$CBIU?$pair@PEAUNamespace@clcpp@@H@std@@@std@@PEAX@2@_K@Z 000000018001d3ec f i CppExport.obj
 0001:0001c42c       ?deallocate@?$allocator@U?$_Tree_node@U?$pair@$$CBIU?$pair@PEAUTemplate@clcpp@@H@std@@@std@@PEAX@std@@@std@@QEAAXQEAU?$_Tree_node@U?$pair@$$CBIU?$pair@PEAUTemplate@clcpp@@H@std@@@std@@PEAX@2@_K@Z 000000018001d42c f i CppExport.obj
 0001:0001c46c       ?deallocate@?$allocator@U?$_Tree_node@U?$pair@QEAUType@clcpp@@V?$vector@PEBUType@clcpp@@V?$allocator@PEBUType@clcpp@@@std@@@std@@@std@@PEAX@std@@@std@@QEAAXQEAU?$_Tree_node@U?$pair@QEAUType@clcpp@@V?$vector@PEBUType@clcpp@@V?$allocator@PEBUType@clcpp@@@std@@@std@@@std@@PEAX@2@_K@Z 000000018001d46c f i CppExport.obj
 0001:0001c4b0       ?deallocate@?$allocator@_K@std@@QEAAXQEA_K_K@Z 000000018001d4b0 f i CppExport.obj
 0001:0001c4f4       ?erase@?$_Tree@V?$_Tmap_traits@IPEAUFunction@clcpp@@U?$less@I@std@@V?$allocator@U?$pair@$$CBIPEAUFunction@clcpp@@@std@@@4@$0A@@std@@@std@@QEAA?AV?$_Tree_iterator@V?$_Tree_val@U?$_Tree_simple_types@U?$pair@$$CBIPEAUFunction@clcpp@@@std@@@std@@@std@@@2@V?$_Tree_const_iterator@V?$_Tree_val@U?$_Tree_simple_types@U?$pair@$$CBIPEAUFunction@clcpp@@@std@@@std@@@std@@@2@0@Z 000000018001d4f4 f i CppExport.obj
 0001:0001c5a8       ?erase@?$_Tree@V?$_Tmap_traits@IPEAUFunction@clcpp@@U?$less@I@std@@V?$allocator@U?$pair@$$CBIPEAUFunction@clcpp@@@std@@@4@$0A@@std@@@std@@QEAA?AV?$_Tree_iterator@V?$_Tree_val@U?$_Tree_simple_types@U?$pair@$$CBIPEAUFunction@clcpp@@@std@@@std@@@std@@@2@V?$_Tree_const_iterator@V?$_Tree_val@U?$_Tree_simple_types@U?$pair@$$CBIPEAUFunction@clcpp@@@std@@@std@@@std@@@2@@Z 000000018001d5a8 f i CppExport.obj
 0001:0001c620       ?erase@?$_Tree@V?$_Tmap_traits@IPEBUPrimitive@clcpp@@U?$less@I@std@@V?$allocator@U?$pair@$$CBIPEBUPrimitive@clcpp@@@std@@@4@$0A@@std@@@std@@QEAA?AV?$_Tree_iterator@V?$_Tree_val@U?$_Tree_simple_types@U?$pair@$$CBIPEBUPrimitive@clcpp@@@std@@@std@@@std@@@2@V?$_Tree_const_iterator@V?$_Tree_val@U?$_Tree_simple_types@U?$pair@$$CBIPEBUPrimitive@clcpp@@@std@@@std@@@std@@@2@0@Z 000000018001d620 f i CppExport.obj
 0001:0001c6d4       ?erase@?$_Tree@V?$_Tmap_traits@IPEBUPrimitive@clcpp@@U?$less@I@std@@V?$allocator@U?$pair@$$CBIPEBUPrimitive@clcpp@@@std@@@4@$0A@@std@@@std@@QEAA?AV?$_Tree_iterator@V?$_Tree_val@U?$_Tree_simple_types@U?$pair@$$CBIPEBUPrimitive@clcpp@@@std@@@std@@@std@@@2@V?$_Tree_const_iterator@V?$_Tree_val@U?$_Tree_simple_types@U?$pair@$$CBIPEBUPrimitive@clcpp@@@std@@@std@@@std@@@2@@Z 000000018001d6d4 f i CppExport.obj
 0001:0001c74c       ?erase@?$_Tree@V?$_Tmap_traits@IPEBUTemplate@clcpp@@U?$less@I@std@@V?$allocator@U?$pair@$$CBIPEBUTemplate@clcpp@@@std@@@4@$0A@@std@@@std@@QEAA?AV?$_Tree_iterator@V?$_Tree_val@U?$_Tree_simple_types@U?$pair@$$CBIPEBUTemplate@clcpp@@@std@@@std@@@std@@@2@V?$_Tree_const_iterator@V?$_Tree_val@U?$_Tree_simple_types@U?$pair@$$CBIPEBUTemplate@clcpp@@@std@@@std@@@std@@@2@0@Z 000000018001d74c f i CppExport.obj
 0001:0001c800       ?erase@?$_Tree@V?$_Tmap_traits@IPEBUTemplate@clcpp@@U?$less@I@std@@V?$allocator@U?$pair@$$CBIPEBUTemplate@clcpp@@@std@@@4@$0A@@std@@@std@@QEAA?AV?$_Tree_iterator@V?$_Tree_val@U?$_Tree_simple_types@U?$pair@$$CBIPEBUTemplate@clcpp@@@std@@@std@@@std@@@2@V?$_Tree_const_iterator@V?$_Tree_val@U?$_Tree_simple_types@U?$pair@$$CBIPEBUTemplate@clcpp@@@std@@@std@@@std@@@2@@Z 000000018001d800 f i CppExport.obj
 0001:0001c878       ?erase@?$_Tree@V?$_Tmap_traits@IPEBUType@clcpp@@U?$less@I@std@@V?$allocator@U?$pair@$$CBIPEBUType@clcpp@@@std@@@4@$00@std@@@std@@QEAA?AV?$_Tree_iterator@V?$_Tree_val@U?$_Tree_simple_types@U?$pair@$$CBIPEBUType@clcpp@@@std@@@std@@@std@@@2@V?$_Tree_const_iterator@V?$_Tree_val@U?$_Tree_simple_types@U?$pair@$$CBIPEBUType@clcpp@@@std@@@std@@@std@@@2@0@Z 000000018001d878 f i CppExport.obj
 0001:0001c92c       ?erase@?$_Tree@V?$_Tmap_traits@IPEBUType@clcpp@@U?$less@I@std@@V?$allocator@U?$pair@$$CBIPEBUType@clcpp@@@std@@@4@$00@std@@@std@@QEAA?AV?$_Tree_iterator@V?$_Tree_val@U?$_Tree_simple_types@U?$pair@$$CBIPEBUType@clcpp@@@std@@@std@@@std@@@2@V?$_Tree_const_iterator@V?$_Tree_val@U?$_Tree_simple_types@U?$pair@$$CBIPEBUType@clcpp@@@std@@@std@@@std@@@2@@Z 000000018001d92c f i CppExport.obj
 0001:0001c9a4       ?erase@?$_Tree@V?$_Tmap_traits@IU?$pair@PEAUClass@clcpp@@H@std@@U?$less@I@2@V?$allocator@U?$pair@$$CBIU?$pair@PEAUClass@clcpp@@H@std@@@std@@@2@$00@std@@@std@@QEAA?AV?$_Tree_iterator@V?$_Tree_val@U?$_Tree_simple_types@U?$pair@$$CBIU?$pair@PEAUClass@clcpp@@H@std@@@std@@@std@@@std@@@2@V?$_Tree_const_iterator@V?$_Tree_val@U?$_Tree_simple_types@U?$pair@$$CBIU?$pair@PEAUClass@clcpp@@H@std@@@std@@@std@@@std@@@2@0@Z 000000018001d9a4 f i CppExport.obj
 0001:0001ca58       ?erase@?$_Tree@V?$_Tmap_traits@IU?$pair@PEAUClass@clcpp@@H@std@@U?$less@I@2@V?$allocator@U?$pair@$$CBIU?$pair@PEAUClass@clcpp@@H@std@@@std@@@2@$00@std@@@std@@QEAA?AV?$_Tree_iterator@V?$_Tree_val@U?$_Tree_simple_types@U?$pair@$$CBIU?$pair@PEAUClass@clcpp@@H@std@@@std@@@std@@@std@@@2@V?$_Tree_const_iterator@V?$_Tree_val@U?$_Tree_simple_types@U?$pair@$$CBIU?$pair@PEAUClass@clcpp@@H@std@@@std@@@std@@@std@@@2@@Z 000000018001da58 f i CppExport.obj
 0001:0001cad0       ?erase@?$_Tree@V?$_Tmap_traits@IU?$pair@PEAUEnum@clcpp@@H@std@@U?$less@I@2@V?$allocator@U?$pair@$$CBIU?$pair@PEAUEnum@clcpp@@H@std@@@std@@@2@$00@std@@@std@@QEAA?AV?$_Tree_iterator@V?$_Tree_val@U?$_Tree_simple_types@U?$pair@$$CBIU?$pair@PEAUEnum@clcpp@@H@std@@@std@@@std@@@std@@@2@V?$_Tree_const_iterator@V?$_Tree_val@U?$_Tree_simple_types@U?$pair@$$CBIU?$pair@PEAUEnum@clcpp@@H@std@@@std@@@std@@@std@@@2@0@Z 000000018001dad0 f i CppExport.obj
 0001:0001cb84       ?erase@?$_Tree@V?$_Tmap_traits@IU?$pair@PEAUEnum@clcpp@@H@std@@U?$less@I@2@V?$allocator@U?$pair@$$CBIU?$pair@PEAUEnum@clcpp@@H@std@@@std@@@2@$00@std@@@std@@QEAA?AV?$_Tree_iterator@V?$_Tree_val@U?$_Tree_simple_types@U?$pair@$$CBIU?$pair@PEAUEnum@clcpp@@H@std@@@std@@@std@@@std@@@2@V?$_Tree_const_iterator@V?$_Tree_val@U?$_Tree_simple_types@U?$pair@$$CBIU?$pair@PEAUEnum@clcpp@@H@std@@@std@@@std@@@std@@@2@@Z 000000018001db84 f i CppExport.obj
 0001:0001cbfc       ?erase@?$_Tree@V?$_Tmap_traits@IU?$pair@PEAUField@clcpp@@H@std@@U?$less@I@2@V?$allocator@U?$pair@$$CBIU?$pair@PEAUField@clcpp@@H@std@@@std@@@2@$00@std@@@std@@QEAA?AV?$_Tree_iterator@V?$_Tree_val@U?$_Tree_simple_types@U?$pair@$$CBIU?$pair@PEAUField@clcpp@@H@std@@@std@@@std@@@std@@@2@V?$_Tree_const_iterator@V?$_Tree_val@U?$_Tree_simple_types@U?$pair@$$CBIU?$pair@PEAUField@clcpp@@H@std@@@std@@@std@@@std@@@2@0@Z 000000018001dbfc f i CppExport.obj
 0001:0001ccb0       ?erase@?$_Tree@V?$_Tmap_traits@IU?$pair@PEAUField@clcpp@@H@std@@U?$less@I@2@V?$allocator@U?$pair@$$CBIU?$pair@PEAUField@clcpp@@H@std@@@std@@@2@$00@std@@@std@@QEAA?AV?$_Tree_iterator@V?$_Tree_val@U?$_Tree_simple_types@U?$pair@$$CBIU?$pair@PEAUField@clcpp@@H@std@@@std@@@std@@@std@@@2@V?$_Tree_const_iterator@V?$_Tree_val@U?$_Tree_simple_types@U?$pair@$$CBIU?$pair@PEAUField@clcpp@@H@std@@@std@@@std@@@std@@@2@@Z 000000018001dcb0 f i CppExport.obj
 0001:0001cd28       ?erase@?$_Tree@V?$_Tmap_traits@IU?$pair@PEAUFunction@clcpp@@H@std@@U?$less@I@2@V?$allocator@U?$pair@$$CBIU?$pair@PEAUFunction@clcpp@@H@std@@@std@@@2@$00@std@@@std@@QEAA?AV?$_Tree_iterator@V?$_Tree_val@U?$_Tree_simple_types@U?$pair@$$CBIU?$pair@PEAUFunction@clcpp@@H@std@@@std@@@std@@@std@@@2@V?$_Tree_const_iterator@V?$_Tree_val@U?$_Tree_simple_types@U?$pair@$$CBIU?$pair@PEAUFunction@clcpp@@H@std@@@std@@@std@@@std@@@2@0@Z 000000018001dd28 f i CppExport.obj
 0001:0001cddc       ?erase@?$_Tree@V?$_Tmap_traits@IU?$pair@PEAUFunction@clcpp@@H@std@@U?$less@I@2@V?$allocator@U?$pair@$$CBIU?$pair@PEAUFunction@clcpp@@H@std@@@std@@@2@$00@std@@@std@@QEAA?AV?$_Tree_iterator@V?$_Tree_val@U?$_Tree_simple_types@U?$pair@$$CBIU?$pair@PEAUFunction@clcpp@@H@std@@@std@@@std@@@std@@@2@V?$_Tree_const_iterator@V?$_Tree_val@U?$_Tree_simple_types@U?$pair@$$CBIU?$pair@PEAUFunction@clcpp@@H@std@@@std@@@std@@@std@@@2@@Z 000000018001dddc f i CppExport.obj
 0001:0001ce54       ?erase@?$_Tree@V?$_Tmap_traits@IU?$pair@PEAUNamespace@clcpp@@H@std@@U?$less@I@2@V?$allocator@U?$pair@$$CBIU?$pair@PEAUNamespace@clcpp@@H@std@@@std@@@2@$00@std@@@std@@QEAA?AV?$_Tree_iterator@V?$_Tree_val@U?$_Tree_simple_types@U?$pair@$$CBIU?$pair@PEAUNamespace@clcpp@@H@std@@@std@@@std@@@std@@@2@V?$_Tree_const_iterator@V?$_Tree_val@U?$_Tree_simple_types@U?$pair@$$CBIU?$pair@PEAUNamespace@clcpp@@H@std@@@std@@@std@@@std@@@2@0@Z 000000018001de54 f i CppExport.obj
 0001:0001cf08       ?erase@?$_Tree@V?$_Tmap_traits@IU?$pair@PEAUNamespace@clcpp@@H@std@@U?$less@I@2@V?$allocator@U?$pair@$$CBIU?$pair@PEAUNamespace@clcpp@@H@std@@@std@@@2@$00@std@@@std@@QEAA?AV?$_Tree_iterator@V?$_Tree_val@U?$_Tree_simple_types@U?$pair@$$CBIU?$pair@PEAUNamespace@clcpp@@H@std@@@std@@@std@@@std@@@2@V?$_Tree_const_iterator@V?$_Tree_val@U?$_Tree_simple_types@U?$pair@$$CBIU?$pair@PEAUNamespace@clcpp@@H@std@@@std@@@std@@@std@@@2@@Z 000000018001df08 f i CppExport.obj
 0001:0001cf80       ?erase@?$_Tree@V?$_Tmap_traits@IU?$pair@PEAUTemplate@clcpp@@H@std@@U?$less@I@2@V?$allocator@U?$pair@$$CBIU?$pair@PEAUTemplate@clcpp@@H@std@@@std@@@2@$00@std@@@std@@QEAA?AV?$_Tree_iterator@V?$_Tree_val@U?$_Tree_simple_types@U?$pair@$$CBIU?$pair@PEAUTemplate@clcpp@@H@std@@@std@@@std@@@std@@@2@V?$_Tree_const_iterator@V?$_Tree_val@U?$_Tree_simple_types@U?$pair@$$CBIU?$pair@PEAUTemplate@clcpp@@H@std@@@std@@@std@@@std@@@2@0@Z 000000018001df80 f i CppExport.obj
 0001:0001d034       ?erase@?$_Tree@V?$_Tmap_traits@IU?$pair@PEAUTemplate@clcpp@@H@std@@U?$less@I@2@V?$allocator@U?$pair@$$CBIU?$pair@PEAUTemplate@clcpp@@H@std@@@std@@@2@$00@std@@@std@@QEAA?AV?$_Tree_iterator@V?$_Tree_val@U?$_Tree_simple_types@U?$pair@$$CBIU?$pair@PEAUTemplate@clcpp@@H@std@@@std@@@std@@@std@@@2@V?$_Tree_const_iterator@V?$_Tree_val@U?$_Tree_simple_types@U?$pair@$$CBIU?$pair@PEAUTemplate@clcpp@@H@std@@@std@@@std@@@std@@@2@@Z 000000018001e034 f i CppExport.obj
 0001:0001d0ac       ?erase@?$_Tree@V?$_Tmap_traits@PEAUType@clcpp@@V?$vector@PEBUType@clcpp@@V?$allocator@PEBUType@clcpp@@@std@@@std@@U?$less@PEAUType@clcpp@@@4@V?$allocator@U?$pair@QEAUType@clcpp@@V?$vector@PEBUType@clcpp@@V?$allocator@PEBUType@clcpp@@@std@@@std@@@std@@@4@$0A@@std@@@std@@QEAA?AV?$_Tree_iterator@V?$_Tree_val@U?$_Tree_simple_types@U?$pair@QEAUType@clcpp@@V?$vector@PEBUType@clcpp@@V?$allocator@PEBUType@clcpp@@@std@@@std@@@std@@@std@@@std@@@2@V?$_Tree_const_iterator@V?$_Tree_val@U?$_Tree_simple_types@U?$pair@QEAUType@clcpp@@V?$vector@PEBUType@clcpp@@V?$allocator@PEBUType@clcpp@@@std@@@std@@@std@@@std@@@std@@@2@0@Z 000000018001e0ac f i CppExport.obj
 0001:0001d160       ?erase@?$_Tree@V?$_Tmap_traits@PEAUType@clcpp@@V?$vector@PEBUType@clcpp@@V?$allocator@PEBUType@clcpp@@@std@@@std@@U?$less@PEAUType@clcpp@@@4@V?$allocator@U?$pair@QEAUType@clcpp@@V?$vector@PEBUType@clcpp@@V?$allocator@PEBUType@clcpp@@@std@@@std@@@std@@@4@$0A@@std@@@std@@QEAA?AV?$_Tree_iterator@V?$_Tree_val@U?$_Tree_simple_types@U?$pair@QEAUType@clcpp@@V?$vector@PEBUType@clcpp@@V?$allocator@PEBUType@clcpp@@@std@@@std@@@std@@@std@@@std@@@2@V?$_Tree_const_iterator@V?$_Tree_val@U?$_Tree_simple_types@U?$pair@QEAUType@clcpp@@V?$vector@PEBUType@clcpp@@V?$allocator@PEBUType@clcpp@@@std@@@std@@@std@@@std@@@std@@@2@@Z 000000018001e160 f i CppExport.obj
 0001:0001d1f0       ?insert@?$basic_string@DU?$char_traits@D@std@@V?$allocator@D@2@@std@@QEAAAEAV12@_KQEBD0@Z 000000018001e1f0 f i CppExport.obj
 0001:0001d2e0       ??$_Resize@V<lambda_4bad70e8c3e06c245281339bf8eae5be>@@@?$vector@V?$basic_string@DU?$char_traits@D@std@@V?$allocator@D@2@@std@@V?$allocator@V?$basic_string@DU?$char_traits@D@std@@V?$allocator@D@2@@std@@@2@@std@@AEAAX_KV<lambda_4bad70e8c3e06c245281339bf8eae5be>@@@Z 000000018001e2e0 f i Main.obj
 0001:0001d430       ??$_Uninitialized_move@PEAV?$basic_string@DU?$char_traits@D@std@@V?$allocator@D@2@@std@@PEAV12@V?$allocator@V?$basic_string@DU?$char_traits@D@std@@V?$allocator@D@2@@std@@@2@@std@@YAPEAV?$basic_string@DU?$char_traits@D@std@@V?$allocator@D@2@@0@QEAV10@0PEAV10@AEAV?$allocator@V?$basic_string@DU?$char_traits@D@std@@V?$allocator@D@2@@std@@@0@@Z 000000018001e430 f i Main.obj
 0001:0001d4bc       ??0Arguments@@QEAA@HQEAPEBD@Z 000000018001e4bc f i Main.obj
 0001:0001d54c       ??1?$vector@V?$basic_string@DU?$char_traits@D@std@@V?$allocator@D@2@@std@@V?$allocator@V?$basic_string@DU?$char_traits@D@std@@V?$allocator@D@2@@std@@@2@@std@@QEAA@XZ 000000018001e54c f i Main.obj
 0001:0001d554       ??1Arguments@@QEAA@XZ      000000018001e554 f i Main.obj
 0001:0001d55c       ??1Attribute@cldb@@UEAA@XZ 000000018001e55c f i Main.obj
 0001:0001d570       ??1ContainerInfo@cldb@@QEAA@XZ 000000018001e570 f i Main.obj
 0001:0001d668       ??1CppExport@@QEAA@XZ      000000018001e668 f i Main.obj
 0001:0001d698       ??1Database@cldb@@QEAA@XZ  000000018001e698 f i Main.obj
 0001:0001d970       ??1Field@cldb@@QEAA@XZ     000000018001e970 f i Main.obj
 0001:0001d9d8       ??1FlagAttribute@cldb@@UEAA@XZ 000000018001e9d8 f i Main.obj
 0001:0001d9ec       ??1FloatAttribute@cldb@@UEAA@XZ 000000018001e9ec f i Main.obj
 0001:0001da00       ??1IntAttribute@cldb@@UEAA@XZ 000000018001ea00 f i Main.obj
 0001:0001da14       ??1Name@cldb@@QEAA@XZ      000000018001ea14 f i Main.obj
 0001:0001da74       ??1Primitive@cldb@@QEAA@XZ 000000018001ea74 f i Main.obj
 0001:0001db1c       ??1PrimitiveAttribute@cldb@@UEAA@XZ 000000018001eb1c f i Main.obj
 0001:0001db9c       ??1TextAttribute@cldb@@UEAA@XZ 000000018001eb9c f i Main.obj
 0001:0001dc18       ??1TypeInheritance@cldb@@QEAA@XZ 000000018001ec18 f i Main.obj
 0001:0001dd10       ??_G?$basic_string@DU?$char_traits@D@std@@V?$allocator@D@2@@std@@QEAAPEAXI@Z 000000018001ed10 f i Main.obj
 0001:0001dd90       ??_G?$pair@$$CBIUName@cldb@@@std@@QEAAPEAXI@Z 000000018001ed90 f i Main.obj
 0001:0001de10       ??_EAttribute@cldb@@UEAAPEAXI@Z 000000018001ee10 f i Main.obj
 0001:0001de10       ??_GAttribute@cldb@@UEAAPEAXI@Z 000000018001ee10 f i Main.obj
 0001:0001de54       ??_EPrimitiveAttribute@cldb@@UEAAPEAXI@Z 000000018001ee54 f i Main.obj
 0001:0001de54       ??_GPrimitiveAttribute@cldb@@UEAAPEAXI@Z 000000018001ee54 f i Main.obj
 0001:0001de88       ??_ETextAttribute@cldb@@UEAAPEAXI@Z 000000018001ee88 f i Main.obj
 0001:0001de88       ??_GTextAttribute@cldb@@UEAAPEAXI@Z 000000018001ee88 f i Main.obj
 0001:0001debc       ?GetIndexOf@Arguments@@QEBA_KAEBV?$basic_string@DU?$char_traits@D@std@@V?$allocator@D@2@@std@@H@Z 000000018001eebc f i Main.obj
 0001:0001df70       ?GetProperty@Arguments@@QEBA?AV?$basic_string@DU?$char_traits@D@std@@V?$allocator@D@2@@std@@AEBV23@H@Z 000000018001ef70 f i Main.obj
 0001:0001dff8       ?_Buyheadnode@?$_Tree_comp_alloc@V?$_Tmap_traits@IPEBDU?$less@I@std@@V?$allocator@U?$pair@$$CBIPEBD@std@@@2@$0A@@std@@@std@@QEAAPEAU?$_Tree_node@U?$pair@$$CBIPEBD@std@@PEAX@2@XZ 000000018001eff8 f i Main.obj
 0001:0001e030       ?_Change_array@?$vector@V?$basic_string@DU?$char_traits@D@std@@V?$allocator@D@2@@std@@V?$allocator@V?$basic_string@DU?$char_traits@D@std@@V?$allocator@D@2@@std@@@2@@std@@AEAAXQEAV?$basic_string@DU?$char_traits@D@std@@V?$allocator@D@2@@2@_K1@Z 000000018001f030 f i Main.obj
 0001:0001e0e8       ?_Construct_lv_contents@?$basic_string@DU?$char_traits@D@std@@V?$allocator@D@2@@std@@QEAAXAEBV12@@Z 000000018001f0e8 f i Main.obj
 0001:0001e1c0       ?_Destroy@?$vector@V?$basic_string@DU?$char_traits@D@std@@V?$allocator@D@2@@std@@V?$allocator@V?$basic_string@DU?$char_traits@D@std@@V?$allocator@D@2@@std@@@2@@std@@AEAAXPEAV?$basic_string@DU?$char_traits@D@std@@V?$allocator@D@2@@2@0@Z 000000018001f1c0 f i Main.obj
 0001:0001e1f4       ?_Erase@?$_Tree@V?$_Tmap_traits@IPEBDU?$less@I@std@@V?$allocator@U?$pair@$$CBIPEBD@std@@@2@$0A@@std@@@std@@IEAAXPEAU?$_Tree_node@U?$pair@$$CBIPEBD@std@@PEAX@2@@Z 000000018001f1f4 f i Main.obj
 0001:0001e248       ?_Erase@?$_Tree@V?$_Tmap_traits@IUClass@cldb@@U?$less@I@std@@V?$allocator@U?$pair@$$CBIUClass@cldb@@@std@@@4@$00@std@@@std@@IEAAXPEAU?$_Tree_node@U?$pair@$$CBIUClass@cldb@@@std@@PEAX@2@@Z 000000018001f248 f i Main.obj
 0001:0001e2a4       ?_Erase@?$_Tree@V?$_Tmap_traits@IUContainerInfo@cldb@@U?$less@I@std@@V?$allocator@U?$pair@$$CBIUContainerInfo@cldb@@@std@@@4@$0A@@std@@@std@@IEAAXPEAU?$_Tree_node@U?$pair@$$CBIUContainerInfo@cldb@@@std@@PEAX@2@@Z 000000018001f2a4 f i Main.obj
 0001:0001e300       ?_Erase@?$_Tree@V?$_Tmap_traits@IUEnum@cldb@@U?$less@I@std@@V?$allocator@U?$pair@$$CBIUEnum@cldb@@@std@@@4@$00@std@@@std@@IEAAXPEAU?$_Tree_node@U?$pair@$$CBIUEnum@cldb@@@std@@PEAX@2@@Z 000000018001f300 f i Main.obj
 0001:0001e35c       ?_Erase@?$_Tree@V?$_Tmap_traits@IUEnumConstant@cldb@@U?$less@I@std@@V?$allocator@U?$pair@$$CBIUEnumConstant@cldb@@@std@@@4@$00@std@@@std@@IEAAXPEAU?$_Tree_node@U?$pair@$$CBIUEnumConstant@cldb@@@std@@PEAX@2@@Z 000000018001f35c f i Main.obj
 0001:0001e3b8       ?_Erase@?$_Tree@V?$_Tmap_traits@IUField@cldb@@U?$less@I@std@@V?$allocator@U?$pair@$$CBIUField@cldb@@@std@@@4@$00@std@@@std@@IEAAXPEAU?$_Tree_node@U?$pair@$$CBIUField@cldb@@@std@@PEAX@2@@Z 000000018001f3b8 f i Main.obj
 0001:0001e414       ?_Erase@?$_Tree@V?$_Tmap_traits@IUFlagAttribute@cldb@@U?$less@I@std@@V?$allocator@U?$pair@$$CBIUFlagAttribute@cldb@@@std@@@4@$00@std@@@std@@IEAAXPEAU?$_Tree_node@U?$pair@$$CBIUFlagAttribute@cldb@@@std@@PEAX@2@@Z 000000018001f414 f i Main.obj
 0001:0001e47c       ?_Erase@?$_Tree@V?$_Tmap_traits@IUFloatAttribute@cldb@@U?$less@I@std@@V?$allocator@U?$pair@$$CBIUFloatAttribute@cldb@@@std@@@4@$00@std@@@std@@IEAAXPEAU?$_Tree_node@U?$pair@$$CBIUFloatAttribute@cldb@@@std@@PEAX@2@@Z 000000018001f47c f i Main.obj
 0001:0001e4e4       ?_Erase@?$_Tree@V?$_Tmap_traits@IUFunction@cldb@@U?$less@I@std@@V?$allocator@U?$pair@$$CBIUFunction@cldb@@@std@@@4@$00@std@@@std@@IEAAXPEAU?$_Tree_node@U?$pair@$$CBIUFunction@cldb@@@std@@PEAX@2@@Z 000000018001f4e4 f i Main.obj
 0001:0001e540       ?_Erase@?$_Tree@V?$_Tmap_traits@IUGetTypeFunctions@cldb@@U?$less@I@std@@V?$allocator@U?$pair@$$CBIUGetTypeFunctions@cldb@@@std@@@4@$0A@@std@@@std@@IEAAXPEAU?$_Tree_node@U?$pair@$$CBIUGetTypeFunctions@cldb@@@std@@PEAX@2@@Z 000000018001f540 f i Main.obj
 0001:0001e594       ?_Erase@?$_Tree@V?$_Tmap_traits@IUIntAttribute@cldb@@U?$less@I@std@@V?$allocator@U?$pair@$$CBIUIntAttribute@cldb@@@std@@@4@$00@std@@@std@@IEAAXPEAU?$_Tree_node@U?$pair@$$CBIUIntAttribute@cldb@@@std@@PEAX@2@@Z 000000018001f594 f i Main.obj
 0001:0001e5fc       ?_Erase@?$_Tree@V?$_Tmap_traits@IUName@cldb@@U?$less@I@std@@V?$allocator@U?$pair@$$CBIUName@cldb@@@std@@@4@$0A@@std@@@std@@IEAAXPEAU?$_Tree_node@U?$pair@$$CBIUName@cldb@@@std@@PEAX@2@@Z 000000018001f5fc f i Main.obj
 0001:0001e65c       ?_Erase@?$_Tree@V?$_Tmap_traits@IUNamespace@cldb@@U?$less@I@std@@V?$allocator@U?$pair@$$CBIUNamespace@cldb@@@std@@@4@$00@std@@@std@@IEAAXPEAU?$_Tree_node@U?$pair@$$CBIUNamespace@cldb@@@std@@PEAX@2@@Z 000000018001f65c f i Main.obj
 0001:0001e6b8       ?_Erase@?$_Tree@V?$_Tmap_traits@IUPrimitiveAttribute@cldb@@U?$less@I@std@@V?$allocator@U?$pair@$$CBIUPrimitiveAttribute@cldb@@@std@@@4@$00@std@@@std@@IEAAXPEAU?$_Tree_node@U?$pair@$$CBIUPrimitiveAttribute@cldb@@@std@@PEAX@2@@Z 000000018001f6b8 f i Main.obj
 0001:0001e714       ?_Erase@?$_Tree@V?$_Tmap_traits@IUTemplate@cldb@@U?$less@I@std@@V?$allocator@U?$pair@$$CBIUTemplate@cldb@@@std@@@4@$00@std@@@std@@IEAAXPEAU?$_Tree_node@U?$pair@$$CBIUTemplate@cldb@@@std@@PEAX@2@@Z 000000018001f714 f i Main.obj
 0001:0001e770       ?_Erase@?$_Tree@V?$_Tmap_traits@IUTemplateType@cldb@@U?$less@I@std@@V?$allocator@U?$pair@$$CBIUTemplateType@cldb@@@std@@@4@$00@std@@@std@@IEAAXPEAU?$_Tree_node@U?$pair@$$CBIUTemplateType@cldb@@@std@@PEAX@2@@Z 000000018001f770 f i Main.obj
 0001:0001e7fc       ?_Erase@?$_Tree@V?$_Tmap_traits@IUTextAttribute@cldb@@U?$less@I@std@@V?$allocator@U?$pair@$$CBIUTextAttribute@cldb@@@std@@@4@$00@std@@@std@@IEAAXPEAU?$_Tree_node@U?$pair@$$CBIUTextAttribute@cldb@@@std@@PEAX@2@@Z 000000018001f7fc f i Main.obj
 0001:0001e858       ?_Erase@?$_Tree@V?$_Tmap_traits@IUType@cldb@@U?$less@I@std@@V?$allocator@U?$pair@$$CBIUType@cldb@@@std@@@4@$00@std@@@std@@IEAAXPEAU?$_Tree_node@U?$pair@$$CBIUType@cldb@@@std@@PEAX@2@@Z 000000018001f858 f i Main.obj
 0001:0001e8b4       ?_Erase@?$_Tree@V?$_Tmap_traits@IUTypeInheritance@cldb@@U?$less@I@std@@V?$allocator@U?$pair@$$CBIUTypeInheritance@cldb@@@std@@@4@$0A@@std@@@std@@IEAAXPEAU?$_Tree_node@U?$pair@$$CBIUTypeInheritance@cldb@@@std@@PEAX@2@@Z 000000018001f8b4 f i Main.obj
 0001:0001e910       ?_Extract@?$_Tree_val@U?$_Tree_simple_types@U?$pair@$$CBIPEBD@std@@@std@@@std@@QEAAPEAU?$_Tree_node@U?$pair@$$CBIPEBD@std@@PEAX@2@V?$_Tree_const_iterator@V?$_Tree_val@U?$_Tree_simple_types@U?$pair@$$CBIPEBD@std@@@std@@@std@@@2@@Z 000000018001f910 f i Main.obj
 0001:0001ed68       ?_Extract@?$_Tree_val@U?$_Tree_simple_types@U?$pair@$$CBIUClass@cldb@@@std@@@std@@@std@@QEAAPEAU?$_Tree_node@U?$pair@$$CBIUClass@cldb@@@std@@PEAX@2@V?$_Tree_const_iterator@V?$_Tree_val@U?$_Tree_simple_types@U?$pair@$$CBIUClass@cldb@@@std@@@std@@@std@@@2@@Z 000000018001fd68 f i Main.obj
 0001:0001f1c0       ?_Extract@?$_Tree_val@U?$_Tree_simple_types@U?$pair@$$CBIUContainerInfo@cldb@@@std@@@std@@@std@@QEAAPEAU?$_Tree_node@U?$pair@$$CBIUContainerInfo@cldb@@@std@@PEAX@2@V?$_Tree_const_iterator@V?$_Tree_val@U?$_Tree_simple_types@U?$pair@$$CBIUContainerInfo@cldb@@@std@@@std@@@std@@@2@@Z 00000001800201c0 f i Main.obj
 0001:0001f618       ?_Extract@?$_Tree_val@U?$_Tree_simple_types@U?$pair@$$CBIUEnum@cldb@@@std@@@std@@@std@@QEAAPEAU?$_Tree_node@U?$pair@$$CBIUEnum@cldb@@@std@@PEAX@2@V?$_Tree_const_iterator@V?$_Tree_val@U?$_Tree_simple_types@U?$pair@$$CBIUEnum@cldb@@@std@@@std@@@std@@@2@@Z 0000000180020618 f i Main.obj
 0001:0001fa70       ?_Extract@?$_Tree_val@U?$_Tree_simple_types@U?$pair@$$CBIUEnumConstant@cldb@@@std@@@std@@@std@@QEAAPEAU?$_Tree_node@U?$pair@$$CBIUEnumConstant@cldb@@@std@@PEAX@2@V?$_Tree_const_iterator@V?$_Tree_val@U?$_Tree_simple_types@U?$pair@$$CBIUEnumConstant@cldb@@@std@@@std@@@std@@@2@@Z 0000000180020a70 f i Main.obj
 0001:0001fec8       ?_Extract@?$_Tree_val@U?$_Tree_simple_types@U?$pair@$$CBIUField@cldb@@@std@@@std@@@std@@QEAAPEAU?$_Tree_node@U?$pair@$$CBIUField@cldb@@@std@@PEAX@2@V?$_Tree_const_iterator@V?$_Tree_val@U?$_Tree_simple_types@U?$pair@$$CBIUField@cldb@@@std@@@std@@@std@@@2@@Z 0000000180020ec8 f i Main.obj
 0001:00020320       ?_Extract@?$_Tree_val@U?$_Tree_simple_types@U?$pair@$$CBIUFlagAttribute@cldb@@@std@@@std@@@std@@QEAAPEAU?$_Tree_node@U?$pair@$$CBIUFlagAttribute@cldb@@@std@@PEAX@2@V?$_Tree_const_iterator@V?$_Tree_val@U?$_Tree_simple_types@U?$pair@$$CBIUFlagAttribute@cldb@@@std@@@std@@@std@@@2@@Z 0000000180021320 f i Main.obj
 0001:00020778       ?_Extract@?$_Tree_val@U?$_Tree_simple_types@U?$pair@$$CBIUFloatAttribute@cldb@@@std@@@std@@@std@@QEAAPEAU?$_Tree_node@U?$pair@$$CBIUFloatAttribute@cldb@@@std@@PEAX@2@V?$_Tree_const_iterator@V?$_Tree_val@U?$_Tree_simple_types@U?$pair@$$CBIUFloatAttribute@cldb@@@std@@@std@@@std@@@2@@Z 0000000180021778 f i Main.obj
 0001:00020bd0       ?_Extract@?$_Tree_val@U?$_Tree_simple_types@U?$pair@$$CBIUFunction@cldb@@@std@@@std@@@std@@QEAAPEAU?$_Tree_node@U?$pair@$$CBIUFunction@cldb@@@std@@PEAX@2@V?$_Tree_const_iterator@V?$_Tree_val@U?$_Tree_simple_types@U?$pair@$$CBIUFunction@cldb@@@std@@@std@@@std@@@2@@Z 0000000180021bd0 f i Main.obj
 0001:00021028       ?_Extract@?$_Tree_val@U?$_Tree_simple_types@U?$pair@$$CBIUGetTypeFunctions@cldb@@@std@@@std@@@std@@QEAAPEAU?$_Tree_node@U?$pair@$$CBIUGetTypeFunctions@cldb@@@std@@PEAX@2@V?$_Tree_const_iterator@V?$_Tree_val@U?$_Tree_simple_types@U?$pair@$$CBIUGetTypeFunctions@cldb@@@std@@@std@@@std@@@2@@Z 0000000180022028 f i Main.obj
 0001:00021480       ?_Extract@?$_Tree_val@U?$_Tree_simple_types@U?$pair@$$CBIUIntAttribute@cldb@@@std@@@std@@@std@@QEAAPEAU?$_Tree_node@U?$pair@$$CBIUIntAttribute@cldb@@@std@@PEAX@2@V?$_Tree_const_iterator@V?$_Tree_val@U?$_Tree_simple_types@U?$pair@$$CBIUIntAttribute@cldb@@@std@@@std@@@std@@@2@@Z 0000000180022480 f i Main.obj
 0001:000218d8       ?_Extract@?$_Tree_val@U?$_Tree_simple_types@U?$pair@$$CBIUName@cldb@@@std@@@std@@@std@@QEAAPEAU?$_Tree_node@U?$pair@$$CBIUName@cldb@@@std@@PEAX@2@V?$_Tree_const_iterator@V?$_Tree_val@U?$_Tree_simple_types@U?$pair@$$CBIUName@cldb@@@std@@@std@@@std@@@2@@Z 00000001800228d8 f i Main.obj
 0001:00021d30       ?_Extract@?$_Tree_val@U?$_Tree_simple_types@U?$pair@$$CBIUNamespace@cldb@@@std@@@std@@@std@@QEAAPEAU?$_Tree_node@U?$pair@$$CBIUNamespace@cldb@@@std@@PEAX@2@V?$_Tree_const_iterator@V?$_Tree_val@U?$_Tree_simple_types@U?$pair@$$CBIUNamespace@cldb@@@std@@@std@@@std@@@2@@Z 0000000180022d30 f i Main.obj
 0001:00022188       ?_Extract@?$_Tree_val@U?$_Tree_simple_types@U?$pair@$$CBIUPrimitiveAttribute@cldb@@@std@@@std@@@std@@QEAAPEAU?$_Tree_node@U?$pair@$$CBIUPrimitiveAttribute@cldb@@@std@@PEAX@2@V?$_Tree_const_iterator@V?$_Tree_val@U?$_Tree_simple_types@U?$pair@$$CBIUPrimitiveAttribute@cldb@@@std@@@std@@@std@@@2@@Z 0000000180023188 f i Main.obj
 0001:000225e0       ?_Extract@?$_Tree_val@U?$_Tree_simple_types@U?$pair@$$CBIUTemplate@cldb@@@std@@@std@@@std@@QEAAPEAU?$_Tree_node@U?$pair@$$CBIUTemplate@cldb@@@std@@PEAX@2@V?$_Tree_const_iterator@V?$_Tree_val@U?$_Tree_simple_types@U?$pair@$$CBIUTemplate@cldb@@@std@@@std@@@std@@@2@@Z 00000001800235e0 f i Main.obj
 0001:00022a38       ?_Extract@?$_Tree_val@U?$_Tree_simple_types@U?$pair@$$CBIUTemplateType@cldb@@@std@@@std@@@std@@QEAAPEAU?$_Tree_node@U?$pair@$$CBIUTemplateType@cldb@@@std@@PEAX@2@V?$_Tree_const_iterator@V?$_Tree_val@U?$_Tree_simple_types@U?$pair@$$CBIUTemplateType@cldb@@@std@@@std@@@std@@@2@@Z 0000000180023a38 f i Main.obj
 0001:00022e90       ?_Extract@?$_Tree_val@U?$_Tree_simple_types@U?$pair@$$CBIUTextAttribute@cldb@@@std@@@std@@@std@@QEAAPEAU?$_Tree_node@U?$pair@$$CBIUTextAttribute@cldb@@@std@@PEAX@2@V?$_Tree_const_iterator@V?$_Tree_val@U?$_Tree_simple_types@U?$pair@$$CBIUTextAttribute@cldb@@@std@@@std@@@std@@@2@@Z 0000000180023e90 f i Main.obj
 0001:000232e8       ?_Extract@?$_Tree_val@U?$_Tree_simple_types@U?$pair@$$CBIUType@cldb@@@std@@@std@@@std@@QEAAPEAU?$_Tree_node@U?$pair@$$CBIUType@cldb@@@std@@PEAX@2@V?$_Tree_const_iterator@V?$_Tree_val@U?$_Tree_simple_types@U?$pair@$$CBIUType@cldb@@@std@@@std@@@std@@@2@@Z 00000001800242e8 f i Main.obj
 0001:00023740       ?_Extract@?$_Tree_val@U?$_Tree_simple_types@U?$pair@$$CBIUTypeInheritance@cldb@@@std@@@std@@@std@@QEAAPEAU?$_Tree_node@U?$pair@$$CBIUTypeInheritance@cldb@@@std@@PEAX@2@V?$_Tree_const_iterator@V?$_Tree_val@U?$_Tree_simple_types@U?$pair@$$CBIUTypeInheritance@cldb@@@std@@@std@@@std@@@2@@Z 0000000180024740 f i Main.obj
 0001:00023b98       ?_Getal@?$_Vector_alloc@U?$_Vec_base_types@V?$basic_string@DU?$char_traits@D@std@@V?$allocator@D@2@@std@@V?$allocator@V?$basic_string@DU?$char_traits@D@std@@V?$allocator@D@2@@std@@@2@@std@@@std@@QEAAAEAV?$allocator@V?$basic_string@DU?$char_traits@D@std@@V?$allocator@D@2@@std@@@2@XZ 0000000180024b98 f i Main.obj
 0001:00023b9c       ?_Tidy@?$vector@V?$basic_string@DU?$char_traits@D@std@@V?$allocator@D@2@@std@@V?$allocator@V?$basic_string@DU?$char_traits@D@std@@V?$allocator@D@2@@std@@@2@@std@@AEAAXXZ 0000000180024b9c f i Main.obj
 0001:00023c30       ?_Xlength@?$vector@V?$basic_string@DU?$char_traits@D@std@@V?$allocator@D@2@@std@@V?$allocator@V?$basic_string@DU?$char_traits@D@std@@V?$allocator@D@2@@std@@@2@@std@@CAXXZ 0000000180024c30 f i Main.obj
 0001:00023c44       ?allocate@?$allocator@V?$basic_string@DU?$char_traits@D@std@@V?$allocator@D@2@@std@@@std@@QEAAPEAV?$basic_string@DU?$char_traits@D@std@@V?$allocator@D@2@@2@_K@Z 0000000180024c44 f i Main.obj
 0001:00023cb4       ?argvSplit@@YA?AUArgvs@@PEBDD@Z 0000000180024cb4 f   Main.obj
 0001:00023db0       ?clear@?$_Tree@V?$_Tmap_traits@IPEBDU?$less@I@std@@V?$allocator@U?$pair@$$CBIPEBD@std@@@2@$0A@@std@@@std@@QEAAXXZ 0000000180024db0 f i Main.obj
 0001:00023e38       ?clear@?$_Tree@V?$_Tmap_traits@IUClass@cldb@@U?$less@I@std@@V?$allocator@U?$pair@$$CBIUClass@cldb@@@std@@@4@$00@std@@@std@@QEAAXXZ 0000000180024e38 f i Main.obj
 0001:00023ecc       ?clear@?$_Tree@V?$_Tmap_traits@IUContainerInfo@cldb@@U?$less@I@std@@V?$allocator@U?$pair@$$CBIUContainerInfo@cldb@@@std@@@4@$0A@@std@@@std@@QEAAXXZ 0000000180024ecc f i Main.obj
 0001:00023f60       ?clear@?$_Tree@V?$_Tmap_traits@IUEnum@cldb@@U?$less@I@std@@V?$allocator@U?$pair@$$CBIUEnum@cldb@@@std@@@4@$00@std@@@std@@QEAAXXZ 0000000180024f60 f i Main.obj
 0001:00023ff4       ?clear@?$_Tree@V?$_Tmap_traits@IUEnumConstant@cldb@@U?$less@I@std@@V?$allocator@U?$pair@$$CBIUEnumConstant@cldb@@@std@@@4@$00@std@@@std@@QEAAXXZ 0000000180024ff4 f i Main.obj
 0001:00024088       ?clear@?$_Tree@V?$_Tmap_traits@IUField@cldb@@U?$less@I@std@@V?$allocator@U?$pair@$$CBIUField@cldb@@@std@@@4@$00@std@@@std@@QEAAXXZ 0000000180025088 f i Main.obj
 0001:0002411c       ?clear@?$_Tree@V?$_Tmap_traits@IUFlagAttribute@cldb@@U?$less@I@std@@V?$allocator@U?$pair@$$CBIUFlagAttribute@cldb@@@std@@@4@$00@std@@@std@@QEAAXXZ 000000018002511c f i Main.obj
 0001:000241bc       ?clear@?$_Tree@V?$_Tmap_traits@IUFloatAttribute@cldb@@U?$less@I@std@@V?$allocator@U?$pair@$$CBIUFloatAttribute@cldb@@@std@@@4@$00@std@@@std@@QEAAXXZ 00000001800251bc f i Main.obj
 0001:0002425c       ?clear@?$_Tree@V?$_Tmap_traits@IUFunction@cldb@@U?$less@I@std@@V?$allocator@U?$pair@$$CBIUFunction@cldb@@@std@@@4@$00@std@@@std@@QEAAXXZ 000000018002525c f i Main.obj
 0001:000242f0       ?clear@?$_Tree@V?$_Tmap_traits@IUGetTypeFunctions@cldb@@U?$less@I@std@@V?$allocator@U?$pair@$$CBIUGetTypeFunctions@cldb@@@std@@@4@$0A@@std@@@std@@QEAAXXZ 00000001800252f0 f i Main.obj
 0001:00024378       ?clear@?$_Tree@V?$_Tmap_traits@IUIntAttribute@cldb@@U?$less@I@std@@V?$allocator@U?$pair@$$CBIUIntAttribute@cldb@@@std@@@4@$00@std@@@std@@QEAAXXZ 0000000180025378 f i Main.obj
 0001:00024418       ?clear@?$_Tree@V?$_Tmap_traits@IUName@cldb@@U?$less@I@std@@V?$allocator@U?$pair@$$CBIUName@cldb@@@std@@@4@$0A@@std@@@std@@QEAAXXZ 0000000180025418 f i Main.obj
 0001:000244b0       ?clear@?$_Tree@V?$_Tmap_traits@IUNamespace@cldb@@U?$less@I@std@@V?$allocator@U?$pair@$$CBIUNamespace@cldb@@@std@@@4@$00@std@@@std@@QEAAXXZ 00000001800254b0 f i Main.obj
 0001:00024544       ?clear@?$_Tree@V?$_Tmap_traits@IUPrimitiveAttribute@cldb@@U?$less@I@std@@V?$allocator@U?$pair@$$CBIUPrimitiveAttribute@cldb@@@std@@@4@$00@std@@@std@@QEAAXXZ 0000000180025544 f i Main.obj
 0001:000245d8       ?clear@?$_Tree@V?$_Tmap_traits@IUTemplate@cldb@@U?$less@I@std@@V?$allocator@U?$pair@$$CBIUTemplate@cldb@@@std@@@4@$00@std@@@std@@QEAAXXZ 00000001800255d8 f i Main.obj
 0001:0002466c       ?clear@?$_Tree@V?$_Tmap_traits@IUTextAttribute@cldb@@U?$less@I@std@@V?$allocator@U?$pair@$$CBIUTextAttribute@cldb@@@std@@@4@$00@std@@@std@@QEAAXXZ 000000018002566c f i Main.obj
 0001:00024700       ?clear@?$_Tree@V?$_Tmap_traits@IUType@cldb@@U?$less@I@std@@V?$allocator@U?$pair@$$CBIUType@cldb@@@std@@@4@$00@std@@@std@@QEAAXXZ 0000000180025700 f i Main.obj
 0001:00024794       ?clear@?$_Tree@V?$_Tmap_traits@IUTypeInheritance@cldb@@U?$less@I@std@@V?$allocator@U?$pair@$$CBIUTypeInheritance@cldb@@@std@@@4@$0A@@std@@@std@@QEAAXXZ 0000000180025794 f i Main.obj
 0001:00024828       ?deallocate@?$_Default_allocator_traits@V?$allocator@U?$_Tree_node@U?$pair@$$CBIUName@cldb@@@std@@PEAX@std@@@std@@@std@@SAXAEAV?$allocator@U?$_Tree_node@U?$pair@$$CBIUName@cldb@@@std@@PEAX@std@@@2@QEAU?$_Tree_node@U?$pair@$$CBIUName@cldb@@@std@@PEAX@2@_K@Z 0000000180025828 f i Main.obj
 0001:0002486c       ?deallocate@?$allocator@V?$basic_string@DU?$char_traits@D@std@@V?$allocator@D@2@@std@@@std@@QEAAXQEAV?$basic_string@DU?$char_traits@D@std@@V?$allocator@D@2@@2@_K@Z 000000018002586c f i Main.obj
 0001:000248b0       ?erase@?$_Tree@V?$_Tmap_traits@IPEBDU?$less@I@std@@V?$allocator@U?$pair@$$CBIPEBD@std@@@2@$0A@@std@@@std@@QEAA?AV?$_Tree_iterator@V?$_Tree_val@U?$_Tree_simple_types@U?$pair@$$CBIPEBD@std@@@std@@@std@@@2@V?$_Tree_const_iterator@V?$_Tree_val@U?$_Tree_simple_types@U?$pair@$$CBIPEBD@std@@@std@@@std@@@2@0@Z 00000001800258b0 f i Main.obj
 0001:00024964       ?erase@?$_Tree@V?$_Tmap_traits@IPEBDU?$less@I@std@@V?$allocator@U?$pair@$$CBIPEBD@std@@@2@$0A@@std@@@std@@QEAA?AV?$_Tree_iterator@V?$_Tree_val@U?$_Tree_simple_types@U?$pair@$$CBIPEBD@std@@@std@@@std@@@2@V?$_Tree_const_iterator@V?$_Tree_val@U?$_Tree_simple_types@U?$pair@$$CBIPEBD@std@@@std@@@std@@@2@@Z 0000000180025964 f i Main.obj
 0001:000249dc       ?erase@?$_Tree@V?$_Tmap_traits@IUClass@cldb@@U?$less@I@std@@V?$allocator@U?$pair@$$CBIUClass@cldb@@@std@@@4@$00@std@@@std@@QEAA?AV?$_Tree_iterator@V?$_Tree_val@U?$_Tree_simple_types@U?$pair@$$CBIUClass@cldb@@@std@@@std@@@std@@@2@V?$_Tree_const_iterator@V?$_Tree_val@U?$_Tree_simple_types@U?$pair@$$CBIUClass@cldb@@@std@@@std@@@std@@@2@0@Z 00000001800259dc f i Main.obj
 0001:00024a90       ?erase@?$_Tree@V?$_Tmap_traits@IUClass@cldb@@U?$less@I@std@@V?$allocator@U?$pair@$$CBIUClass@cldb@@@std@@@4@$00@std@@@std@@QEAA?AV?$_Tree_iterator@V?$_Tree_val@U?$_Tree_simple_types@U?$pair@$$CBIUClass@cldb@@@std@@@std@@@std@@@2@V?$_Tree_const_iterator@V?$_Tree_val@U?$_Tree_simple_types@U?$pair@$$CBIUClass@cldb@@@std@@@std@@@std@@@2@@Z 0000000180025a90 f i Main.obj
 0001:00024b20       ?erase@?$_Tree@V?$_Tmap_traits@IUContainerInfo@cldb@@U?$less@I@std@@V?$allocator@U?$pair@$$CBIUContainerInfo@cldb@@@std@@@4@$0A@@std@@@std@@QEAA?AV?$_Tree_iterator@V?$_Tree_val@U?$_Tree_simple_types@U?$pair@$$CBIUContainerInfo@cldb@@@std@@@std@@@std@@@2@V?$_Tree_const_iterator@V?$_Tree_val@U?$_Tree_simple_types@U?$pair@$$CBIUContainerInfo@cldb@@@std@@@std@@@std@@@2@0@Z 0000000180025b20 f i Main.obj
 0001:00024bd4       ?erase@?$_Tree@V?$_Tmap_traits@IUContainerInfo@cldb@@U?$less@I@std@@V?$allocator@U?$pair@$$CBIUContainerInfo@cldb@@@std@@@4@$0A@@std@@@std@@QEAA?AV?$_Tree_iterator@V?$_Tree_val@U?$_Tree_simple_types@U?$pair@$$CBIUContainerInfo@cldb@@@std@@@std@@@std@@@2@V?$_Tree_const_iterator@V?$_Tree_val@U?$_Tree_simple_types@U?$pair@$$CBIUContainerInfo@cldb@@@std@@@std@@@std@@@2@@Z 0000000180025bd4 f i Main.obj
 0001:00024c64       ?erase@?$_Tree@V?$_Tmap_traits@IUEnum@cldb@@U?$less@I@std@@V?$allocator@U?$pair@$$CBIUEnum@cldb@@@std@@@4@$00@std@@@std@@QEAA?AV?$_Tree_iterator@V?$_Tree_val@U?$_Tree_simple_types@U?$pair@$$CBIUEnum@cldb@@@std@@@std@@@std@@@2@V?$_Tree_const_iterator@V?$_Tree_val@U?$_Tree_simple_types@U?$pair@$$CBIUEnum@cldb@@@std@@@std@@@std@@@2@0@Z 0000000180025c64 f i Main.obj
 0001:00024d18       ?erase@?$_Tree@V?$_Tmap_traits@IUEnum@cldb@@U?$less@I@std@@V?$allocator@U?$pair@$$CBIUEnum@cldb@@@std@@@4@$00@std@@@std@@QEAA?AV?$_Tree_iterator@V?$_Tree_val@U?$_Tree_simple_types@U?$pair@$$CBIUEnum@cldb@@@std@@@std@@@std@@@2@V?$_Tree_const_iterator@V?$_Tree_val@U?$_Tree_simple_types@U?$pair@$$CBIUEnum@cldb@@@std@@@std@@@std@@@2@@Z 0000000180025d18 f i Main.obj
 0001:00024da8       ?erase@?$_Tree@V?$_Tmap_traits@IUEnumConstant@cldb@@U?$less@I@std@@V?$allocator@U?$pair@$$CBIUEnumConstant@cldb@@@std@@@4@$00@std@@@std@@QEAA?AV?$_Tree_iterator@V?$_Tree_val@U?$_Tree_simple_types@U?$pair@$$CBIUEnumConstant@cldb@@@std@@@std@@@std@@@2@V?$_Tree_const_iterator@V?$_Tree_val@U?$_Tree_simple_types@U?$pair@$$CBIUEnumConstant@cldb@@@std@@@std@@@std@@@2@0@Z 0000000180025da8 f i Main.obj
 0001:00024e5c       ?erase@?$_Tree@V?$_Tmap_traits@IUEnumConstant@cldb@@U?$less@I@std@@V?$allocator@U?$pair@$$CBIUEnumConstant@cldb@@@std@@@4@$00@std@@@std@@QEAA?AV?$_Tree_iterator@V?$_Tree_val@U?$_Tree_simple_types@U?$pair@$$CBIUEnumConstant@cldb@@@std@@@std@@@std@@@2@V?$_Tree_const_iterator@V?$_Tree_val@U?$_Tree_simple_types@U?$pair@$$CBIUEnumConstant@cldb@@@std@@@std@@@std@@@2@@Z 0000000180025e5c f i Main.obj
 0001:00024eec       ?erase@?$_Tree@V?$_Tmap_traits@IUField@cldb@@U?$less@I@std@@V?$allocator@U?$pair@$$CBIUField@cldb@@@std@@@4@$00@std@@@std@@QEAA?AV?$_Tree_iterator@V?$_Tree_val@U?$_Tree_simple_types@U?$pair@$$CBIUField@cldb@@@std@@@std@@@std@@@2@V?$_Tree_const_iterator@V?$_Tree_val@U?$_Tree_simple_types@U?$pair@$$CBIUField@cldb@@@std@@@std@@@std@@@2@0@Z 0000000180025eec f i Main.obj
 0001:00024fa0       ?erase@?$_Tree@V?$_Tmap_traits@IUField@cldb@@U?$less@I@std@@V?$allocator@U?$pair@$$CBIUField@cldb@@@std@@@4@$00@std@@@std@@QEAA?AV?$_Tree_iterator@V?$_Tree_val@U?$_Tree_simple_types@U?$pair@$$CBIUField@cldb@@@std@@@std@@@std@@@2@V?$_Tree_const_iterator@V?$_Tree_val@U?$_Tree_simple_types@U?$pair@$$CBIUField@cldb@@@std@@@std@@@std@@@2@@Z 0000000180025fa0 f i Main.obj
 0001:00025030       ?erase@?$_Tree@V?$_Tmap_traits@IUFlagAttribute@cldb@@U?$less@I@std@@V?$allocator@U?$pair@$$CBIUFlagAttribute@cldb@@@std@@@4@$00@std@@@std@@QEAA?AV?$_Tree_iterator@V?$_Tree_val@U?$_Tree_simple_types@U?$pair@$$CBIUFlagAttribute@cldb@@@std@@@std@@@std@@@2@V?$_Tree_const_iterator@V?$_Tree_val@U?$_Tree_simple_types@U?$pair@$$CBIUFlagAttribute@cldb@@@std@@@std@@@std@@@2@0@Z 0000000180026030 f i Main.obj
 0001:000250e4       ?erase@?$_Tree@V?$_Tmap_traits@IUFlagAttribute@cldb@@U?$less@I@std@@V?$allocator@U?$pair@$$CBIUFlagAttribute@cldb@@@std@@@4@$00@std@@@std@@QEAA?AV?$_Tree_iterator@V?$_Tree_val@U?$_Tree_simple_types@U?$pair@$$CBIUFlagAttribute@cldb@@@std@@@std@@@std@@@2@V?$_Tree_const_iterator@V?$_Tree_val@U?$_Tree_simple_types@U?$pair@$$CBIUFlagAttribute@cldb@@@std@@@std@@@std@@@2@@Z 00000001800260e4 f i Main.obj
 0001:0002517c       ?erase@?$_Tree@V?$_Tmap_traits@IUFloatAttribute@cldb@@U?$less@I@std@@V?$allocator@U?$pair@$$CBIUFloatAttribute@cldb@@@std@@@4@$00@std@@@std@@QEAA?AV?$_Tree_iterator@V?$_Tree_val@U?$_Tree_simple_types@U?$pair@$$CBIUFloatAttribute@cldb@@@std@@@std@@@std@@@2@V?$_Tree_const_iterator@V?$_Tree_val@U?$_Tree_simple_types@U?$pair@$$CBIUFloatAttribute@cldb@@@std@@@std@@@std@@@2@0@Z 000000018002617c f i Main.obj
 0001:00025230       ?erase@?$_Tree@V?$_Tmap_traits@IUFloatAttribute@cldb@@U?$less@I@std@@V?$allocator@U?$pair@$$CBIUFloatAttribute@cldb@@@std@@@4@$00@std@@@std@@QEAA?AV?$_Tree_iterator@V?$_Tree_val@U?$_Tree_simple_types@U?$pair@$$CBIUFloatAttribute@cldb@@@std@@@std@@@std@@@2@V?$_Tree_const_iterator@V?$_Tree_val@U?$_Tree_simple_types@U?$pair@$$CBIUFloatAttribute@cldb@@@std@@@std@@@std@@@2@@Z 0000000180026230 f i Main.obj
 0001:000252c8       ?erase@?$_Tree@V?$_Tmap_traits@IUFunction@cldb@@U?$less@I@std@@V?$allocator@U?$pair@$$CBIUFunction@cldb@@@std@@@4@$00@std@@@std@@QEAA?AV?$_Tree_iterator@V?$_Tree_val@U?$_Tree_simple_types@U?$pair@$$CBIUFunction@cldb@@@std@@@std@@@std@@@2@V?$_Tree_const_iterator@V?$_Tree_val@U?$_Tree_simple_types@U?$pair@$$CBIUFunction@cldb@@@std@@@std@@@std@@@2@0@Z 00000001800262c8 f i Main.obj
 0001:0002537c       ?erase@?$_Tree@V?$_Tmap_traits@IUFunction@cldb@@U?$less@I@std@@V?$allocator@U?$pair@$$CBIUFunction@cldb@@@std@@@4@$00@std@@@std@@QEAA?AV?$_Tree_iterator@V?$_Tree_val@U?$_Tree_simple_types@U?$pair@$$CBIUFunction@cldb@@@std@@@std@@@std@@@2@V?$_Tree_const_iterator@V?$_Tree_val@U?$_Tree_simple_types@U?$pair@$$CBIUFunction@cldb@@@std@@@std@@@std@@@2@@Z 000000018002637c f i Main.obj
 0001:0002540c       ?erase@?$_Tree@V?$_Tmap_traits@IUGetTypeFunctions@cldb@@U?$less@I@std@@V?$allocator@U?$pair@$$CBIUGetTypeFunctions@cldb@@@std@@@4@$0A@@std@@@std@@QEAA?AV?$_Tree_iterator@V?$_Tree_val@U?$_Tree_simple_types@U?$pair@$$CBIUGetTypeFunctions@cldb@@@std@@@std@@@std@@@2@V?$_Tree_const_iterator@V?$_Tree_val@U?$_Tree_simple_types@U?$pair@$$CBIUGetTypeFunctions@cldb@@@std@@@std@@@std@@@2@0@Z 000000018002640c f i Main.obj
 0001:000254c0       ?erase@?$_Tree@V?$_Tmap_traits@IUGetTypeFunctions@cldb@@U?$less@I@std@@V?$allocator@U?$pair@$$CBIUGetTypeFunctions@cldb@@@std@@@4@$0A@@std@@@std@@QEAA?AV?$_Tree_iterator@V?$_Tree_val@U?$_Tree_simple_types@U?$pair@$$CBIUGetTypeFunctions@cldb@@@std@@@std@@@std@@@2@V?$_Tree_const_iterator@V?$_Tree_val@U?$_Tree_simple_types@U?$pair@$$CBIUGetTypeFunctions@cldb@@@std@@@std@@@std@@@2@@Z 00000001800264c0 f i Main.obj
 0001:00025538       ?erase@?$_Tree@V?$_Tmap_traits@IUIntAttribute@cldb@@U?$less@I@std@@V?$allocator@U?$pair@$$CBIUIntAttribute@cldb@@@std@@@4@$00@std@@@std@@QEAA?AV?$_Tree_iterator@V?$_Tree_val@U?$_Tree_simple_types@U?$pair@$$CBIUIntAttribute@cldb@@@std@@@std@@@std@@@2@V?$_Tree_const_iterator@V?$_Tree_val@U?$_Tree_simple_types@U?$pair@$$CBIUIntAttribute@cldb@@@std@@@std@@@std@@@2@0@Z 0000000180026538 f i Main.obj
 0001:000255ec       ?erase@?$_Tree@V?$_Tmap_traits@IUIntAttribute@cldb@@U?$less@I@std@@V?$allocator@U?$pair@$$CBIUIntAttribute@cldb@@@std@@@4@$00@std@@@std@@QEAA?AV?$_Tree_iterator@V?$_Tree_val@U?$_Tree_simple_types@U?$pair@$$CBIUIntAttribute@cldb@@@std@@@std@@@std@@@2@V?$_Tree_const_iterator@V?$_Tree_val@U?$_Tree_simple_types@U?$pair@$$CBIUIntAttribute@cldb@@@std@@@std@@@std@@@2@@Z 00000001800265ec f i Main.obj
 0001:00025684       ?erase@?$_Tree@V?$_Tmap_traits@IUName@cldb@@U?$less@I@std@@V?$allocator@U?$pair@$$CBIUName@cldb@@@std@@@4@$0A@@std@@@std@@QEAA?AV?$_Tree_iterator@V?$_Tree_val@U?$_Tree_simple_types@U?$pair@$$CBIUName@cldb@@@std@@@std@@@std@@@2@V?$_Tree_const_iterator@V?$_Tree_val@U?$_Tree_simple_types@U?$pair@$$CBIUName@cldb@@@std@@@std@@@std@@@2@0@Z 0000000180026684 f i Main.obj
 0001:00025738       ?erase@?$_Tree@V?$_Tmap_traits@IUName@cldb@@U?$less@I@std@@V?$allocator@U?$pair@$$CBIUName@cldb@@@std@@@4@$0A@@std@@@std@@QEAA?AV?$_Tree_iterator@V?$_Tree_val@U?$_Tree_simple_types@U?$pair@$$CBIUName@cldb@@@std@@@std@@@std@@@2@V?$_Tree_const_iterator@V?$_Tree_val@U?$_Tree_simple_types@U?$pair@$$CBIUName@cldb@@@std@@@std@@@std@@@2@@Z 0000000180026738 f i Main.obj
 0001:000257c8       ?erase@?$_Tree@V?$_Tmap_traits@IUNamespace@cldb@@U?$less@I@std@@V?$allocator@U?$pair@$$CBIUNamespace@cldb@@@std@@@4@$00@std@@@std@@QEAA?AV?$_Tree_iterator@V?$_Tree_val@U?$_Tree_simple_types@U?$pair@$$CBIUNamespace@cldb@@@std@@@std@@@std@@@2@V?$_Tree_const_iterator@V?$_Tree_val@U?$_Tree_simple_types@U?$pair@$$CBIUNamespace@cldb@@@std@@@std@@@std@@@2@0@Z 00000001800267c8 f i Main.obj
 0001:0002587c       ?erase@?$_Tree@V?$_Tmap_traits@IUNamespace@cldb@@U?$less@I@std@@V?$allocator@U?$pair@$$CBIUNamespace@cldb@@@std@@@4@$00@std@@@std@@QEAA?AV?$_Tree_iterator@V?$_Tree_val@U?$_Tree_simple_types@U?$pair@$$CBIUNamespace@cldb@@@std@@@std@@@std@@@2@V?$_Tree_const_iterator@V?$_Tree_val@U?$_Tree_simple_types@U?$pair@$$CBIUNamespace@cldb@@@std@@@std@@@std@@@2@@Z 000000018002687c f i Main.obj
 0001:0002590c       ?erase@?$_Tree@V?$_Tmap_traits@IUPrimitiveAttribute@cldb@@U?$less@I@std@@V?$allocator@U?$pair@$$CBIUPrimitiveAttribute@cldb@@@std@@@4@$00@std@@@std@@QEAA?AV?$_Tree_iterator@V?$_Tree_val@U?$_Tree_simple_types@U?$pair@$$CBIUPrimitiveAttribute@cldb@@@std@@@std@@@std@@@2@V?$_Tree_const_iterator@V?$_Tree_val@U?$_Tree_simple_types@U?$pair@$$CBIUPrimitiveAttribute@cldb@@@std@@@std@@@std@@@2@0@Z 000000018002690c f i Main.obj
 0001:000259c0       ?erase@?$_Tree@V?$_Tmap_traits@IUPrimitiveAttribute@cldb@@U?$less@I@std@@V?$allocator@U?$pair@$$CBIUPrimitiveAttribute@cldb@@@std@@@4@$00@std@@@std@@QEAA?AV?$_Tree_iterator@V?$_Tree_val@U?$_Tree_simple_types@U?$pair@$$CBIUPrimitiveAttribute@cldb@@@std@@@std@@@std@@@2@V?$_Tree_const_iterator@V?$_Tree_val@U?$_Tree_simple_types@U?$pair@$$CBIUPrimitiveAttribute@cldb@@@std@@@std@@@std@@@2@@Z 00000001800269c0 f i Main.obj
 0001:00025a50       ?erase@?$_Tree@V?$_Tmap_traits@IUTemplate@cldb@@U?$less@I@std@@V?$allocator@U?$pair@$$CBIUTemplate@cldb@@@std@@@4@$00@std@@@std@@QEAA?AV?$_Tree_iterator@V?$_Tree_val@U?$_Tree_simple_types@U?$pair@$$CBIUTemplate@cldb@@@std@@@std@@@std@@@2@V?$_Tree_const_iterator@V?$_Tree_val@U?$_Tree_simple_types@U?$pair@$$CBIUTemplate@cldb@@@std@@@std@@@std@@@2@0@Z 0000000180026a50 f i Main.obj
 0001:00025b04       ?erase@?$_Tree@V?$_Tmap_traits@IUTemplate@cldb@@U?$less@I@std@@V?$allocator@U?$pair@$$CBIUTemplate@cldb@@@std@@@4@$00@std@@@std@@QEAA?AV?$_Tree_iterator@V?$_Tree_val@U?$_Tree_simple_types@U?$pair@$$CBIUTemplate@cldb@@@std@@@std@@@std@@@2@V?$_Tree_const_iterator@V?$_Tree_val@U?$_Tree_simple_types@U?$pair@$$CBIUTemplate@cldb@@@std@@@std@@@std@@@2@@Z 0000000180026b04 f i Main.obj
 0001:00025b94       ?erase@?$_Tree@V?$_Tmap_traits@IUTemplateType@cldb@@U?$less@I@std@@V?$allocator@U?$pair@$$CBIUTemplateType@cldb@@@std@@@4@$00@std@@@std@@QEAA?AV?$_Tree_iterator@V?$_Tree_val@U?$_Tree_simple_types@U?$pair@$$CBIUTemplateType@cldb@@@std@@@std@@@std@@@2@V?$_Tree_const_iterator@V?$_Tree_val@U?$_Tree_simple_types@U?$pair@$$CBIUTemplateType@cldb@@@std@@@std@@@std@@@2@0@Z 0000000180026b94 f i Main.obj
 0001:00025c74       ?erase@?$_Tree@V?$_Tmap_traits@IUTemplateType@cldb@@U?$less@I@std@@V?$allocator@U?$pair@$$CBIUTemplateType@cldb@@@std@@@4@$00@std@@@std@@QEAA?AV?$_Tree_iterator@V?$_Tree_val@U?$_Tree_simple_types@U?$pair@$$CBIUTemplateType@cldb@@@std@@@std@@@std@@@2@V?$_Tree_const_iterator@V?$_Tree_val@U?$_Tree_simple_types@U?$pair@$$CBIUTemplateType@cldb@@@std@@@std@@@std@@@2@@Z 0000000180026c74 f i Main.obj
 0001:00025d34       ?erase@?$_Tree@V?$_Tmap_traits@IUTextAttribute@cldb@@U?$less@I@std@@V?$allocator@U?$pair@$$CBIUTextAttribute@cldb@@@std@@@4@$00@std@@@std@@QEAA?AV?$_Tree_iterator@V?$_Tree_val@U?$_Tree_simple_types@U?$pair@$$CBIUTextAttribute@cldb@@@std@@@std@@@std@@@2@V?$_Tree_const_iterator@V?$_Tree_val@U?$_Tree_simple_types@U?$pair@$$CBIUTextAttribute@cldb@@@std@@@std@@@std@@@2@0@Z 0000000180026d34 f i Main.obj
 0001:00025de8       ?erase@?$_Tree@V?$_Tmap_traits@IUTextAttribute@cldb@@U?$less@I@std@@V?$allocator@U?$pair@$$CBIUTextAttribute@cldb@@@std@@@4@$00@std@@@std@@QEAA?AV?$_Tree_iterator@V?$_Tree_val@U?$_Tree_simple_types@U?$pair@$$CBIUTextAttribute@cldb@@@std@@@std@@@std@@@2@V?$_Tree_const_iterator@V?$_Tree_val@U?$_Tree_simple_types@U?$pair@$$CBIUTextAttribute@cldb@@@std@@@std@@@std@@@2@@Z 0000000180026de8 f i Main.obj
 0001:00025e78       ?erase@?$_Tree@V?$_Tmap_traits@IUType@cldb@@U?$less@I@std@@V?$allocator@U?$pair@$$CBIUType@cldb@@@std@@@4@$00@std@@@std@@QEAA?AV?$_Tree_iterator@V?$_Tree_val@U?$_Tree_simple_types@U?$pair@$$CBIUType@cldb@@@std@@@std@@@std@@@2@V?$_Tree_const_iterator@V?$_Tree_val@U?$_Tree_simple_types@U?$pair@$$CBIUType@cldb@@@std@@@std@@@std@@@2@0@Z 0000000180026e78 f i Main.obj
 0001:00025f2c       ?erase@?$_Tree@V?$_Tmap_traits@IUType@cldb@@U?$less@I@std@@V?$allocator@U?$pair@$$CBIUType@cldb@@@std@@@4@$00@std@@@std@@QEAA?AV?$_Tree_iterator@V?$_Tree_val@U?$_Tree_simple_types@U?$pair@$$CBIUType@cldb@@@std@@@std@@@std@@@2@V?$_Tree_const_iterator@V?$_Tree_val@U?$_Tree_simple_types@U?$pair@$$CBIUType@cldb@@@std@@@std@@@std@@@2@@Z 0000000180026f2c f i Main.obj
 0001:00025fbc       ?erase@?$_Tree@V?$_Tmap_traits@IUTypeInheritance@cldb@@U?$less@I@std@@V?$allocator@U?$pair@$$CBIUTypeInheritance@cldb@@@std@@@4@$0A@@std@@@std@@QEAA?AV?$_Tree_iterator@V?$_Tree_val@U?$_Tree_simple_types@U?$pair@$$CBIUTypeInheritance@cldb@@@std@@@std@@@std@@@2@V?$_Tree_const_iterator@V?$_Tree_val@U?$_Tree_simple_types@U?$pair@$$CBIUTypeInheritance@cldb@@@std@@@std@@@std@@@2@0@Z 0000000180026fbc f i Main.obj
 0001:00026070       ?erase@?$_Tree@V?$_Tmap_traits@IUTypeInheritance@cldb@@U?$less@I@std@@V?$allocator@U?$pair@$$CBIUTypeInheritance@cldb@@@std@@@4@$0A@@std@@@std@@QEAA?AV?$_Tree_iterator@V?$_Tree_val@U?$_Tree_simple_types@U?$pair@$$CBIUTypeInheritance@cldb@@@std@@@std@@@std@@@2@V?$_Tree_const_iterator@V?$_Tree_val@U?$_Tree_simple_types@U?$pair@$$CBIUTypeInheritance@cldb@@@std@@@std@@@std@@@2@@Z 0000000180027070 f i Main.obj
 0001:00026100       c_clexport                 0000000180027100 f   Main.obj
 0001:00026180       main                       0000000180027180 f   Main.obj
 0001:00026860       ??$_Buynode@UPtrSchema@@@?$_List_buy@UPtrSchema@@V?$allocator@UPtrSchema@@@std@@@std@@QEAAPEAU?$_List_node@UPtrSchema@@PEAX@1@PEAU21@0$$QEAUPtrSchema@@@Z 0000000180027860 f i PtrRelocator.obj
 0001:000268d4       ??$_Emplace_reallocate@AEBUPtrRelocation@@@?$vector@UPtrRelocation@@V?$allocator@UPtrRelocation@@@std@@@std@@QEAAPEAUPtrRelocation@@QEAU2@AEBU2@@Z 00000001800278d4 f i PtrRelocator.obj
 0001:00026a28       ??$_Emplace_reallocate@PEAUPtrSchema@@@?$vector@PEAUPtrSchema@@V?$allocator@PEAUPtrSchema@@@std@@@std@@QEAAPEAPEAUPtrSchema@@QEAPEAU2@$$QEAPEAU2@@Z 0000000180027a28 f i PtrRelocator.obj
 0001:00026b2c       ??$_Insert@UPtrSchema@@@?$list@UPtrSchema@@V?$allocator@UPtrSchema@@@std@@@std@@QEAAXV?$_List_unchecked_const_iterator@V?$_List_val@U?$_List_simple_types@UPtrSchema@@@std@@@std@@U_Iterator_base0@2@@1@$$QEAUPtrSchema@@@Z 0000000180027b2c f i PtrRelocator.obj
 0001:00026b98       ??$_Insert_range@PEA_K@?$vector@_KV?$allocator@_K@std@@@std@@AEAAXV?$_Vector_const_iterator@V?$_Vector_val@U?$_Simple_types@_K@std@@@std@@@1@PEA_K1Uforward_iterator_tag@1@@Z 0000000180027b98 f i PtrRelocator.obj
 0001:00026da8       ??$_Move_unchecked@PEA_KPEA_K@std@@YAPEA_KPEA_K00@Z 0000000180027da8 f i PtrRelocator.obj
 0001:00026dd8       ??0PtrRelocator@@QEAA@PEBX_K@Z 0000000180027dd8 f   PtrRelocator.obj
 0001:00026e3c       ??1PtrSchema@@QEAA@XZ      0000000180027e3c f i PtrRelocator.obj
 0001:00026e9c       ?AddPointers@PtrRelocator@@QEAAXAEBUPtrSchema@@PEBXH@Z 0000000180027e9c f   PtrRelocator.obj
 0001:00026ef0       ?AddSchema@PtrRelocator@@QEAAAEAUPtrSchema@@_KPEAU2@@Z 0000000180027ef0 f   PtrRelocator.obj
 0001:00027014       ?MakeRelative@PtrRelocator@@QEAAXXZ 0000000180028014 f   PtrRelocator.obj
 0001:00027110       ?_Buynode0@?$_List_alloc@U?$_List_base_types@UPtrSchema@@V?$allocator@UPtrSchema@@@std@@@std@@@std@@QEAAPEAU?$_List_node@UPtrSchema@@PEAX@2@PEAU32@0@Z 0000000180028110 f i PtrRelocator.obj
 0001:0002715c       ?_Change_array@?$vector@PEAUPtrSchema@@V?$allocator@PEAUPtrSchema@@@std@@@std@@AEAAXQEAPEAUPtrSchema@@_K1@Z 000000018002815c f i PtrRelocator.obj
 0001:000271e4       ?_Change_array@?$vector@UPtrRelocation@@V?$allocator@UPtrRelocation@@@std@@@std@@AEAAXQEAUPtrRelocation@@_K1@Z 00000001800281e4 f i PtrRelocator.obj
 0001:00027298       ?_Getal@?$_Vector_alloc@U?$_Vec_base_types@_KV?$allocator@_K@std@@@std@@@std@@QEAAAEAV?$allocator@_K@2@XZ 0000000180028298 f i PtrRelocator.obj
 0001:0002729c       ?_Mylast@?$_Vector_alloc@U?$_Vec_base_types@_KV?$allocator@_K@std@@@std@@@std@@QEAAAEAPEA_KXZ 000000018002829c f i PtrRelocator.obj
 0001:000272a4       ?_Umove@?$vector@_KV?$allocator@_K@std@@@std@@AEAAPEA_KPEA_K00@Z 00000001800282a4 f i PtrRelocator.obj
 0001:000272d4       ?_Xlength@?$vector@PEAUPtrSchema@@V?$allocator@PEAUPtrSchema@@@std@@@std@@CAXXZ 00000001800282d4 f i PtrRelocator.obj
 0001:000272e8       ?_Xlength@?$vector@UPtrRelocation@@V?$allocator@UPtrRelocation@@@std@@@std@@CAXXZ 00000001800282e8 f i PtrRelocator.obj
 0001:000272fc       ?allocate@?$allocator@PEAUPtrSchema@@@std@@QEAAPEAPEAUPtrSchema@@_K@Z 00000001800282fc f i PtrRelocator.obj
 0001:0002736c       ?allocate@?$allocator@UPtrRelocation@@@std@@QEAAPEAUPtrRelocation@@_K@Z 000000018002836c f i PtrRelocator.obj
 0001:000273dc       ?deallocate@?$allocator@PEAUPtrSchema@@@std@@QEAAXQEAPEAUPtrSchema@@_K@Z 00000001800283dc f i PtrRelocator.obj
 0001:00027420       ?deallocate@?$allocator@U?$_List_node@UPtrSchema@@PEAX@std@@@std@@QEAAXQEAU?$_List_node@UPtrSchema@@PEAX@2@_K@Z 0000000180028420 f i PtrRelocator.obj
 0001:00027464       ?deallocate@?$allocator@UPtrRelocation@@@std@@QEAAXQEAUPtrRelocation@@_K@Z 0000000180028464 f i PtrRelocator.obj
 0001:000274a8       ??$?HDU?$char_traits@D@std@@V?$allocator@D@1@@std@@YA?AV?$basic_string@DU?$char_traits@D@std@@V?$allocator@D@2@@0@AEBV10@QEBD@Z 00000001800284a8 f i MapFileParser.obj
 0001:00027580       ??$Add@UField@cldb@@@Database@cldb@@QEAAXAEBUName@1@AEBUField@1@@Z 0000000180028580 f i MapFileParser.obj
 0001:00027600       ??$Add@UFunction@cldb@@@Database@cldb@@QEAAXAEBUName@1@AEBUFunction@1@@Z 0000000180028600 f i MapFileParser.obj
 0001:000276a8       ??$_Buynode@AEBUpiecewise_construct_t@std@@V?$tuple@AEBI@2@V?$tuple@$$V@2@@?$_Tree_comp_alloc@V?$_Tmap_traits@IUGetTypeFunctions@cldb@@U?$less@I@std@@V?$allocator@U?$pair@$$CBIUGetTypeFunctions@cldb@@@std@@@4@$0A@@std@@@std@@QEAAPEAU?$_Tree_node@U?$pair@$$CBIUGetTypeFunctions@cldb@@@std@@PEAX@1@AEBUpiecewise_construct_t@1@$$QEAV?$tuple@AEBI@1@$$QEAV?$tuple@$$V@1@@Z 00000001800286a8 f i MapFileParser.obj
 0001:000276e8       ??$_Buynode@U?$pair@$$CBIUField@cldb@@@std@@@?$_Tree_comp_alloc@V?$_Tmap_traits@IUField@cldb@@U?$less@I@std@@V?$allocator@U?$pair@$$CBIUField@cldb@@@std@@@4@$00@std@@@std@@QEAAPEAU?$_Tree_node@U?$pair@$$CBIUField@cldb@@@std@@PEAX@1@$$QEAU?$pair@$$CBIUField@cldb@@@1@@Z 00000001800286e8 f i MapFileParser.obj
 0001:00027738       ??$_Buynode@U?$pair@$$CBIUFunction@cldb@@@std@@@?$_Tree_comp_alloc@V?$_Tmap_traits@IUFunction@cldb@@U?$less@I@std@@V?$allocator@U?$pair@$$CBIUFunction@cldb@@@std@@@4@$00@std@@@std@@QEAAPEAU?$_Tree_node@U?$pair@$$CBIUFunction@cldb@@@std@@PEAX@1@$$QEAU?$pair@$$CBIUFunction@cldb@@@1@@Z 0000000180028738 f i MapFileParser.obj
 0001:000277a4       ??$_Emplace_reallocate@AEBUField@cldb@@@?$vector@UField@cldb@@V?$allocator@UField@cldb@@@std@@@std@@QEAAPEAUField@cldb@@QEAU23@AEBU23@@Z 00000001800287a4 f i MapFileParser.obj
 0001:00027974       ??$_Eqrange@I@?$_Tree@V?$_Tmap_traits@IUFunction@cldb@@U?$less@I@std@@V?$allocator@U?$pair@$$CBIUFunction@cldb@@@std@@@4@$00@std@@@std@@IEBA?AU?$pair@V?$_Tree_const_iterator@V?$_Tree_val@U?$_Tree_simple_types@U?$pair@$$CBIUFunction@cldb@@@std@@@std@@@std@@@std@@V12@@1@AEBI@Z 0000000180028974 f i MapFileParser.obj
 0001:000279e8       ??$_Insert_at@AEAU?$pair@$$CBIUGetTypeFunctions@cldb@@@std@@PEAU?$_Tree_node@U?$pair@$$CBIUGetTypeFunctions@cldb@@@std@@PEAX@2@@?$_Tree@V?$_Tmap_traits@IUGetTypeFunctions@cldb@@U?$less@I@std@@V?$allocator@U?$pair@$$CBIUGetTypeFunctions@cldb@@@std@@@4@$0A@@std@@@std@@IEAA?AV?$_Tree_iterator@V?$_Tree_val@U?$_Tree_simple_types@U?$pair@$$CBIUGetTypeFunctions@cldb@@@std@@@std@@@std@@@1@_NPEAU?$_Tree_node@U?$pair@$$CBIUGetTypeFunctions@cldb@@@std@@PEAX@1@AEAU?$pair@$$CBIUGetTypeFunctions@cldb@@@1@1@Z 00000001800289e8 f i MapFileParser.obj
 0001:00027c74       ??$_Insert_at@U?$pair@$$CBIUField@cldb@@@std@@U_Not_a_node_tag@2@@?$_Tree@V?$_Tmap_traits@IUField@cldb@@U?$less@I@std@@V?$allocator@U?$pair@$$CBIUField@cldb@@@std@@@4@$00@std@@@std@@IEAA?AV?$_Tree_iterator@V?$_Tree_val@U?$_Tree_simple_types@U?$pair@$$CBIUField@cldb@@@std@@@std@@@std@@@1@_NPEAU?$_Tree_node@U?$pair@$$CBIUField@cldb@@@std@@PEAX@1@$$QEAU?$pair@$$CBIUField@cldb@@@1@U_Not_a_node_tag@1@@Z 0000000180028c74 f i MapFileParser.obj
 0001:00027f10       ??$_Insert_at@U?$pair@$$CBIUFunction@cldb@@@std@@U_Not_a_node_tag@2@@?$_Tree@V?$_Tmap_traits@IUFunction@cldb@@U?$less@I@std@@V?$allocator@U?$pair@$$CBIUFunction@cldb@@@std@@@4@$00@std@@@std@@IEAA?AV?$_Tree_iterator@V?$_Tree_val@U?$_Tree_simple_types@U?$pair@$$CBIUFunction@cldb@@@std@@@std@@@std@@@1@_NPEAU?$_Tree_node@U?$pair@$$CBIUFunction@cldb@@@std@@PEAX@1@$$QEAU?$pair@$$CBIUFunction@cldb@@@1@U_Not_a_node_tag@1@@Z 0000000180028f10 f i MapFileParser.obj
 0001:000281ac       ??$_Insert_hint@AEAU?$pair@$$CBIUGetTypeFunctions@cldb@@@std@@PEAU?$_Tree_node@U?$pair@$$CBIUGetTypeFunctions@cldb@@@std@@PEAX@2@@?$_Tree@V?$_Tmap_traits@IUGetTypeFunctions@cldb@@U?$less@I@std@@V?$allocator@U?$pair@$$CBIUGetTypeFunctions@cldb@@@std@@@4@$0A@@std@@@std@@IEAA?AV?$_Tree_iterator@V?$_Tree_val@U?$_Tree_simple_types@U?$pair@$$CBIUGetTypeFunctions@cldb@@@std@@@std@@@std@@@1@V?$_Tree_const_iterator@V?$_Tree_val@U?$_Tree_simple_types@U?$pair@$$CBIUGetTypeFunctions@cldb@@@std@@@std@@@std@@@1@AEAU?$pair@$$CBIUGetTypeFunctions@cldb@@@1@PEAU?$_Tree_node@U?$pair@$$CBIUGetTypeFunctions@cldb@@@std@@PEAX@1@@Z 00000001800291ac f i MapFileParser.obj
 0001:000283c4       ??$_Insert_nohint@AEAU?$pair@$$CBIUGetTypeFunctions@cldb@@@std@@PEAU?$_Tree_node@U?$pair@$$CBIUGetTypeFunctions@cldb@@@std@@PEAX@2@@?$_Tree@V?$_Tmap_traits@IUGetTypeFunctions@cldb@@U?$less@I@std@@V?$allocator@U?$pair@$$CBIUGetTypeFunctions@cldb@@@std@@@4@$0A@@std@@@std@@IEAA?AU?$pair@V?$_Tree_iterator@V?$_Tree_val@U?$_Tree_simple_types@U?$pair@$$CBIUGetTypeFunctions@cldb@@@std@@@std@@@std@@@std@@_N@1@_NAEAU?$pair@$$CBIUGetTypeFunctions@cldb@@@1@PEAU?$_Tree_node@U?$pair@$$CBIUGetTypeFunctions@cldb@@@std@@PEAX@1@@Z 00000001800293c4 f i MapFileParser.obj
 0001:000284fc       ??$_Insert_nohint@U?$pair@$$CBIUField@cldb@@@std@@U_Not_a_node_tag@2@@?$_Tree@V?$_Tmap_traits@IUField@cldb@@U?$less@I@std@@V?$allocator@U?$pair@$$CBIUField@cldb@@@std@@@4@$00@std@@@std@@IEAA?AU?$pair@V?$_Tree_iterator@V?$_Tree_val@U?$_Tree_simple_types@U?$pair@$$CBIUField@cldb@@@std@@@std@@@std@@@std@@_N@1@_N$$QEAU?$pair@$$CBIUField@cldb@@@1@U_Not_a_node_tag@1@@Z 00000001800294fc f i MapFileParser.obj
 0001:00028580       ??$_Insert_nohint@U?$pair@$$CBIUFunction@cldb@@@std@@U_Not_a_node_tag@2@@?$_Tree@V?$_Tmap_traits@IUFunction@cldb@@U?$less@I@std@@V?$allocator@U?$pair@$$CBIUFunction@cldb@@@std@@@4@$00@std@@@std@@IEAA?AU?$pair@V?$_Tree_iterator@V?$_Tree_val@U?$_Tree_simple_types@U?$pair@$$CBIUFunction@cldb@@@std@@@std@@@std@@@std@@_N@1@_N$$QEAU?$pair@$$CBIUFunction@cldb@@@1@U_Not_a_node_tag@1@@Z 0000000180029580 f i MapFileParser.obj
 0001:00028604       ??$_Reallocate_grow_by@V<lambda_9013ee9e23efe4882b67eff5b0ecf103>@@$$V@?$basic_string@DU?$char_traits@D@std@@V?$allocator@D@2@@std@@QEAAAEAV01@_KV<lambda_9013ee9e23efe4882b67eff5b0ecf103>@@@Z 0000000180029604 f i MapFileParser.obj
 0001:00028738       ??$_Traits_find@U?$char_traits@D@std@@@std@@YA_KQEBD_K101@Z 0000000180029738 f i MapFileParser.obj
 0001:000287e4       ??$_Traits_rfind@U?$char_traits@D@std@@@std@@YA_KQEBD_K101@Z 00000001800297e4 f i MapFileParser.obj
 0001:00028868       ??$_Try_emplace@AEBI$$V@?$map@IUGetTypeFunctions@cldb@@U?$less@I@std@@V?$allocator@U?$pair@$$CBIUGetTypeFunctions@cldb@@@std@@@4@@std@@QEAA?AU?$pair@V?$_Tree_iterator@V?$_Tree_val@U?$_Tree_simple_types@U?$pair@$$CBIUGetTypeFunctions@cldb@@@std@@@std@@@std@@@std@@_N@1@AEBI@Z 0000000180029868 f i MapFileParser.obj
 0001:0002890c       ??0Field@cldb@@QEAA@$$QEAU01@@Z 000000018002990c f i MapFileParser.obj
 0001:00028994       ??0Field@cldb@@QEAA@AEBU01@@Z 0000000180029994 f i MapFileParser.obj
 0001:00028a14       ??0Field@cldb@@QEAA@UName@1@00UQualifier@1@HI@Z 0000000180029a14 f i MapFileParser.obj
 0001:00028c00       ??0Function@cldb@@QEAA@UName@1@0I@Z 0000000180029c00 f i MapFileParser.obj
 0001:00028d58       ??0MapFileParser@@QEAA@AEAVDatabase@cldb@@PEBD@Z 0000000180029d58 f   MapFileParser.obj
 0001:00028d7c       ??0Name@cldb@@QEAA@XZ      0000000180029d7c f i MapFileParser.obj
 0001:00028d94       ??0Primitive@cldb@@QEAA@$$QEAU01@@Z 0000000180029d94 f i MapFileParser.obj
 0001:00028e28       ??0Primitive@cldb@@QEAA@AEBU01@@Z 0000000180029e28 f i MapFileParser.obj
 0001:00028ea8       ??0Primitive@cldb@@QEAA@W4Kind@01@UName@1@1@Z 0000000180029ea8 f i MapFileParser.obj
 0001:00028fe0       ??1?$pair@$$CBIUField@cldb@@@std@@QEAA@XZ 0000000180029fe0 f i MapFileParser.obj
 0001:00028fec       ??1?$pair@$$CBIUFunction@cldb@@@std@@QEAA@XZ 0000000180029fec f i MapFileParser.obj
 0001:00028ff8       ??1?$vector@UField@cldb@@V?$allocator@UField@cldb@@@std@@@std@@QEAA@XZ 0000000180029ff8 f i MapFileParser.obj
 0001:00029000       ??1Function@cldb@@QEAA@XZ  000000018002a000 f i MapFileParser.obj
 0001:00029008       ??4?$basic_string@DU?$char_traits@D@std@@V?$allocator@D@2@@std@@QEAAAEAV01@$$QEAV01@@Z 000000018002a008 f i MapFileParser.obj
 0001:0002909c       ??4?$basic_string@DU?$char_traits@D@std@@V?$allocator@D@2@@std@@QEAAAEAV01@AEBV01@@Z 000000018002a09c f i MapFileParser.obj
 0001:00029110       ??F?$_Tree_unchecked_const_iterator@V?$_Tree_val@U?$_Tree_simple_types@U?$pair@$$CBIUGetTypeFunctions@cldb@@@std@@@std@@@std@@U_Iterator_base0@2@@std@@QEAAAEAV01@XZ 000000018002a110 f i MapFileParser.obj
 0001:0002afc0       ?_Become_small@?$basic_string@DU?$char_traits@D@std@@V?$allocator@D@2@@std@@QEAAXXZ 000000018002bfc0 f i MapFileParser.obj
 0001:0002b02c       ?_Buynode0@?$_Tree_comp_alloc@V?$_Tmap_traits@IUField@cldb@@U?$less@I@std@@V?$allocator@U?$pair@$$CBIUField@cldb@@@std@@@4@$00@std@@@std@@QEAAPEAU?$_Tree_node@U?$pair@$$CBIUField@cldb@@@std@@PEAX@2@XZ 000000018002c02c f i MapFileParser.obj
 0001:0002b06c       ?_Buynode0@?$_Tree_comp_alloc@V?$_Tmap_traits@IUFunction@cldb@@U?$less@I@std@@V?$allocator@U?$pair@$$CBIUFunction@cldb@@@std@@@4@$00@std@@@std@@QEAAPEAU?$_Tree_node@U?$pair@$$CBIUFunction@cldb@@@std@@PEAX@2@XZ 000000018002c06c f i MapFileParser.obj
 0001:0002b0ac       ?_Buynode0@?$_Tree_comp_alloc@V?$_Tmap_traits@IUGetTypeFunctions@cldb@@U?$less@I@std@@V?$allocator@U?$pair@$$CBIUGetTypeFunctions@cldb@@@std@@@4@$0A@@std@@@std@@QEAAPEAU?$_Tree_node@U?$pair@$$CBIUGetTypeFunctions@cldb@@@std@@PEAX@2@XZ 000000018002c0ac f i MapFileParser.obj
 0001:0002b0ec       ?_Change_array@?$vector@UField@cldb@@V?$allocator@UField@cldb@@@std@@@std@@AEAAXQEAUField@cldb@@_K1@Z 000000018002c0ec f i MapFileParser.obj
 0001:0002b1cc       ?_Destroy@?$vector@UField@cldb@@V?$allocator@UField@cldb@@@std@@@std@@AEAAXPEAUField@cldb@@0@Z 000000018002c1cc f i MapFileParser.obj
 0001:0002b200       ?_Destroy_if_node@?$_Tree@V?$_Tmap_traits@IUGetTypeFunctions@cldb@@U?$less@I@std@@V?$allocator@U?$pair@$$CBIUGetTypeFunctions@cldb@@@std@@@4@$0A@@std@@@std@@IEAAXPEAU?$_Tree_node@U?$pair@$$CBIUGetTypeFunctions@cldb@@@std@@PEAX@2@@Z 000000018002c200 f i MapFileParser.obj
 0001:0002b210       ?_Freenode0@?$_Tree_comp_alloc@V?$_Tmap_traits@IUField@cldb@@U?$less@I@std@@V?$allocator@U?$pair@$$CBIUField@cldb@@@std@@@4@$00@std@@@std@@QEAAXPEAU?$_Tree_node@U?$pair@$$CBIUField@cldb@@@std@@PEAX@2@@Z 000000018002c210 f i MapFileParser.obj
 0001:0002b220       ?_Freenode0@?$_Tree_comp_alloc@V?$_Tmap_traits@IUFunction@cldb@@U?$less@I@std@@V?$allocator@U?$pair@$$CBIUFunction@cldb@@@std@@@4@$00@std@@@std@@QEAAXPEAU?$_Tree_node@U?$pair@$$CBIUFunction@cldb@@@std@@PEAX@2@@Z 000000018002c220 f i MapFileParser.obj
 0001:0002b230       ?_Freenode0@?$_Tree_comp_alloc@V?$_Tmap_traits@IUGetTypeFunctions@cldb@@U?$less@I@std@@V?$allocator@U?$pair@$$CBIUGetTypeFunctions@cldb@@@std@@@4@$0A@@std@@@std@@QEAAXPEAU?$_Tree_node@U?$pair@$$CBIUGetTypeFunctions@cldb@@@std@@PEAX@2@@Z 000000018002c230 f i MapFileParser.obj
 0001:0002b240       ?_Tidy@?$vector@UField@cldb@@V?$allocator@UField@cldb@@@std@@@std@@AEAAXXZ 000000018002c240 f i MapFileParser.obj
 0001:0002b2f8       ?_Xlength@?$vector@UField@cldb@@V?$allocator@UField@cldb@@@std@@@std@@CAXXZ 000000018002c2f8 f i MapFileParser.obj
 0001:0002b30c       ?allocate@?$allocator@UField@cldb@@@std@@QEAAPEAUField@cldb@@_K@Z 000000018002c30c f i MapFileParser.obj
 0001:0002b37c       ?assign@?$basic_string@DU?$char_traits@D@std@@V?$allocator@D@2@@std@@QEAAAEAV12@AEBV12@_K_K@Z 000000018002c37c f i MapFileParser.obj
 0001:0002b404       ?deallocate@?$allocator@U?$_Tree_node@U?$pair@$$CBIUField@cldb@@@std@@PEAX@std@@@std@@QEAAXQEAU?$_Tree_node@U?$pair@$$CBIUField@cldb@@@std@@PEAX@2@_K@Z 000000018002c404 f i MapFileParser.obj
 0001:0002b448       ?deallocate@?$allocator@U?$_Tree_node@U?$pair@$$CBIUFunction@cldb@@@std@@PEAX@std@@@std@@QEAAXQEAU?$_Tree_node@U?$pair@$$CBIUFunction@cldb@@@std@@PEAX@2@_K@Z 000000018002c448 f i MapFileParser.obj
 0001:0002b48c       ?deallocate@?$allocator@U?$_Tree_node@U?$pair@$$CBIUGetTypeFunctions@cldb@@@std@@PEAX@std@@@std@@QEAAXQEAU?$_Tree_node@U?$pair@$$CBIUGetTypeFunctions@cldb@@@std@@PEAX@2@_K@Z 000000018002c48c f i MapFileParser.obj
 0001:0002b4d0       ?deallocate@?$allocator@UField@cldb@@@std@@QEAAXQEAUField@cldb@@_K@Z 000000018002c4d0 f i MapFileParser.obj
 0001:0002b514       ??$_Reallocate_grow_by@V<lambda_16d2cb92461ac9818af78a76c749bd7f>@@_K_KPEBD_K@?$basic_string@DU?$char_traits@D@std@@V?$allocator@D@2@@std@@QEAAAEAV01@_KV<lambda_16d2cb92461ac9818af78a76c749bd7f>@@_K2PEBD2@Z 000000018002c514 f i clReflectCore:FileUtils.obj
 0001:0002b6c0       ?ConsumeToken@@YAPEBDPEBDDPEADH@Z 000000018002c6c0 f   clReflectCore:FileUtils.obj
 0001:0002b6e8       ?ReadLine@@YAPEADPEAU_iobuf@@@Z 000000018002c6e8 f   clReflectCore:FileUtils.obj
 0001:0002b794       ?SkipWhitespace@@YAPEBDPEBD@Z 000000018002c794 f   clReflectCore:FileUtils.obj
 0001:0002b7ac       ?StringReplace@@YA?AV?$basic_string@DU?$char_traits@D@std@@V?$allocator@D@2@@std@@AEBV12@00@Z 000000018002c7ac f   clReflectCore:FileUtils.obj
 0001:0002b88c       ?hextoi64@@YA_KPEBD@Z      000000018002c88c f   clReflectCore:FileUtils.obj
 0001:0002b914       ?hextoi@@YAIPEBD@Z         000000018002c914 f   clReflectCore:FileUtils.obj
 0001:0002b990       ?itoa@@YAPEBDI@Z           000000018002c990 f   clReflectCore:FileUtils.obj
 0001:0002b9b8       ?itohex@@YAPEBDI@Z         000000018002c9b8 f   clReflectCore:FileUtils.obj
 0001:0002ba08       ?replace@?$basic_string@DU?$char_traits@D@std@@V?$allocator@D@2@@std@@QEAAAEAV12@_K_KQEBD0@Z 000000018002ca08 f i clReflectCore:FileUtils.obj
 0001:0002bb8c       ?startswith@@YA_NAEBV?$basic_string@DU?$char_traits@D@std@@V?$allocator@D@2@@std@@PEBD@Z 000000018002cb8c f   clReflectCore:FileUtils.obj
 0001:0002bb9c       ?startswith@@YA_NPEBD0@Z   000000018002cb9c f   clReflectCore:FileUtils.obj
 0001:0002c748       ?GetStreamHandle@logging@@YAPEAXPEBD@Z 000000018002d748 f   clReflectCore:Logging.obj
 0001:0002c7e4       ?Log@logging@@YAXPEAXW4Tag@1@_NPEBDZZ 000000018002d7e4 f   clReflectCore:Logging.obj
 0001:0002c928       ?PopIndent@logging@@YAXPEAX@Z 000000018002d928 f   clReflectCore:Logging.obj
 0001:0002c92c       ?PushIndent@logging@@YAXPEAX@Z 000000018002d92c f   clReflectCore:Logging.obj
 0001:0002c930       ?SetLogToFile@logging@@YAXPEBDW4Tag@1@0@Z 000000018002d930 f   clReflectCore:Logging.obj
 0001:0002c9b0       ?SetLogToStdout@logging@@YAXPEBDW4Tag@1@@Z 000000018002d9b0 f   clReflectCore:Logging.obj
 0001:0002cb08       __local_stdio_printf_options 000000018002db08 f i clReflectCore:Logging.obj
 0001:0002cb10       ??$Add@UType@cldb@@@Database@cldb@@QEAAXAEBUName@1@AEBUType@1@@Z 000000018002db10 f i clReflectCore:Database.obj
 0001:0002cba8       ??$_Buynode@AEBUpiecewise_construct_t@std@@V?$tuple@AEBI@2@V?$tuple@$$V@2@@?$_Tree_comp_alloc@V?$_Tmap_traits@IUContainerInfo@cldb@@U?$less@I@std@@V?$allocator@U?$pair@$$CBIUContainerInfo@cldb@@@std@@@4@$0A@@std@@@std@@QEAAPEAU?$_Tree_node@U?$pair@$$CBIUContainerInfo@cldb@@@std@@PEAX@1@AEBUpiecewise_construct_t@1@$$QEAV?$tuple@AEBI@1@$$QEAV?$tuple@$$V@1@@Z 000000018002dba8 f i clReflectCore:Database.obj
 0001:0002cc28       ??$_Buynode@AEBUpiecewise_construct_t@std@@V?$tuple@AEBI@2@V?$tuple@$$V@2@@?$_Tree_comp_alloc@V?$_Tmap_traits@IUTypeInheritance@cldb@@U?$less@I@std@@V?$allocator@U?$pair@$$CBIUTypeInheritance@cldb@@@std@@@4@$0A@@std@@@std@@QEAAPEAU?$_Tree_node@U?$pair@$$CBIUTypeInheritance@cldb@@@std@@PEAX@1@AEBUpiecewise_construct_t@1@$$QEAV?$tuple@AEBI@1@$$QEAV?$tuple@$$V@1@@Z 000000018002dc28 f i clReflectCore:Database.obj
 0001:0002cca0       ??$_Buynode@U?$pair@$$CBIUName@cldb@@@std@@@?$_Tree_comp_alloc@V?$_Tmap_traits@IUName@cldb@@U?$less@I@std@@V?$allocator@U?$pair@$$CBIUName@cldb@@@std@@@4@$0A@@std@@@std@@QEAAPEAU?$_Tree_node@U?$pair@$$CBIUName@cldb@@@std@@PEAX@1@$$QEAU?$pair@$$CBIUName@cldb@@@1@@Z 000000018002dca0 f i clReflectCore:Database.obj
 0001:0002cd14       ??$_Buynode@U?$pair@$$CBIUType@cldb@@@std@@@?$_Tree_comp_alloc@V?$_Tmap_traits@IUType@cldb@@U?$less@I@std@@V?$allocator@U?$pair@$$CBIUType@cldb@@@std@@@4@$00@std@@@std@@QEAAPEAU?$_Tree_node@U?$pair@$$CBIUType@cldb@@@std@@PEAX@1@$$QEAU?$pair@$$CBIUType@cldb@@@1@@Z 000000018002dd14 f i clReflectCore:Database.obj
 0001:0002cd74       ??$_Insert_at@AEAU?$pair@$$CBIUContainerInfo@cldb@@@std@@PEAU?$_Tree_node@U?$pair@$$CBIUContainerInfo@cldb@@@std@@PEAX@2@@?$_Tree@V?$_Tmap_traits@IUContainerInfo@cldb@@U?$less@I@std@@V?$allocator@U?$pair@$$CBIUContainerInfo@cldb@@@std@@@4@$0A@@std@@@std@@IEAA?AV?$_Tree_iterator@V?$_Tree_val@U?$_Tree_simple_types@U?$pair@$$CBIUContainerInfo@cldb@@@std@@@std@@@std@@@1@_NPEAU?$_Tree_node@U?$pair@$$CBIUContainerInfo@cldb@@@std@@PEAX@1@AEAU?$pair@$$CBIUContainerInfo@cldb@@@1@1@Z 000000018002dd74 f i clReflectCore:Database.obj
 0001:0002d000       ??$_Insert_at@AEAU?$pair@$$CBIUTypeInheritance@cldb@@@std@@PEAU?$_Tree_node@U?$pair@$$CBIUTypeInheritance@cldb@@@std@@PEAX@2@@?$_Tree@V?$_Tmap_traits@IUTypeInheritance@cldb@@U?$less@I@std@@V?$allocator@U?$pair@$$CBIUTypeInheritance@cldb@@@std@@@4@$0A@@std@@@std@@IEAA?AV?$_Tree_iterator@V?$_Tree_val@U?$_Tree_simple_types@U?$pair@$$CBIUTypeInheritance@cldb@@@std@@@std@@@std@@@1@_NPEAU?$_Tree_node@U?$pair@$$CBIUTypeInheritance@cldb@@@std@@PEAX@1@AEAU?$pair@$$CBIUTypeInheritance@cldb@@@1@1@Z 000000018002e000 f i clReflectCore:Database.obj
 0001:0002d28c       ??$_Insert_at@U?$pair@$$CBIUName@cldb@@@std@@U_Not_a_node_tag@2@@?$_Tree@V?$_Tmap_traits@IUName@cldb@@U?$less@I@std@@V?$allocator@U?$pair@$$CBIUName@cldb@@@std@@@4@$0A@@std@@@std@@IEAA?AV?$_Tree_iterator@V?$_Tree_val@U?$_Tree_simple_types@U?$pair@$$CBIUName@cldb@@@std@@@std@@@std@@@1@_NPEAU?$_Tree_node@U?$pair@$$CBIUName@cldb@@@std@@PEAX@1@$$QEAU?$pair@$$CBIUName@cldb@@@1@U_Not_a_node_tag@1@@Z 000000018002e28c f i clReflectCore:Database.obj
 0001:0002d528       ??$_Insert_at@U?$pair@$$CBIUType@cldb@@@std@@U_Not_a_node_tag@2@@?$_Tree@V?$_Tmap_traits@IUType@cldb@@U?$less@I@std@@V?$allocator@U?$pair@$$CBIUType@cldb@@@std@@@4@$00@std@@@std@@IEAA?AV?$_Tree_iterator@V?$_Tree_val@U?$_Tree_simple_types@U?$pair@$$CBIUType@cldb@@@std@@@std@@@std@@@1@_NPEAU?$_Tree_node@U?$pair@$$CBIUType@cldb@@@std@@PEAX@1@$$QEAU?$pair@$$CBIUType@cldb@@@1@U_Not_a_node_tag@1@@Z 000000018002e528 f i clReflectCore:Database.obj
 0001:0002d7c4       ??$_Insert_hint@AEAU?$pair@$$CBIUContainerInfo@cldb@@@std@@PEAU?$_Tree_node@U?$pair@$$CBIUContainerInfo@cldb@@@std@@PEAX@2@@?$_Tree@V?$_Tmap_traits@IUContainerInfo@cldb@@U?$less@I@std@@V?$allocator@U?$pair@$$CBIUContainerInfo@cldb@@@std@@@4@$0A@@std@@@std@@IEAA?AV?$_Tree_iterator@V?$_Tree_val@U?$_Tree_simple_types@U?$pair@$$CBIUContainerInfo@cldb@@@std@@@std@@@std@@@1@V?$_Tree_const_iterator@V?$_Tree_val@U?$_Tree_simple_types@U?$pair@$$CBIUContainerInfo@cldb@@@std@@@std@@@std@@@1@AEAU?$pair@$$CBIUContainerInfo@cldb@@@1@PEAU?$_Tree_node@U?$pair@$$CBIUContainerInfo@cldb@@@std@@PEAX@1@@Z 000000018002e7c4 f i clReflectCore:Database.obj
 0001:0002d9dc       ??$_Insert_hint@AEAU?$pair@$$CBIUTypeInheritance@cldb@@@std@@PEAU?$_Tree_node@U?$pair@$$CBIUTypeInheritance@cldb@@@std@@PEAX@2@@?$_Tree@V?$_Tmap_traits@IUTypeInheritance@cldb@@U?$less@I@std@@V?$allocator@U?$pair@$$CBIUTypeInheritance@cldb@@@std@@@4@$0A@@std@@@std@@IEAA?AV?$_Tree_iterator@V?$_Tree_val@U?$_Tree_simple_types@U?$pair@$$CBIUTypeInheritance@cldb@@@std@@@std@@@std@@@1@V?$_Tree_const_iterator@V?$_Tree_val@U?$_Tree_simple_types@U?$pair@$$CBIUTypeInheritance@cldb@@@std@@@std@@@std@@@1@AEAU?$pair@$$CBIUTypeInheritance@cldb@@@1@PEAU?$_Tree_node@U?$pair@$$CBIUTypeInheritance@cldb@@@std@@PEAX@1@@Z 000000018002e9dc f i clReflectCore:Database.obj
 0001:0002dbf4       ??$_Insert_nohint@AEAU?$pair@$$CBIUContainerInfo@cldb@@@std@@PEAU?$_Tree_node@U?$pair@$$CBIUContainerInfo@cldb@@@std@@PEAX@2@@?$_Tree@V?$_Tmap_traits@IUContainerInfo@cldb@@U?$less@I@std@@V?$allocator@U?$pair@$$CBIUContainerInfo@cldb@@@std@@@4@$0A@@std@@@std@@IEAA?AU?$pair@V?$_Tree_iterator@V?$_Tree_val@U?$_Tree_simple_types@U?$pair@$$CBIUContainerInfo@cldb@@@std@@@std@@@std@@@std@@_N@1@_NAEAU?$pair@$$CBIUContainerInfo@cldb@@@1@PEAU?$_Tree_node@U?$pair@$$CBIUContainerInfo@cldb@@@std@@PEAX@1@@Z 000000018002ebf4 f i clReflectCore:Database.obj
 0001:0002dd28       ??$_Insert_nohint@AEAU?$pair@$$CBIUTypeInheritance@cldb@@@std@@PEAU?$_Tree_node@U?$pair@$$CBIUTypeInheritance@cldb@@@std@@PEAX@2@@?$_Tree@V?$_Tmap_traits@IUTypeInheritance@cldb@@U?$less@I@std@@V?$allocator@U?$pair@$$CBIUTypeInheritance@cldb@@@std@@@4@$0A@@std@@@std@@IEAA?AU?$pair@V?$_Tree_iterator@V?$_Tree_val@U?$_Tree_simple_types@U?$pair@$$CBIUTypeInheritance@cldb@@@std@@@std@@@std@@@std@@_N@1@_NAEAU?$pair@$$CBIUTypeInheritance@cldb@@@1@PEAU?$_Tree_node@U?$pair@$$CBIUTypeInheritance@cldb@@@std@@PEAX@1@@Z 000000018002ed28 f i clReflectCore:Database.obj
 0001:0002de5c       ??$_Insert_nohint@U?$pair@$$CBIUName@cldb@@@std@@U_Not_a_node_tag@2@@?$_Tree@V?$_Tmap_traits@IUName@cldb@@U?$less@I@std@@V?$allocator@U?$pair@$$CBIUName@cldb@@@std@@@4@$0A@@std@@@std@@IEAA?AU?$pair@V?$_Tree_iterator@V?$_Tree_val@U?$_Tree_simple_types@U?$pair@$$CBIUName@cldb@@@std@@@std@@@std@@@std@@_N@1@_N$$QEAU?$pair@$$CBIUName@cldb@@@1@U_Not_a_node_tag@1@@Z 000000018002ee5c f i clReflectCore:Database.obj
 0001:0002df70       ??$_Insert_nohint@U?$pair@$$CBIUType@cldb@@@std@@U_Not_a_node_tag@2@@?$_Tree@V?$_Tmap_traits@IUType@cldb@@U?$less@I@std@@V?$allocator@U?$pair@$$CBIUType@cldb@@@std@@@4@$00@std@@@std@@IEAA?AU?$pair@V?$_Tree_iterator@V?$_Tree_val@U?$_Tree_simple_types@U?$pair@$$CBIUType@cldb@@@std@@@std@@@std@@@std@@_N@1@_N$$QEAU?$pair@$$CBIUType@cldb@@@1@U_Not_a_node_tag@1@@Z 000000018002ef70 f i clReflectCore:Database.obj
 0001:0002dff4       ??$_Try_emplace@AEBI$$V@?$map@IUContainerInfo@cldb@@U?$less@I@std@@V?$allocator@U?$pair@$$CBIUContainerInfo@cldb@@@std@@@4@@std@@QEAA?AU?$pair@V?$_Tree_iterator@V?$_Tree_val@U?$_Tree_simple_types@U?$pair@$$CBIUContainerInfo@cldb@@@std@@@std@@@std@@@std@@_N@1@AEBI@Z 000000018002eff4 f i clReflectCore:Database.obj
 0001:0002e098       ??$_Try_emplace@AEBI$$V@?$map@IUTypeInheritance@cldb@@U?$less@I@std@@V?$allocator@U?$pair@$$CBIUTypeInheritance@cldb@@@std@@@4@@std@@QEAA?AU?$pair@V?$_Tree_iterator@V?$_Tree_val@U?$_Tree_simple_types@U?$pair@$$CBIUTypeInheritance@cldb@@@std@@@std@@@std@@@std@@_N@1@AEBI@Z 000000018002f098 f i clReflectCore:Database.obj
 0001:0002e13c       ??0Database@cldb@@QEAA@XZ  000000018002f13c f   clReflectCore:Database.obj
 0001:0002e368       ??0Type@cldb@@QEAA@UName@1@0K@Z 000000018002f368 f i clReflectCore:Database.obj
 0001:0002e4bc       ??1?$DBMap@UClass@cldb@@@cldb@@QEAA@XZ 000000018002f4bc f i clReflectCore:Database.obj
 0001:0002e4e8       ??1?$DBMap@UContainerInfo@cldb@@@cldb@@QEAA@XZ 000000018002f4e8 f i clReflectCore:Database.obj
 0001:0002e514       ??1?$DBMap@UEnum@cldb@@@cldb@@QEAA@XZ 000000018002f514 f i clReflectCore:Database.obj
 0001:0002e540       ??1?$DBMap@UEnumConstant@cldb@@@cldb@@QEAA@XZ 000000018002f540 f i clReflectCore:Database.obj
 0001:0002e56c       ??1?$DBMap@UField@cldb@@@cldb@@QEAA@XZ 000000018002f56c f i clReflectCore:Database.obj
 0001:0002e598       ??1?$DBMap@UFlagAttribute@cldb@@@cldb@@QEAA@XZ 000000018002f598 f i clReflectCore:Database.obj
 0001:0002e5c4       ??1?$DBMap@UFloatAttribute@cldb@@@cldb@@QEAA@XZ 000000018002f5c4 f i clReflectCore:Database.obj
 0001:0002e5f0       ??1?$DBMap@UFunction@cldb@@@cldb@@QEAA@XZ 000000018002f5f0 f i clReflectCore:Database.obj
 0001:0002e61c       ??1?$DBMap@UIntAttribute@cldb@@@cldb@@QEAA@XZ 000000018002f61c f i clReflectCore:Database.obj
 0001:0002e648       ??1?$DBMap@UNamespace@cldb@@@cldb@@QEAA@XZ 000000018002f648 f i clReflectCore:Database.obj
 0001:0002e674       ??1?$DBMap@UPrimitiveAttribute@cldb@@@cldb@@QEAA@XZ 000000018002f674 f i clReflectCore:Database.obj
 0001:0002e6a0       ??1?$DBMap@UTemplate@cldb@@@cldb@@QEAA@XZ 000000018002f6a0 f i clReflectCore:Database.obj
 0001:0002e6cc       ??1?$DBMap@UTemplateType@cldb@@@cldb@@QEAA@XZ 000000018002f6cc f i clReflectCore:Database.obj
 0001:0002e704       ??1?$DBMap@UTextAttribute@cldb@@@cldb@@QEAA@XZ 000000018002f704 f i clReflectCore:Database.obj
 0001:0002e730       ??1?$DBMap@UType@cldb@@@cldb@@QEAA@XZ 000000018002f730 f i clReflectCore:Database.obj
 0001:0002e75c       ??1?$DBMap@UTypeInheritance@cldb@@@cldb@@QEAA@XZ 000000018002f75c f i clReflectCore:Database.obj
 0001:0002e788       ??1?$map@IUName@cldb@@U?$less@I@std@@V?$allocator@U?$pair@$$CBIUName@cldb@@@std@@@4@@std@@QEAA@XZ 000000018002f788 f i clReflectCore:Database.obj
 0001:0002e7b4       ??1?$pair@$$CBIUName@cldb@@@std@@QEAA@XZ 000000018002f7b4 f i clReflectCore:Database.obj
 0001:0002e814       ??1?$pair@$$CBIUType@cldb@@@std@@QEAA@XZ 000000018002f814 f i clReflectCore:Database.obj
 0001:0002e820       ??1Type@cldb@@QEAA@XZ      000000018002f820 f i clReflectCore:Database.obj
 0001:0002e828       ??F?$_Tree_unchecked_const_iterator@V?$_Tree_val@U?$_Tree_simple_types@U?$pair@$$CBIUContainerInfo@cldb@@@std@@@std@@@std@@U_Iterator_base0@2@@std@@QEAAAEAV01@XZ 000000018002f828 f i clReflectCore:Database.obj
 0001:0002e89c       ??F?$_Tree_unchecked_const_iterator@V?$_Tree_val@U?$_Tree_simple_types@U?$pair@$$CBIUName@cldb@@@std@@@std@@@std@@U_Iterator_base0@2@@std@@QEAAAEAV01@XZ 000000018002f89c f i clReflectCore:Database.obj
 0001:0002e910       ??F?$_Tree_unchecked_const_iterator@V?$_Tree_val@U?$_Tree_simple_types@U?$pair@$$CBIUTypeInheritance@cldb@@@std@@@std@@@std@@U_Iterator_base0@2@@std@@QEAAAEAV01@XZ 000000018002f910 f i clReflectCore:Database.obj
 0001:0002e984       ?AddBaseTypePrimitives@Database@cldb@@QEAAXXZ 000000018002f984 f   clReflectCore:Database.obj
 0001:0002f234       ?AddContainerInfo@Database@cldb@@QEAAXAEBV?$basic_string@DU?$char_traits@D@std@@V?$allocator@D@2@@std@@00_N@Z 0000000180030234 f   clReflectCore:Database.obj
 0001:0002f3a0       ?AddTypeInheritance@Database@cldb@@QEAAXAEBUName@2@0@Z 00000001800303a0 f   clReflectCore:Database.obj
 0001:0002f70c       ?CalculateFunctionUniqueID@cldb@@YAIAEBV?$vector@UField@cldb@@V?$allocator@UField@cldb@@@std@@@std@@@Z 000000018003070c f   clReflectCore:Database.obj
 0001:0002f7b4       ?GetName@Database@cldb@@QEAAAEBUName@2@PEBD@Z 00000001800307b4 f   clReflectCore:Database.obj
 0001:0002fa20       ?GetName@Database@cldb@@QEBAAEBUName@2@I@Z 0000000180030a20 f   clReflectCore:Database.obj
 0001:0002fadc       ?_Buyheadnode@?$_Tree_comp_alloc@V?$_Tmap_traits@IUClass@cldb@@U?$less@I@std@@V?$allocator@U?$pair@$$CBIUClass@cldb@@@std@@@4@$00@std@@@std@@QEAAPEAU?$_Tree_node@U?$pair@$$CBIUClass@cldb@@@std@@PEAX@2@XZ 0000000180030adc f i clReflectCore:Database.obj
 0001:0002fb14       ?_Buyheadnode@?$_Tree_comp_alloc@V?$_Tmap_traits@IUContainerInfo@cldb@@U?$less@I@std@@V?$allocator@U?$pair@$$CBIUContainerInfo@cldb@@@std@@@4@$0A@@std@@@std@@QEAAPEAU?$_Tree_node@U?$pair@$$CBIUContainerInfo@cldb@@@std@@PEAX@2@XZ 0000000180030b14 f i clReflectCore:Database.obj
 0001:0002fb4c       ?_Buyheadnode@?$_Tree_comp_alloc@V?$_Tmap_traits@IUEnum@cldb@@U?$less@I@std@@V?$allocator@U?$pair@$$CBIUEnum@cldb@@@std@@@4@$00@std@@@std@@QEAAPEAU?$_Tree_node@U?$pair@$$CBIUEnum@cldb@@@std@@PEAX@2@XZ 0000000180030b4c f i clReflectCore:Database.obj
 0001:0002fb84       ?_Buyheadnode@?$_Tree_comp_alloc@V?$_Tmap_traits@IUEnumConstant@cldb@@U?$less@I@std@@V?$allocator@U?$pair@$$CBIUEnumConstant@cldb@@@std@@@4@$00@std@@@std@@QEAAPEAU?$_Tree_node@U?$pair@$$CBIUEnumConstant@cldb@@@std@@PEAX@2@XZ 0000000180030b84 f i clReflectCore:Database.obj
 0001:0002fbbc       ?_Buyheadnode@?$_Tree_comp_alloc@V?$_Tmap_traits@IUField@cldb@@U?$less@I@std@@V?$allocator@U?$pair@$$CBIUField@cldb@@@std@@@4@$00@std@@@std@@QEAAPEAU?$_Tree_node@U?$pair@$$CBIUField@cldb@@@std@@PEAX@2@XZ 0000000180030bbc f i clReflectCore:Database.obj
 0001:0002fbf4       ?_Buyheadnode@?$_Tree_comp_alloc@V?$_Tmap_traits@IUFlagAttribute@cldb@@U?$less@I@std@@V?$allocator@U?$pair@$$CBIUFlagAttribute@cldb@@@std@@@4@$00@std@@@std@@QEAAPEAU?$_Tree_node@U?$pair@$$CBIUFlagAttribute@cldb@@@std@@PEAX@2@XZ 0000000180030bf4 f i clReflectCore:Database.obj
 0001:0002fc2c       ?_Buyheadnode@?$_Tree_comp_alloc@V?$_Tmap_traits@IUFloatAttribute@cldb@@U?$less@I@std@@V?$allocator@U?$pair@$$CBIUFloatAttribute@cldb@@@std@@@4@$00@std@@@std@@QEAAPEAU?$_Tree_node@U?$pair@$$CBIUFloatAttribute@cldb@@@std@@PEAX@2@XZ 0000000180030c2c f i clReflectCore:Database.obj
 0001:0002fc64       ?_Buyheadnode@?$_Tree_comp_alloc@V?$_Tmap_traits@IUFunction@cldb@@U?$less@I@std@@V?$allocator@U?$pair@$$CBIUFunction@cldb@@@std@@@4@$00@std@@@std@@QEAAPEAU?$_Tree_node@U?$pair@$$CBIUFunction@cldb@@@std@@PEAX@2@XZ 0000000180030c64 f i clReflectCore:Database.obj
 0001:0002fc9c       ?_Buyheadnode@?$_Tree_comp_alloc@V?$_Tmap_traits@IUGetTypeFunctions@cldb@@U?$less@I@std@@V?$allocator@U?$pair@$$CBIUGetTypeFunctions@cldb@@@std@@@4@$0A@@std@@@std@@QEAAPEAU?$_Tree_node@U?$pair@$$CBIUGetTypeFunctions@cldb@@@std@@PEAX@2@XZ 0000000180030c9c f i clReflectCore:Database.obj
 0001:0002fcd4       ?_Buyheadnode@?$_Tree_comp_alloc@V?$_Tmap_traits@IUIntAttribute@cldb@@U?$less@I@std@@V?$allocator@U?$pair@$$CBIUIntAttribute@cldb@@@std@@@4@$00@std@@@std@@QEAAPEAU?$_Tree_node@U?$pair@$$CBIUIntAttribute@cldb@@@std@@PEAX@2@XZ 0000000180030cd4 f i clReflectCore:Database.obj
 0001:0002fd0c       ?_Buyheadnode@?$_Tree_comp_alloc@V?$_Tmap_traits@IUName@cldb@@U?$less@I@std@@V?$allocator@U?$pair@$$CBIUName@cldb@@@std@@@4@$0A@@std@@@std@@QEAAPEAU?$_Tree_node@U?$pair@$$CBIUName@cldb@@@std@@PEAX@2@XZ 0000000180030d0c f i clReflectCore:Database.obj
 0001:0002fd44       ?_Buyheadnode@?$_Tree_comp_alloc@V?$_Tmap_traits@IUNamespace@cldb@@U?$less@I@std@@V?$allocator@U?$pair@$$CBIUNamespace@cldb@@@std@@@4@$00@std@@@std@@QEAAPEAU?$_Tree_node@U?$pair@$$CBIUNamespace@cldb@@@std@@PEAX@2@XZ 0000000180030d44 f i clReflectCore:Database.obj
 0001:0002fd7c       ?_Buyheadnode@?$_Tree_comp_alloc@V?$_Tmap_traits@IUPrimitiveAttribute@cldb@@U?$less@I@std@@V?$allocator@U?$pair@$$CBIUPrimitiveAttribute@cldb@@@std@@@4@$00@std@@@std@@QEAAPEAU?$_Tree_node@U?$pair@$$CBIUPrimitiveAttribute@cldb@@@std@@PEAX@2@XZ 0000000180030d7c f i clReflectCore:Database.obj
 0001:0002fdb4       ?_Buyheadnode@?$_Tree_comp_alloc@V?$_Tmap_traits@IUTemplate@cldb@@U?$less@I@std@@V?$allocator@U?$pair@$$CBIUTemplate@cldb@@@std@@@4@$00@std@@@std@@QEAAPEAU?$_Tree_node@U?$pair@$$CBIUTemplate@cldb@@@std@@PEAX@2@XZ 0000000180030db4 f i clReflectCore:Database.obj
 0001:0002fdec       ?_Buyheadnode@?$_Tree_comp_alloc@V?$_Tmap_traits@IUTemplateType@cldb@@U?$less@I@std@@V?$allocator@U?$pair@$$CBIUTemplateType@cldb@@@std@@@4@$00@std@@@std@@QEAAPEAU?$_Tree_node@U?$pair@$$CBIUTemplateType@cldb@@@std@@PEAX@2@XZ 0000000180030dec f i clReflectCore:Database.obj
 0001:0002fe24       ?_Buyheadnode@?$_Tree_comp_alloc@V?$_Tmap_traits@IUTextAttribute@cldb@@U?$less@I@std@@V?$allocator@U?$pair@$$CBIUTextAttribute@cldb@@@std@@@4@$00@std@@@std@@QEAAPEAU?$_Tree_node@U?$pair@$$CBIUTextAttribute@cldb@@@std@@PEAX@2@XZ 0000000180030e24 f i clReflectCore:Database.obj
 0001:0002fe5c       ?_Buyheadnode@?$_Tree_comp_alloc@V?$_Tmap_traits@IUType@cldb@@U?$less@I@std@@V?$allocator@U?$pair@$$CBIUType@cldb@@@std@@@4@$00@std@@@std@@QEAAPEAU?$_Tree_node@U?$pair@$$CBIUType@cldb@@@std@@PEAX@2@XZ 0000000180030e5c f i clReflectCore:Database.obj
 0001:0002fe94       ?_Buyheadnode@?$_Tree_comp_alloc@V?$_Tmap_traits@IUTypeInheritance@cldb@@U?$less@I@std@@V?$allocator@U?$pair@$$CBIUTypeInheritance@cldb@@@std@@@4@$0A@@std@@@std@@QEAAPEAU?$_Tree_node@U?$pair@$$CBIUTypeInheritance@cldb@@@std@@PEAX@2@XZ 0000000180030e94 f i clReflectCore:Database.obj
 0001:0002fecc       ?_Buynode0@?$_Tree_comp_alloc@V?$_Tmap_traits@IUContainerInfo@cldb@@U?$less@I@std@@V?$allocator@U?$pair@$$CBIUContainerInfo@cldb@@@std@@@4@$0A@@std@@@std@@QEAAPEAU?$_Tree_node@U?$pair@$$CBIUContainerInfo@cldb@@@std@@PEAX@2@XZ 0000000180030ecc f i clReflectCore:Database.obj
 0001:0002ff0c       ?_Buynode0@?$_Tree_comp_alloc@V?$_Tmap_traits@IUName@cldb@@U?$less@I@std@@V?$allocator@U?$pair@$$CBIUName@cldb@@@std@@@4@$0A@@std@@@std@@QEAAPEAU?$_Tree_node@U?$pair@$$CBIUName@cldb@@@std@@PEAX@2@XZ 0000000180030f0c f i clReflectCore:Database.obj
 0001:0002ff4c       ?_Buynode0@?$_Tree_comp_alloc@V?$_Tmap_traits@IUType@cldb@@U?$less@I@std@@V?$allocator@U?$pair@$$CBIUType@cldb@@@std@@@4@$00@std@@@std@@QEAAPEAU?$_Tree_node@U?$pair@$$CBIUType@cldb@@@std@@PEAX@2@XZ 0000000180030f4c f i clReflectCore:Database.obj
 0001:0002ff8c       ?_Buynode0@?$_Tree_comp_alloc@V?$_Tmap_traits@IUTypeInheritance@cldb@@U?$less@I@std@@V?$allocator@U?$pair@$$CBIUTypeInheritance@cldb@@@std@@@4@$0A@@std@@@std@@QEAAPEAU?$_Tree_node@U?$pair@$$CBIUTypeInheritance@cldb@@@std@@PEAX@2@XZ 0000000180030f8c f i clReflectCore:Database.obj
 0001:0002ffcc       ?_Destroy_if_node@?$_Tree@V?$_Tmap_traits@IUContainerInfo@cldb@@U?$less@I@std@@V?$allocator@U?$pair@$$CBIUContainerInfo@cldb@@@std@@@4@$0A@@std@@@std@@IEAAXPEAU?$_Tree_node@U?$pair@$$CBIUContainerInfo@cldb@@@std@@PEAX@2@@Z 0000000180030fcc f i clReflectCore:Database.obj
 0001:0002fff0       ?_Destroy_if_node@?$_Tree@V?$_Tmap_traits@IUTypeInheritance@cldb@@U?$less@I@std@@V?$allocator@U?$pair@$$CBIUTypeInheritance@cldb@@@std@@@4@$0A@@std@@@std@@IEAAXPEAU?$_Tree_node@U?$pair@$$CBIUTypeInheritance@cldb@@@std@@PEAX@2@@Z 0000000180030ff0 f i clReflectCore:Database.obj
 0001:00030014       ?_Freenode0@?$_Tree_comp_alloc@V?$_Tmap_traits@IUContainerInfo@cldb@@U?$less@I@std@@V?$allocator@U?$pair@$$CBIUContainerInfo@cldb@@@std@@@4@$0A@@std@@@std@@QEAAXPEAU?$_Tree_node@U?$pair@$$CBIUContainerInfo@cldb@@@std@@PEAX@2@@Z 0000000180031014 f i clReflectCore:Database.obj
 0001:00030024       ?_Freenode0@?$_Tree_comp_alloc@V?$_Tmap_traits@IUName@cldb@@U?$less@I@std@@V?$allocator@U?$pair@$$CBIUName@cldb@@@std@@@4@$0A@@std@@@std@@QEAAXPEAU?$_Tree_node@U?$pair@$$CBIUName@cldb@@@std@@PEAX@2@@Z 0000000180031024 f i clReflectCore:Database.obj
 0001:00030034       ?_Freenode0@?$_Tree_comp_alloc@V?$_Tmap_traits@IUType@cldb@@U?$less@I@std@@V?$allocator@U?$pair@$$CBIUType@cldb@@@std@@@4@$00@std@@@std@@QEAAXPEAU?$_Tree_node@U?$pair@$$CBIUType@cldb@@@std@@PEAX@2@@Z 0000000180031034 f i clReflectCore:Database.obj
 0001:00030044       ?_Freenode0@?$_Tree_comp_alloc@V?$_Tmap_traits@IUTypeInheritance@cldb@@U?$less@I@std@@V?$allocator@U?$pair@$$CBIUTypeInheritance@cldb@@@std@@@4@$0A@@std@@@std@@QEAAXPEAU?$_Tree_node@U?$pair@$$CBIUTypeInheritance@cldb@@@std@@PEAX@2@@Z 0000000180031044 f i clReflectCore:Database.obj
 0001:00030054       ?deallocate@?$allocator@U?$_Tree_node@U?$pair@$$CBIUClass@cldb@@@std@@PEAX@std@@@std@@QEAAXQEAU?$_Tree_node@U?$pair@$$CBIUClass@cldb@@@std@@PEAX@2@_K@Z 0000000180031054 f i clReflectCore:Database.obj
 0001:00030098       ?deallocate@?$allocator@U?$_Tree_node@U?$pair@$$CBIUContainerInfo@cldb@@@std@@PEAX@std@@@std@@QEAAXQEAU?$_Tree_node@U?$pair@$$CBIUContainerInfo@cldb@@@std@@PEAX@2@_K@Z 0000000180031098 f i clReflectCore:Database.obj
 0001:000300dc       ?deallocate@?$allocator@U?$_Tree_node@U?$pair@$$CBIUEnum@cldb@@@std@@PEAX@std@@@std@@QEAAXQEAU?$_Tree_node@U?$pair@$$CBIUEnum@cldb@@@std@@PEAX@2@_K@Z 00000001800310dc f i clReflectCore:Database.obj
 0001:00030120       ?deallocate@?$allocator@U?$_Tree_node@U?$pair@$$CBIUEnumConstant@cldb@@@std@@PEAX@std@@@std@@QEAAXQEAU?$_Tree_node@U?$pair@$$CBIUEnumConstant@cldb@@@std@@PEAX@2@_K@Z 0000000180031120 f i clReflectCore:Database.obj
 0001:00030164       ?deallocate@?$allocator@U?$_Tree_node@U?$pair@$$CBIUFlagAttribute@cldb@@@std@@PEAX@std@@@std@@QEAAXQEAU?$_Tree_node@U?$pair@$$CBIUFlagAttribute@cldb@@@std@@PEAX@2@_K@Z 0000000180031164 f i clReflectCore:Database.obj
 0001:000301a8       ?deallocate@?$allocator@U?$_Tree_node@U?$pair@$$CBIUFloatAttribute@cldb@@@std@@PEAX@std@@@std@@QEAAXQEAU?$_Tree_node@U?$pair@$$CBIUFloatAttribute@cldb@@@std@@PEAX@2@_K@Z 00000001800311a8 f i clReflectCore:Database.obj
 0001:000301ec       ?deallocate@?$allocator@U?$_Tree_node@U?$pair@$$CBIUIntAttribute@cldb@@@std@@PEAX@std@@@std@@QEAAXQEAU?$_Tree_node@U?$pair@$$CBIUIntAttribute@cldb@@@std@@PEAX@2@_K@Z 00000001800311ec f i clReflectCore:Database.obj
 0001:00030230       ?deallocate@?$allocator@U?$_Tree_node@U?$pair@$$CBIUName@cldb@@@std@@PEAX@std@@@std@@QEAAXQEAU?$_Tree_node@U?$pair@$$CBIUName@cldb@@@std@@PEAX@2@_K@Z 0000000180031230 f i clReflectCore:Database.obj
 0001:00030274       ?deallocate@?$allocator@U?$_Tree_node@U?$pair@$$CBIUNamespace@cldb@@@std@@PEAX@std@@@std@@QEAAXQEAU?$_Tree_node@U?$pair@$$CBIUNamespace@cldb@@@std@@PEAX@2@_K@Z 0000000180031274 f i clReflectCore:Database.obj
 0001:000302b8       ?deallocate@?$allocator@U?$_Tree_node@U?$pair@$$CBIUPrimitiveAttribute@cldb@@@std@@PEAX@std@@@std@@QEAAXQEAU?$_Tree_node@U?$pair@$$CBIUPrimitiveAttribute@cldb@@@std@@PEAX@2@_K@Z 00000001800312b8 f i clReflectCore:Database.obj
 0001:000302fc       ?deallocate@?$allocator@U?$_Tree_node@U?$pair@$$CBIUTemplate@cldb@@@std@@PEAX@std@@@std@@QEAAXQEAU?$_Tree_node@U?$pair@$$CBIUTemplate@cldb@@@std@@PEAX@2@_K@Z 00000001800312fc f i clReflectCore:Database.obj
 0001:00030340       ?deallocate@?$allocator@U?$_Tree_node@U?$pair@$$CBIUTemplateType@cldb@@@std@@PEAX@std@@@std@@QEAAXQEAU?$_Tree_node@U?$pair@$$CBIUTemplateType@cldb@@@std@@PEAX@2@_K@Z 0000000180031340 f i clReflectCore:Database.obj
 0001:00030384       ?deallocate@?$allocator@U?$_Tree_node@U?$pair@$$CBIUTextAttribute@cldb@@@std@@PEAX@std@@@std@@QEAAXQEAU?$_Tree_node@U?$pair@$$CBIUTextAttribute@cldb@@@std@@PEAX@2@_K@Z 0000000180031384 f i clReflectCore:Database.obj
 0001:000303c8       ?deallocate@?$allocator@U?$_Tree_node@U?$pair@$$CBIUType@cldb@@@std@@PEAX@std@@@std@@QEAAXQEAU?$_Tree_node@U?$pair@$$CBIUType@cldb@@@std@@PEAX@2@_K@Z 00000001800313c8 f i clReflectCore:Database.obj
 0001:0003040c       ?deallocate@?$allocator@U?$_Tree_node@U?$pair@$$CBIUTypeInheritance@cldb@@@std@@PEAX@std@@@std@@QEAAXQEAU?$_Tree_node@U?$pair@$$CBIUTypeInheritance@cldb@@@std@@PEAX@2@_K@Z 000000018003140c f i clReflectCore:Database.obj
 0001:00030450       ??$?0$$CBIUTextAttribute@cldb@@$0A@@?$pair@$$CBIUTextAttribute@cldb@@@std@@QEAA@AEBIAEBUTextAttribute@cldb@@@Z 0000000180031450 f i clReflectCore:DatabaseBinarySerialiser.obj
 0001:000304c4       ??$Add@UClass@cldb@@@Database@cldb@@QEAAXAEBUName@1@AEBUClass@1@@Z 00000001800314c4 f i clReflectCore:DatabaseBinarySerialiser.obj
 0001:00030564       ??$Add@UContainerInfo@cldb@@@Database@cldb@@QEAAXAEBUName@1@AEBUContainerInfo@1@@Z 0000000180031564 f i clReflectCore:DatabaseBinarySerialiser.obj
 0001:000305e4       ??$Add@UEnum@cldb@@@Database@cldb@@QEAAXAEBUName@1@AEBUEnum@1@@Z 00000001800315e4 f i clReflectCore:DatabaseBinarySerialiser.obj
 0001:00030684       ??$Add@UEnumConstant@cldb@@@Database@cldb@@QEAAXAEBUName@1@AEBUEnumConstant@1@@Z 0000000180031684 f i clReflectCore:DatabaseBinarySerialiser.obj
 0001:0003071c       ??$Add@UFlagAttribute@cldb@@@Database@cldb@@QEAAXAEBUName@1@AEBUFlagAttribute@1@@Z 000000018003171c f i clReflectCore:DatabaseBinarySerialiser.obj
 0001:000307b4       ??$Add@UFloatAttribute@cldb@@@Database@cldb@@QEAAXAEBUName@1@AEBUFloatAttribute@1@@Z 00000001800317b4 f i clReflectCore:DatabaseBinarySerialiser.obj
 0001:0003086c       ??$Add@UIntAttribute@cldb@@@Database@cldb@@QEAAXAEBUName@1@AEBUIntAttribute@1@@Z 000000018003186c f i clReflectCore:DatabaseBinarySerialiser.obj
 0001:00030920       ??$Add@UNamespace@cldb@@@Database@cldb@@QEAAXAEBUName@1@AEBUNamespace@1@@Z 0000000180031920 f i clReflectCore:DatabaseBinarySerialiser.obj
 0001:000309a0       ??$Add@UPrimitiveAttribute@cldb@@@Database@cldb@@QEAAXAEBUName@1@AEBUPrimitiveAttribute@1@@Z 00000001800319a0 f i clReflectCore:DatabaseBinarySerialiser.obj
 0001:00030a20       ??$Add@UTemplate@cldb@@@Database@cldb@@QEAAXAEBUName@1@AEBUTemplate@1@@Z 0000000180031a20 f i clReflectCore:DatabaseBinarySerialiser.obj
 0001:00030aa0       ??$Add@UTemplateType@cldb@@@Database@cldb@@QEAAXAEBUName@1@AEBUTemplateType@1@@Z 0000000180031aa0 f i clReflectCore:DatabaseBinarySerialiser.obj
 0001:00030b3c       ??$Add@UTextAttribute@cldb@@@Database@cldb@@QEAAXAEBUName@1@AEBUTextAttribute@1@@Z 0000000180031b3c f i clReflectCore:DatabaseBinarySerialiser.obj
 0001:00030bb4       ??$Add@UTypeInheritance@cldb@@@Database@cldb@@QEAAXAEBUName@1@AEBUTypeInheritance@1@@Z 0000000180031bb4 f i clReflectCore:DatabaseBinarySerialiser.obj
 0001:00037f78       ??$_Buynode@AEBUpiecewise_construct_t@std@@V?$tuple@AEBI@2@V?$tuple@$$V@2@@?$_Tree_comp_alloc@V?$_Tmap_traits@IUName@cldb@@U?$less@I@std@@V?$allocator@U?$pair@$$CBIUName@cldb@@@std@@@4@$0A@@std@@@std@@QEAAPEAU?$_Tree_node@U?$pair@$$CBIUName@cldb@@@std@@PEAX@1@AEBUpiecewise_construct_t@1@$$QEAV?$tuple@AEBI@1@$$QEAV?$tuple@$$V@1@@Z 0000000180038f78 f i clReflectCore:DatabaseBinarySerialiser.obj
 0001:00037fc8       ??$_Buynode@AEBUpiecewise_construct_t@std@@V?$tuple@AEBI@2@V?$tuple@$$V@2@@?$_Tree_comp_alloc@V?$_Tmap_traits@IV?$basic_string@DU?$char_traits@D@std@@V?$allocator@D@2@@std@@U?$less@I@2@V?$allocator@U?$pair@$$CBIV?$basic_string@DU?$char_traits@D@std@@V?$allocator@D@2@@std@@@std@@@2@$0A@@std@@@std@@QEAAPEAU?$_Tree_node@U?$pair@$$CBIV?$basic_string@DU?$char_traits@D@std@@V?$allocator@D@2@@std@@@std@@PEAX@1@AEBUpiecewise_construct_t@1@$$QEAV?$tuple@AEBI@1@$$QEAV?$tuple@$$V@1@@Z 0000000180038fc8 f i clReflectCore:DatabaseBinarySerialiser.obj
 0001:00038014       ??$_Buynode@U?$pair@$$CBIUClass@cldb@@@std@@@?$_Tree_comp_alloc@V?$_Tmap_traits@IUClass@cldb@@U?$less@I@std@@V?$allocator@U?$pair@$$CBIUClass@cldb@@@std@@@4@$00@std@@@std@@QEAAPEAU?$_Tree_node@U?$pair@$$CBIUClass@cldb@@@std@@PEAX@1@$$QEAU?$pair@$$CBIUClass@cldb@@@1@@Z 0000000180039014 f i clReflectCore:DatabaseBinarySerialiser.obj
 0001:0003807c       ??$_Buynode@U?$pair@$$CBIUContainerInfo@cldb@@@std@@@?$_Tree_comp_alloc@V?$_Tmap_traits@IUContainerInfo@cldb@@U?$less@I@std@@V?$allocator@U?$pair@$$CBIUContainerInfo@cldb@@@std@@@4@$0A@@std@@@std@@QEAAPEAU?$_Tree_node@U?$pair@$$CBIUContainerInfo@cldb@@@std@@PEAX@1@$$QEAU?$pair@$$CBIUContainerInfo@cldb@@@1@@Z 000000018003907c f i clReflectCore:DatabaseBinarySerialiser.obj
 0001:000380cc       ??$_Buynode@U?$pair@$$CBIUEnum@cldb@@@std@@@?$_Tree_comp_alloc@V?$_Tmap_traits@IUEnum@cldb@@U?$less@I@std@@V?$allocator@U?$pair@$$CBIUEnum@cldb@@@std@@@4@$00@std@@@std@@QEAAPEAU?$_Tree_node@U?$pair@$$CBIUEnum@cldb@@@std@@PEAX@1@$$QEAU?$pair@$$CBIUEnum@cldb@@@1@@Z 00000001800390cc f i clReflectCore:DatabaseBinarySerialiser.obj
 0001:00038134       ??$_Buynode@U?$pair@$$CBIUEnumConstant@cldb@@@std@@@?$_Tree_comp_alloc@V?$_Tmap_traits@IUEnumConstant@cldb@@U?$less@I@std@@V?$allocator@U?$pair@$$CBIUEnumConstant@cldb@@@std@@@4@$00@std@@@std@@QEAAPEAU?$_Tree_node@U?$pair@$$CBIUEnumConstant@cldb@@@std@@PEAX@1@$$QEAU?$pair@$$CBIUEnumConstant@cldb@@@1@@Z 0000000180039134 f i clReflectCore:DatabaseBinarySerialiser.obj
 0001:00038194       ??$_Buynode@U?$pair@$$CBIUFlagAttribute@cldb@@@std@@@?$_Tree_comp_alloc@V?$_Tmap_traits@IUFlagAttribute@cldb@@U?$less@I@std@@V?$allocator@U?$pair@$$CBIUFlagAttribute@cldb@@@std@@@4@$00@std@@@std@@QEAAPEAU?$_Tree_node@U?$pair@$$CBIUFlagAttribute@cldb@@@std@@PEAX@1@$$QEAU?$pair@$$CBIUFlagAttribute@cldb@@@1@@Z 0000000180039194 f i clReflectCore:DatabaseBinarySerialiser.obj
 0001:000381f0       ??$_Buynode@U?$pair@$$CBIUFloatAttribute@cldb@@@std@@@?$_Tree_comp_alloc@V?$_Tmap_traits@IUFloatAttribute@cldb@@U?$less@I@std@@V?$allocator@U?$pair@$$CBIUFloatAttribute@cldb@@@std@@@4@$00@std@@@std@@QEAAPEAU?$_Tree_node@U?$pair@$$CBIUFloatAttribute@cldb@@@std@@PEAX@1@$$QEAU?$pair@$$CBIUFloatAttribute@cldb@@@1@@Z 00000001800391f0 f i clReflectCore:DatabaseBinarySerialiser.obj
 0001:00038250       ??$_Buynode@U?$pair@$$CBIUIntAttribute@cldb@@@std@@@?$_Tree_comp_alloc@V?$_Tmap_traits@IUIntAttribute@cldb@@U?$less@I@std@@V?$allocator@U?$pair@$$CBIUIntAttribute@cldb@@@std@@@4@$00@std@@@std@@QEAAPEAU?$_Tree_node@U?$pair@$$CBIUIntAttribute@cldb@@@std@@PEAX@1@$$QEAU?$pair@$$CBIUIntAttribute@cldb@@@1@@Z 0000000180039250 f i clReflectCore:DatabaseBinarySerialiser.obj
 0001:000382b0       ??$_Buynode@U?$pair@$$CBIUNamespace@cldb@@@std@@@?$_Tree_comp_alloc@V?$_Tmap_traits@IUNamespace@cldb@@U?$less@I@std@@V?$allocator@U?$pair@$$CBIUNamespace@cldb@@@std@@@4@$00@std@@@std@@QEAAPEAU?$_Tree_node@U?$pair@$$CBIUNamespace@cldb@@@std@@PEAX@1@$$QEAU?$pair@$$CBIUNamespace@cldb@@@1@@Z 00000001800392b0 f i clReflectCore:DatabaseBinarySerialiser.obj
 0001:00038300       ??$_Buynode@U?$pair@$$CBIUPrimitiveAttribute@cldb@@@std@@@?$_Tree_comp_alloc@V?$_Tmap_traits@IUPrimitiveAttribute@cldb@@U?$less@I@std@@V?$allocator@U?$pair@$$CBIUPrimitiveAttribute@cldb@@@std@@@4@$00@std@@@std@@QEAAPEAU?$_Tree_node@U?$pair@$$CBIUPrimitiveAttribute@cldb@@@std@@PEAX@1@$$QEAU?$pair@$$CBIUPrimitiveAttribute@cldb@@@1@@Z 0000000180039300 f i clReflectCore:DatabaseBinarySerialiser.obj
 0001:00038350       ??$_Buynode@U?$pair@$$CBIUTemplate@cldb@@@std@@@?$_Tree_comp_alloc@V?$_Tmap_traits@IUTemplate@cldb@@U?$less@I@std@@V?$allocator@U?$pair@$$CBIUTemplate@cldb@@@std@@@4@$00@std@@@std@@QEAAPEAU?$_Tree_node@U?$pair@$$CBIUTemplate@cldb@@@std@@PEAX@1@$$QEAU?$pair@$$CBIUTemplate@cldb@@@1@@Z 0000000180039350 f i clReflectCore:DatabaseBinarySerialiser.obj
 0001:000383a0       ??$_Buynode@U?$pair@$$CBIUTemplateType@cldb@@@std@@@?$_Tree_comp_alloc@V?$_Tmap_traits@IUTemplateType@cldb@@U?$less@I@std@@V?$allocator@U?$pair@$$CBIUTemplateType@cldb@@@std@@@4@$00@std@@@std@@QEAAPEAU?$_Tree_node@U?$pair@$$CBIUTemplateType@cldb@@@std@@PEAX@1@$$QEAU?$pair@$$CBIUTemplateType@cldb@@@1@@Z 00000001800393a0 f i clReflectCore:DatabaseBinarySerialiser.obj
 0001:000383f0       ??$_Buynode@U?$pair@$$CBIUTextAttribute@cldb@@@std@@@?$_Tree_comp_alloc@V?$_Tmap_traits@IUTextAttribute@cldb@@U?$less@I@std@@V?$allocator@U?$pair@$$CBIUTextAttribute@cldb@@@std@@@4@$00@std@@@std@@QEAAPEAU?$_Tree_node@U?$pair@$$CBIUTextAttribute@cldb@@@std@@PEAX@1@$$QEAU?$pair@$$CBIUTextAttribute@cldb@@@1@@Z 00000001800393f0 f i clReflectCore:DatabaseBinarySerialiser.obj
 0001:00038438       ??$_Buynode@U?$pair@$$CBIUTypeInheritance@cldb@@@std@@@?$_Tree_comp_alloc@V?$_Tmap_traits@IUTypeInheritance@cldb@@U?$less@I@std@@V?$allocator@U?$pair@$$CBIUTypeInheritance@cldb@@@std@@@4@$0A@@std@@@std@@QEAAPEAU?$_Tree_node@U?$pair@$$CBIUTypeInheritance@cldb@@@std@@PEAX@1@$$QEAU?$pair@$$CBIUTypeInheritance@cldb@@@1@@Z 0000000180039438 f i clReflectCore:DatabaseBinarySerialiser.obj
 0001:00038488       ??$_Emplace_back@AEAUTextAttribute@cldb@@@?$_Uninitialized_backout_al@PEAUTextAttribute@cldb@@V?$allocator@UTextAttribute@cldb@@@std@@@std@@QEAAXAEAUTextAttribute@cldb@@@Z 0000000180039488 f i clReflectCore:DatabaseBinarySerialiser.obj
 0001:000384f4       ??$_Insert_at@AEAU?$pair@$$CBIUName@cldb@@@std@@PEAU?$_Tree_node@U?$pair@$$CBIUName@cldb@@@std@@PEAX@2@@?$_Tree@V?$_Tmap_traits@IUName@cldb@@U?$less@I@std@@V?$allocator@U?$pair@$$CBIUName@cldb@@@std@@@4@$0A@@std@@@std@@IEAA?AV?$_Tree_iterator@V?$_Tree_val@U?$_Tree_simple_types@U?$pair@$$CBIUName@cldb@@@std@@@std@@@std@@@1@_NPEAU?$_Tree_node@U?$pair@$$CBIUName@cldb@@@std@@PEAX@1@AEAU?$pair@$$CBIUName@cldb@@@1@1@Z 00000001800394f4 f i clReflectCore:DatabaseBinarySerialiser.obj
 0001:00038780       ??$_Insert_at@AEAU?$pair@$$CBIV?$basic_string@DU?$char_traits@D@std@@V?$allocator@D@2@@std@@@std@@PEAU?$_Tree_node@U?$pair@$$CBIV?$basic_string@DU?$char_traits@D@std@@V?$allocator@D@2@@std@@@std@@PEAX@2@@?$_Tree@V?$_Tmap_traits@IV?$basic_string@DU?$char_traits@D@std@@V?$allocator@D@2@@std@@U?$less@I@2@V?$allocator@U?$pair@$$CBIV?$basic_string@DU?$char_traits@D@std@@V?$allocator@D@2@@std@@@std@@@2@$0A@@std@@@std@@IEAA?AV?$_Tree_iterator@V?$_Tree_val@U?$_Tree_simple_types@U?$pair@$$CBIV?$basic_string@DU?$char_traits@D@std@@V?$allocator@D@2@@std@@@std@@@std@@@std@@@1@_NPEAU?$_Tree_node@U?$pair@$$CBIV?$basic_string@DU?$char_traits@D@std@@V?$allocator@D@2@@std@@@std@@PEAX@1@AEAU?$pair@$$CBIV?$basic_string@DU?$char_traits@D@std@@V?$allocator@D@2@@std@@@1@1@Z 0000000180039780 f i clReflectCore:DatabaseBinarySerialiser.obj
 0001:00038a0c       ??$_Insert_at@U?$pair@$$CBIUClass@cldb@@@std@@U_Not_a_node_tag@2@@?$_Tree@V?$_Tmap_traits@IUClass@cldb@@U?$less@I@std@@V?$allocator@U?$pair@$$CBIUClass@cldb@@@std@@@4@$00@std@@@std@@IEAA?AV?$_Tree_iterator@V?$_Tree_val@U?$_Tree_simple_types@U?$pair@$$CBIUClass@cldb@@@std@@@std@@@std@@@1@_NPEAU?$_Tree_node@U?$pair@$$CBIUClass@cldb@@@std@@PEAX@1@$$QEAU?$pair@$$CBIUClass@cldb@@@1@U_Not_a_node_tag@1@@Z 0000000180039a0c f i clReflectCore:DatabaseBinarySerialiser.obj
 0001:00038ca8       ??$_Insert_at@U?$pair@$$CBIUContainerInfo@cldb@@@std@@U_Not_a_node_tag@2@@?$_Tree@V?$_Tmap_traits@IUContainerInfo@cldb@@U?$less@I@std@@V?$allocator@U?$pair@$$CBIUContainerInfo@cldb@@@std@@@4@$0A@@std@@@std@@IEAA?AV?$_Tree_iterator@V?$_Tree_val@U?$_Tree_simple_types@U?$pair@$$CBIUContainerInfo@cldb@@@std@@@std@@@std@@@1@_NPEAU?$_Tree_node@U?$pair@$$CBIUContainerInfo@cldb@@@std@@PEAX@1@$$QEAU?$pair@$$CBIUContainerInfo@cldb@@@1@U_Not_a_node_tag@1@@Z 0000000180039ca8 f i clReflectCore:DatabaseBinarySerialiser.obj
 0001:00038f44       ??$_Insert_at@U?$pair@$$CBIUEnum@cldb@@@std@@U_Not_a_node_tag@2@@?$_Tree@V?$_Tmap_traits@IUEnum@cldb@@U?$less@I@std@@V?$allocator@U?$pair@$$CBIUEnum@cldb@@@std@@@4@$00@std@@@std@@IEAA?AV?$_Tree_iterator@V?$_Tree_val@U?$_Tree_simple_types@U?$pair@$$CBIUEnum@cldb@@@std@@@std@@@std@@@1@_NPEAU?$_Tree_node@U?$pair@$$CBIUEnum@cldb@@@std@@PEAX@1@$$QEAU?$pair@$$CBIUEnum@cldb@@@1@U_Not_a_node_tag@1@@Z 0000000180039f44 f i clReflectCore:DatabaseBinarySerialiser.obj
 0001:000391e0       ??$_Insert_at@U?$pair@$$CBIUEnumConstant@cldb@@@std@@U_Not_a_node_tag@2@@?$_Tree@V?$_Tmap_traits@IUEnumConstant@cldb@@U?$less@I@std@@V?$allocator@U?$pair@$$CBIUEnumConstant@cldb@@@std@@@4@$00@std@@@std@@IEAA?AV?$_Tree_iterator@V?$_Tree_val@U?$_Tree_simple_types@U?$pair@$$CBIUEnumConstant@cldb@@@std@@@std@@@std@@@1@_NPEAU?$_Tree_node@U?$pair@$$CBIUEnumConstant@cldb@@@std@@PEAX@1@$$QEAU?$pair@$$CBIUEnumConstant@cldb@@@1@U_Not_a_node_tag@1@@Z 000000018003a1e0 f i clReflectCore:DatabaseBinarySerialiser.obj
 0001:0003947c       ??$_Insert_at@U?$pair@$$CBIUFlagAttribute@cldb@@@std@@U_Not_a_node_tag@2@@?$_Tree@V?$_Tmap_traits@IUFlagAttribute@cldb@@U?$less@I@std@@V?$allocator@U?$pair@$$CBIUFlagAttribute@cldb@@@std@@@4@$00@std@@@std@@IEAA?AV?$_Tree_iterator@V?$_Tree_val@U?$_Tree_simple_types@U?$pair@$$CBIUFlagAttribute@cldb@@@std@@@std@@@std@@@1@_NPEAU?$_Tree_node@U?$pair@$$CBIUFlagAttribute@cldb@@@std@@PEAX@1@$$QEAU?$pair@$$CBIUFlagAttribute@cldb@@@1@U_Not_a_node_tag@1@@Z 000000018003a47c f i clReflectCore:DatabaseBinarySerialiser.obj
 0001:00039718       ??$_Insert_at@U?$pair@$$CBIUFloatAttribute@cldb@@@std@@U_Not_a_node_tag@2@@?$_Tree@V?$_Tmap_traits@IUFloatAttribute@cldb@@U?$less@I@std@@V?$allocator@U?$pair@$$CBIUFloatAttribute@cldb@@@std@@@4@$00@std@@@std@@IEAA?AV?$_Tree_iterator@V?$_Tree_val@U?$_Tree_simple_types@U?$pair@$$CBIUFloatAttribute@cldb@@@std@@@std@@@std@@@1@_NPEAU?$_Tree_node@U?$pair@$$CBIUFloatAttribute@cldb@@@std@@PEAX@1@$$QEAU?$pair@$$CBIUFloatAttribute@cldb@@@1@U_Not_a_node_tag@1@@Z 000000018003a718 f i clReflectCore:DatabaseBinarySerialiser.obj
 0001:000399b4       ??$_Insert_at@U?$pair@$$CBIUIntAttribute@cldb@@@std@@U_Not_a_node_tag@2@@?$_Tree@V?$_Tmap_traits@IUIntAttribute@cldb@@U?$less@I@std@@V?$allocator@U?$pair@$$CBIUIntAttribute@cldb@@@std@@@4@$00@std@@@std@@IEAA?AV?$_Tree_iterator@V?$_Tree_val@U?$_Tree_simple_types@U?$pair@$$CBIUIntAttribute@cldb@@@std@@@std@@@std@@@1@_NPEAU?$_Tree_node@U?$pair@$$CBIUIntAttribute@cldb@@@std@@PEAX@1@$$QEAU?$pair@$$CBIUIntAttribute@cldb@@@1@U_Not_a_node_tag@1@@Z 000000018003a9b4 f i clReflectCore:DatabaseBinarySerialiser.obj
 0001:00039c50       ??$_Insert_at@U?$pair@$$CBIUNamespace@cldb@@@std@@U_Not_a_node_tag@2@@?$_Tree@V?$_Tmap_traits@IUNamespace@cldb@@U?$less@I@std@@V?$allocator@U?$pair@$$CBIUNamespace@cldb@@@std@@@4@$00@std@@@std@@IEAA?AV?$_Tree_iterator@V?$_Tree_val@U?$_Tree_simple_types@U?$pair@$$CBIUNamespace@cldb@@@std@@@std@@@std@@@1@_NPEAU?$_Tree_node@U?$pair@$$CBIUNamespace@cldb@@@std@@PEAX@1@$$QEAU?$pair@$$CBIUNamespace@cldb@@@1@U_Not_a_node_tag@1@@Z 000000018003ac50 f i clReflectCore:DatabaseBinarySerialiser.obj
 0001:00039eec       ??$_Insert_at@U?$pair@$$CBIUPrimitiveAttribute@cldb@@@std@@U_Not_a_node_tag@2@@?$_Tree@V?$_Tmap_traits@IUPrimitiveAttribute@cldb@@U?$less@I@std@@V?$allocator@U?$pair@$$CBIUPrimitiveAttribute@cldb@@@std@@@4@$00@std@@@std@@IEAA?AV?$_Tree_iterator@V?$_Tree_val@U?$_Tree_simple_types@U?$pair@$$CBIUPrimitiveAttribute@cldb@@@std@@@std@@@std@@@1@_NPEAU?$_Tree_node@U?$pair@$$CBIUPrimitiveAttribute@cldb@@@std@@PEAX@1@$$QEAU?$pair@$$CBIUPrimitiveAttribute@cldb@@@1@U_Not_a_node_tag@1@@Z 000000018003aeec f i clReflectCore:DatabaseBinarySerialiser.obj
 0001:0003a188       ??$_Insert_at@U?$pair@$$CBIUTemplate@cldb@@@std@@U_Not_a_node_tag@2@@?$_Tree@V?$_Tmap_traits@IUTemplate@cldb@@U?$less@I@std@@V?$allocator@U?$pair@$$CBIUTemplate@cldb@@@std@@@4@$00@std@@@std@@IEAA?AV?$_Tree_iterator@V?$_Tree_val@U?$_Tree_simple_types@U?$pair@$$CBIUTemplate@cldb@@@std@@@std@@@std@@@1@_NPEAU?$_Tree_node@U?$pair@$$CBIUTemplate@cldb@@@std@@PEAX@1@$$QEAU?$pair@$$CBIUTemplate@cldb@@@1@U_Not_a_node_tag@1@@Z 000000018003b188 f i clReflectCore:DatabaseBinarySerialiser.obj
 0001:0003a424       ??$_Insert_at@U?$pair@$$CBIUTemplateType@cldb@@@std@@U_Not_a_node_tag@2@@?$_Tree@V?$_Tmap_traits@IUTemplateType@cldb@@U?$less@I@std@@V?$allocator@U?$pair@$$CBIUTemplateType@cldb@@@std@@@4@$00@std@@@std@@IEAA?AV?$_Tree_iterator@V?$_Tree_val@U?$_Tree_simple_types@U?$pair@$$CBIUTemplateType@cldb@@@std@@@std@@@std@@@1@_NPEAU?$_Tree_node@U?$pair@$$CBIUTemplateType@cldb@@@std@@PEAX@1@$$QEAU?$pair@$$CBIUTemplateType@cldb@@@1@U_Not_a_node_tag@1@@Z 000000018003b424 f i clReflectCore:DatabaseBinarySerialiser.obj
 0001:0003a6c0       ??$_Insert_at@U?$pair@$$CBIUTextAttribute@cldb@@@std@@U_Not_a_node_tag@2@@?$_Tree@V?$_Tmap_traits@IUTextAttribute@cldb@@U?$less@I@std@@V?$allocator@U?$pair@$$CBIUTextAttribute@cldb@@@std@@@4@$00@std@@@std@@IEAA?AV?$_Tree_iterator@V?$_Tree_val@U?$_Tree_simple_types@U?$pair@$$CBIUTextAttribute@cldb@@@std@@@std@@@std@@@1@_NPEAU?$_Tree_node@U?$pair@$$CBIUTextAttribute@cldb@@@std@@PEAX@1@$$QEAU?$pair@$$CBIUTextAttribute@cldb@@@1@U_Not_a_node_tag@1@@Z 000000018003b6c0 f i clReflectCore:DatabaseBinarySerialiser.obj
 0001:0003a95c       ??$_Insert_at@U?$pair@$$CBIUTypeInheritance@cldb@@@std@@U_Not_a_node_tag@2@@?$_Tree@V?$_Tmap_traits@IUTypeInheritance@cldb@@U?$less@I@std@@V?$allocator@U?$pair@$$CBIUTypeInheritance@cldb@@@std@@@4@$0A@@std@@@std@@IEAA?AV?$_Tree_iterator@V?$_Tree_val@U?$_Tree_simple_types@U?$pair@$$CBIUTypeInheritance@cldb@@@std@@@std@@@std@@@1@_NPEAU?$_Tree_node@U?$pair@$$CBIUTypeInheritance@cldb@@@std@@PEAX@1@$$QEAU?$pair@$$CBIUTypeInheritance@cldb@@@1@U_Not_a_node_tag@1@@Z 000000018003b95c f i clReflectCore:DatabaseBinarySerialiser.obj
 0001:0003abf8       ??$_Insert_hint@AEAU?$pair@$$CBIUName@cldb@@@std@@PEAU?$_Tree_node@U?$pair@$$CBIUName@cldb@@@std@@PEAX@2@@?$_Tree@V?$_Tmap_traits@IUName@cldb@@U?$less@I@std@@V?$allocator@U?$pair@$$CBIUName@cldb@@@std@@@4@$0A@@std@@@std@@IEAA?AV?$_Tree_iterator@V?$_Tree_val@U?$_Tree_simple_types@U?$pair@$$CBIUName@cldb@@@std@@@std@@@std@@@1@V?$_Tree_const_iterator@V?$_Tree_val@U?$_Tree_simple_types@U?$pair@$$CBIUName@cldb@@@std@@@std@@@std@@@1@AEAU?$pair@$$CBIUName@cldb@@@1@PEAU?$_Tree_node@U?$pair@$$CBIUName@cldb@@@std@@PEAX@1@@Z 000000018003bbf8 f i clReflectCore:DatabaseBinarySerialiser.obj
 0001:0003ae10       ??$_Insert_hint@AEAU?$pair@$$CBIV?$basic_string@DU?$char_traits@D@std@@V?$allocator@D@2@@std@@@std@@PEAU?$_Tree_node@U?$pair@$$CBIV?$basic_string@DU?$char_traits@D@std@@V?$allocator@D@2@@std@@@std@@PEAX@2@@?$_Tree@V?$_Tmap_traits@IV?$basic_string@DU?$char_traits@D@std@@V?$allocator@D@2@@std@@U?$less@I@2@V?$allocator@U?$pair@$$CBIV?$basic_string@DU?$char_traits@D@std@@V?$allocator@D@2@@std@@@std@@@2@$0A@@std@@@std@@IEAA?AV?$_Tree_iterator@V?$_Tree_val@U?$_Tree_simple_types@U?$pair@$$CBIV?$basic_string@DU?$char_traits@D@std@@V?$allocator@D@2@@std@@@std@@@std@@@std@@@1@V?$_Tree_const_iterator@V?$_Tree_val@U?$_Tree_simple_types@U?$pair@$$CBIV?$basic_string@DU?$char_traits@D@std@@V?$allocator@D@2@@std@@@std@@@std@@@std@@@1@AEAU?$pair@$$CBIV?$basic_string@DU?$char_traits@D@std@@V?$allocator@D@2@@std@@@1@PEAU?$_Tree_node@U?$pair@$$CBIV?$basic_string@DU?$char_traits@D@std@@V?$allocator@D@2@@std@@@std@@PEAX@1@@Z 000000018003be10 f i clReflectCore:DatabaseBinarySerialiser.obj
 0001:0003b028       ??$_Insert_nohint@AEAU?$pair@$$CBIUName@cldb@@@std@@PEAU?$_Tree_node@U?$pair@$$CBIUName@cldb@@@std@@PEAX@2@@?$_Tree@V?$_Tmap_traits@IUName@cldb@@U?$less@I@std@@V?$allocator@U?$pair@$$CBIUName@cldb@@@std@@@4@$0A@@std@@@std@@IEAA?AU?$pair@V?$_Tree_iterator@V?$_Tree_val@U?$_Tree_simple_types@U?$pair@$$CBIUName@cldb@@@std@@@std@@@std@@@std@@_N@1@_NAEAU?$pair@$$CBIUName@cldb@@@1@PEAU?$_Tree_node@U?$pair@$$CBIUName@cldb@@@std@@PEAX@1@@Z 000000018003c028 f i clReflectCore:DatabaseBinarySerialiser.obj
 0001:0003b170       ??$_Insert_nohint@AEAU?$pair@$$CBIV?$basic_string@DU?$char_traits@D@std@@V?$allocator@D@2@@std@@@std@@PEAU?$_Tree_node@U?$pair@$$CBIV?$basic_string@DU?$char_traits@D@std@@V?$allocator@D@2@@std@@@std@@PEAX@2@@?$_Tree@V?$_Tmap_traits@IV?$basic_string@DU?$char_traits@D@std@@V?$allocator@D@2@@std@@U?$less@I@2@V?$allocator@U?$pair@$$CBIV?$basic_string@DU?$char_traits@D@std@@V?$allocator@D@2@@std@@@std@@@2@$0A@@std@@@std@@IEAA?AU?$pair@V?$_Tree_iterator@V?$_Tree_val@U?$_Tree_simple_types@U?$pair@$$CBIV?$basic_string@DU?$char_traits@D@std@@V?$allocator@D@2@@std@@@std@@@std@@@std@@@std@@_N@1@_NAEAU?$pair@$$CBIV?$basic_string@DU?$char_traits@D@std@@V?$allocator@D@2@@std@@@1@PEAU?$_Tree_node@U?$pair@$$CBIV?$basic_string@DU?$char_traits@D@std@@V?$allocator@D@2@@std@@@std@@PEAX@1@@Z 000000018003c170 f i clReflectCore:DatabaseBinarySerialiser.obj
 0001:0003b2b8       ??$_Insert_nohint@U?$pair@$$CBIUClass@cldb@@@std@@U_Not_a_node_tag@2@@?$_Tree@V?$_Tmap_traits@IUClass@cldb@@U?$less@I@std@@V?$allocator@U?$pair@$$CBIUClass@cldb@@@std@@@4@$00@std@@@std@@IEAA?AU?$pair@V?$_Tree_iterator@V?$_Tree_val@U?$_Tree_simple_types@U?$pair@$$CBIUClass@cldb@@@std@@@std@@@std@@@std@@_N@1@_N$$QEAU?$pair@$$CBIUClass@cldb@@@1@U_Not_a_node_tag@1@@Z 000000018003c2b8 f i clReflectCore:DatabaseBinarySerialiser.obj
 0001:0003b33c       ??$_Insert_nohint@U?$pair@$$CBIUContainerInfo@cldb@@@std@@U_Not_a_node_tag@2@@?$_Tree@V?$_Tmap_traits@IUContainerInfo@cldb@@U?$less@I@std@@V?$allocator@U?$pair@$$CBIUContainerInfo@cldb@@@std@@@4@$0A@@std@@@std@@IEAA?AU?$pair@V?$_Tree_iterator@V?$_Tree_val@U?$_Tree_simple_types@U?$pair@$$CBIUContainerInfo@cldb@@@std@@@std@@@std@@@std@@_N@1@_N$$QEAU?$pair@$$CBIUContainerInfo@cldb@@@1@U_Not_a_node_tag@1@@Z 000000018003c33c f i clReflectCore:DatabaseBinarySerialiser.obj
 0001:0003b450       ??$_Insert_nohint@U?$pair@$$CBIUEnum@cldb@@@std@@U_Not_a_node_tag@2@@?$_Tree@V?$_Tmap_traits@IUEnum@cldb@@U?$less@I@std@@V?$allocator@U?$pair@$$CBIUEnum@cldb@@@std@@@4@$00@std@@@std@@IEAA?AU?$pair@V?$_Tree_iterator@V?$_Tree_val@U?$_Tree_simple_types@U?$pair@$$CBIUEnum@cldb@@@std@@@std@@@std@@@std@@_N@1@_N$$QEAU?$pair@$$CBIUEnum@cldb@@@1@U_Not_a_node_tag@1@@Z 000000018003c450 f i clReflectCore:DatabaseBinarySerialiser.obj
 0001:0003b4d4       ??$_Insert_nohint@U?$pair@$$CBIUEnumConstant@cldb@@@std@@U_Not_a_node_tag@2@@?$_Tree@V?$_Tmap_traits@IUEnumConstant@cldb@@U?$less@I@std@@V?$allocator@U?$pair@$$CBIUEnumConstant@cldb@@@std@@@4@$00@std@@@std@@IEAA?AU?$pair@V?$_Tree_iterator@V?$_Tree_val@U?$_Tree_simple_types@U?$pair@$$CBIUEnumConstant@cldb@@@std@@@std@@@std@@@std@@_N@1@_N$$QEAU?$pair@$$CBIUEnumConstant@cldb@@@1@U_Not_a_node_tag@1@@Z 000000018003c4d4 f i clReflectCore:DatabaseBinarySerialiser.obj
 0001:0003b558       ??$_Insert_nohint@U?$pair@$$CBIUFlagAttribute@cldb@@@std@@U_Not_a_node_tag@2@@?$_Tree@V?$_Tmap_traits@IUFlagAttribute@cldb@@U?$less@I@std@@V?$allocator@U?$pair@$$CBIUFlagAttribute@cldb@@@std@@@4@$00@std@@@std@@IEAA?AU?$pair@V?$_Tree_iterator@V?$_Tree_val@U?$_Tree_simple_types@U?$pair@$$CBIUFlagAttribute@cldb@@@std@@@std@@@std@@@std@@_N@1@_N$$QEAU?$pair@$$CBIUFlagAttribute@cldb@@@1@U_Not_a_node_tag@1@@Z 000000018003c558 f i clReflectCore:DatabaseBinarySerialiser.obj
 0001:0003b5dc       ??$_Insert_nohint@U?$pair@$$CBIUFloatAttribute@cldb@@@std@@U_Not_a_node_tag@2@@?$_Tree@V?$_Tmap_traits@IUFloatAttribute@cldb@@U?$less@I@std@@V?$allocator@U?$pair@$$CBIUFloatAttribute@cldb@@@std@@@4@$00@std@@@std@@IEAA?AU?$pair@V?$_Tree_iterator@V?$_Tree_val@U?$_Tree_simple_types@U?$pair@$$CBIUFloatAttribute@cldb@@@std@@@std@@@std@@@std@@_N@1@_N$$QEAU?$pair@$$CBIUFloatAttribute@cldb@@@1@U_Not_a_node_tag@1@@Z 000000018003c5dc f i clReflectCore:DatabaseBinarySerialiser.obj
 0001:0003b660       ??$_Insert_nohint@U?$pair@$$CBIUIntAttribute@cldb@@@std@@U_Not_a_node_tag@2@@?$_Tree@V?$_Tmap_traits@IUIntAttribute@cldb@@U?$less@I@std@@V?$allocator@U?$pair@$$CBIUIntAttribute@cldb@@@std@@@4@$00@std@@@std@@IEAA?AU?$pair@V?$_Tree_iterator@V?$_Tree_val@U?$_Tree_simple_types@U?$pair@$$CBIUIntAttribute@cldb@@@std@@@std@@@std@@@std@@_N@1@_N$$QEAU?$pair@$$CBIUIntAttribute@cldb@@@1@U_Not_a_node_tag@1@@Z 000000018003c660 f i clReflectCore:DatabaseBinarySerialiser.obj
 0001:0003b6e4       ??$_Insert_nohint@U?$pair@$$CBIUNamespace@cldb@@@std@@U_Not_a_node_tag@2@@?$_Tree@V?$_Tmap_traits@IUNamespace@cldb@@U?$less@I@std@@V?$allocator@U?$pair@$$CBIUNamespace@cldb@@@std@@@4@$00@std@@@std@@IEAA?AU?$pair@V?$_Tree_iterator@V?$_Tree_val@U?$_Tree_simple_types@U?$pair@$$CBIUNamespace@cldb@@@std@@@std@@@std@@@std@@_N@1@_N$$QEAU?$pair@$$CBIUNamespace@cldb@@@1@U_Not_a_node_tag@1@@Z 000000018003c6e4 f i clReflectCore:DatabaseBinarySerialiser.obj
 0001:0003b768       ??$_Insert_nohint@U?$pair@$$CBIUPrimitiveAttribute@cldb@@@std@@U_Not_a_node_tag@2@@?$_Tree@V?$_Tmap_traits@IUPrimitiveAttribute@cldb@@U?$less@I@std@@V?$allocator@U?$pair@$$CBIUPrimitiveAttribute@cldb@@@std@@@4@$00@std@@@std@@IEAA?AU?$pair@V?$_Tree_iterator@V?$_Tree_val@U?$_Tree_simple_types@U?$pair@$$CBIUPrimitiveAttribute@cldb@@@std@@@std@@@std@@@std@@_N@1@_N$$QEAU?$pair@$$CBIUPrimitiveAttribute@cldb@@@1@U_Not_a_node_tag@1@@Z 000000018003c768 f i clReflectCore:DatabaseBinarySerialiser.obj
 0001:0003b7ec       ??$_Insert_nohint@U?$pair@$$CBIUTemplate@cldb@@@std@@U_Not_a_node_tag@2@@?$_Tree@V?$_Tmap_traits@IUTemplate@cldb@@U?$less@I@std@@V?$allocator@U?$pair@$$CBIUTemplate@cldb@@@std@@@4@$00@std@@@std@@IEAA?AU?$pair@V?$_Tree_iterator@V?$_Tree_val@U?$_Tree_simple_types@U?$pair@$$CBIUTemplate@cldb@@@std@@@std@@@std@@@std@@_N@1@_N$$QEAU?$pair@$$CBIUTemplate@cldb@@@1@U_Not_a_node_tag@1@@Z 000000018003c7ec f i clReflectCore:DatabaseBinarySerialiser.obj
 0001:0003b870       ??$_Insert_nohint@U?$pair@$$CBIUTemplateType@cldb@@@std@@U_Not_a_node_tag@2@@?$_Tree@V?$_Tmap_traits@IUTemplateType@cldb@@U?$less@I@std@@V?$allocator@U?$pair@$$CBIUTemplateType@cldb@@@std@@@4@$00@std@@@std@@IEAA?AU?$pair@V?$_Tree_iterator@V?$_Tree_val@U?$_Tree_simple_types@U?$pair@$$CBIUTemplateType@cldb@@@std@@@std@@@std@@@std@@_N@1@_N$$QEAU?$pair@$$CBIUTemplateType@cldb@@@1@U_Not_a_node_tag@1@@Z 000000018003c870 f i clReflectCore:DatabaseBinarySerialiser.obj
 0001:0003b8f4       ??$_Insert_nohint@U?$pair@$$CBIUTextAttribute@cldb@@@std@@U_Not_a_node_tag@2@@?$_Tree@V?$_Tmap_traits@IUTextAttribute@cldb@@U?$less@I@std@@V?$allocator@U?$pair@$$CBIUTextAttribute@cldb@@@std@@@4@$00@std@@@std@@IEAA?AU?$pair@V?$_Tree_iterator@V?$_Tree_val@U?$_Tree_simple_types@U?$pair@$$CBIUTextAttribute@cldb@@@std@@@std@@@std@@@std@@_N@1@_N$$QEAU?$pair@$$CBIUTextAttribute@cldb@@@1@U_Not_a_node_tag@1@@Z 000000018003c8f4 f i clReflectCore:DatabaseBinarySerialiser.obj
 0001:0003b978       ??$_Insert_nohint@U?$pair@$$CBIUTypeInheritance@cldb@@@std@@U_Not_a_node_tag@2@@?$_Tree@V?$_Tmap_traits@IUTypeInheritance@cldb@@U?$less@I@std@@V?$allocator@U?$pair@$$CBIUTypeInheritance@cldb@@@std@@@4@$0A@@std@@@std@@IEAA?AU?$pair@V?$_Tree_iterator@V?$_Tree_val@U?$_Tree_simple_types@U?$pair@$$CBIUTypeInheritance@cldb@@@std@@@std@@@std@@@std@@_N@1@_N$$QEAU?$pair@$$CBIUTypeInheritance@cldb@@@1@U_Not_a_node_tag@1@@Z 000000018003c978 f i clReflectCore:DatabaseBinarySerialiser.obj
 0001:0003ba8c       ??$_Resize@V<lambda_0f89fc9fc8c7846969402858336395bb>@@@?$vector@UEnumConstant@cldb@@V?$allocator@UEnumConstant@cldb@@@std@@@std@@AEAAX_KV<lambda_0f89fc9fc8c7846969402858336395bb>@@@Z 000000018003ca8c f i clReflectCore:DatabaseBinarySerialiser.obj
 0001:0003bc4c       ??$_Resize@V<lambda_1d9a17ee7489db12aeb6debadf2a76d2>@@@?$vector@UIntAttribute@cldb@@V?$allocator@UIntAttribute@cldb@@@std@@@std@@AEAAX_KV<lambda_1d9a17ee7489db12aeb6debadf2a76d2>@@@Z 000000018003cc4c f i clReflectCore:DatabaseBinarySerialiser.obj
 0001:0003be1c       ??$_Resize@V<lambda_2baa334141e6fc3992d08daf46f67ed3>@@@?$vector@UTypeInheritance@cldb@@V?$allocator@UTypeInheritance@cldb@@@std@@@std@@AEAAX_KV<lambda_2baa334141e6fc3992d08daf46f67ed3>@@@Z 000000018003ce1c f i clReflectCore:DatabaseBinarySerialiser.obj
 0001:0003c008       ??$_Resize@V<lambda_41f84704b49484471f71363d7896478d>@@@?$vector@UField@cldb@@V?$allocator@UField@cldb@@@std@@@std@@AEAAX_KV<lambda_41f84704b49484471f71363d7896478d>@@@Z 000000018003d008 f i clReflectCore:DatabaseBinarySerialiser.obj
 0001:0003c18c       ??$_Resize@V<lambda_582ebb5cb9b7b8422570fc7453fbb4f6>@@@?$vector@UTemplate@cldb@@V?$allocator@UTemplate@cldb@@@std@@@std@@AEAAX_KV<lambda_582ebb5cb9b7b8422570fc7453fbb4f6>@@@Z 000000018003d18c f i clReflectCore:DatabaseBinarySerialiser.obj
 0001:0003c368       ??$_Resize@V<lambda_5f1b516951f05fda531e0c5027e9f0e1>@@@?$vector@UTextAttribute@cldb@@V?$allocator@UTextAttribute@cldb@@@std@@@std@@AEAAX_KV<lambda_5f1b516951f05fda531e0c5027e9f0e1>@@@Z 000000018003d368 f i clReflectCore:DatabaseBinarySerialiser.obj
 0001:0003c550       ??$_Resize@V<lambda_62ac65ba1589410dfece8f22f2492ddf>@@@?$vector@UTemplateType@cldb@@V?$allocator@UTemplateType@cldb@@@std@@@std@@AEAAX_KV<lambda_62ac65ba1589410dfece8f22f2492ddf>@@@Z 000000018003d550 f i clReflectCore:DatabaseBinarySerialiser.obj
 0001:0003c74c       ??$_Resize@V<lambda_65d042061af55f0fc0681e8e04418484>@@@?$vector@UType@cldb@@V?$allocator@UType@cldb@@@std@@@std@@AEAAX_KV<lambda_65d042061af55f0fc0681e8e04418484>@@@Z 000000018003d74c f i clReflectCore:DatabaseBinarySerialiser.obj
 0001:0003c914       ??$_Resize@V<lambda_81ce4be6ac6be9aac855db2a8f6ecfb3>@@@?$vector@UPrimitiveAttribute@cldb@@V?$allocator@UPrimitiveAttribute@cldb@@@std@@@std@@AEAAX_KV<lambda_81ce4be6ac6be9aac855db2a8f6ecfb3>@@@Z 000000018003d914 f i clReflectCore:DatabaseBinarySerialiser.obj
 0001:0003cb48       ??$_Resize@V<lambda_859d07532c1f0c7a121e672158d52af0>@@@?$vector@UFloatAttribute@cldb@@V?$allocator@UFloatAttribute@cldb@@@std@@@std@@AEAAX_KV<lambda_859d07532c1f0c7a121e672158d52af0>@@@Z 000000018003db48 f i clReflectCore:DatabaseBinarySerialiser.obj
 0001:0003cd18       ??$_Resize@V<lambda_86fb06c36db0c13f4fdfceefa0e3e86b>@@@?$vector@UFlagAttribute@cldb@@V?$allocator@UFlagAttribute@cldb@@@std@@@std@@AEAAX_KV<lambda_86fb06c36db0c13f4fdfceefa0e3e86b>@@@Z 000000018003dd18 f i clReflectCore:DatabaseBinarySerialiser.obj
 0001:0003cf38       ??$_Resize@V<lambda_9663d2d3ac4551e51760a11caa6c844d>@@@?$vector@UClass@cldb@@V?$allocator@UClass@cldb@@@std@@@std@@AEAAX_KV<lambda_9663d2d3ac4551e51760a11caa6c844d>@@@Z 000000018003df38 f i clReflectCore:DatabaseBinarySerialiser.obj
 0001:0003d138       ??$_Resize@V<lambda_c9f64c173a484c8fb55124e0166a6298>@@@?$vector@UFunction@cldb@@V?$allocator@UFunction@cldb@@@std@@@std@@AEAAX_KV<lambda_c9f64c173a484c8fb55124e0166a6298>@@@Z 000000018003e138 f i clReflectCore:DatabaseBinarySerialiser.obj
 0001:0003d33c       ??$_Resize@V<lambda_dcc8b86c96da60b4b5dad3efd7d582ac>@@@?$vector@UEnum@cldb@@V?$allocator@UEnum@cldb@@@std@@@std@@AEAAX_KV<lambda_dcc8b86c96da60b4b5dad3efd7d582ac>@@@Z 000000018003e33c f i clReflectCore:DatabaseBinarySerialiser.obj
 0001:0003d538       ??$_Resize@V<lambda_ee76cf0b439eb3dba7defabcc61fc09a>@@@?$vector@UContainerInfo@cldb@@V?$allocator@UContainerInfo@cldb@@@std@@@std@@AEAAX_KV<lambda_ee76cf0b439eb3dba7defabcc61fc09a>@@@Z 000000018003e538 f i clReflectCore:DatabaseBinarySerialiser.obj
 0001:0003d714       ??$_Resize@V<lambda_ef8da8a16c419d1a6261a68285354fc3>@@@?$vector@UNamespace@cldb@@V?$allocator@UNamespace@cldb@@@std@@@std@@AEAAX_KV<lambda_ef8da8a16c419d1a6261a68285354fc3>@@@Z 000000018003e714 f i clReflectCore:DatabaseBinarySerialiser.obj
 0001:0003d8f0       ??$_Try_emplace@AEBI$$V@?$map@IUName@cldb@@U?$less@I@std@@V?$allocator@U?$pair@$$CBIUName@cldb@@@std@@@4@@std@@QEAA?AU?$pair@V?$_Tree_iterator@V?$_Tree_val@U?$_Tree_simple_types@U?$pair@$$CBIUName@cldb@@@std@@@std@@@std@@@std@@_N@1@AEBI@Z 000000018003e8f0 f i clReflectCore:DatabaseBinarySerialiser.obj
 0001:0003d994       ??$_Try_emplace@AEBI$$V@?$map@IV?$basic_string@DU?$char_traits@D@std@@V?$allocator@D@2@@std@@U?$less@I@2@V?$allocator@U?$pair@$$CBIV?$basic_string@DU?$char_traits@D@std@@V?$allocator@D@2@@std@@@std@@@2@@std@@QEAA?AU?$pair@V?$_Tree_iterator@V?$_Tree_val@U?$_Tree_simple_types@U?$pair@$$CBIV?$basic_string@DU?$char_traits@D@std@@V?$allocator@D@2@@std@@@std@@@std@@@std@@@std@@_N@1@AEBI@Z 000000018003e994 f i clReflectCore:DatabaseBinarySerialiser.obj
 0001:0003da38       ??$_Uninitialized_copy@PEAUFloatAttribute@cldb@@PEAU12@V?$allocator@UFloatAttribute@cldb@@@std@@@std@@YAPEAUFloatAttribute@cldb@@QEAU12@0PEAU12@AEAV?$allocator@UFloatAttribute@cldb@@@0@@Z 000000018003ea38 f i clReflectCore:DatabaseBinarySerialiser.obj
 0001:0003dab0       ??$_Uninitialized_copy@PEAUIntAttribute@cldb@@PEAU12@V?$allocator@UIntAttribute@cldb@@@std@@@std@@YAPEAUIntAttribute@cldb@@QEAU12@0PEAU12@AEAV?$allocator@UIntAttribute@cldb@@@0@@Z 000000018003eab0 f i clReflectCore:DatabaseBinarySerialiser.obj
 0001:0003db28       ??$_Uninitialized_move@PEAUEnumConstant@cldb@@PEAU12@V?$allocator@UEnumConstant@cldb@@@std@@@std@@YAPEAUEnumConstant@cldb@@QEAU12@0PEAU12@AEAV?$allocator@UEnumConstant@cldb@@@0@@Z 000000018003eb28 f i clReflectCore:DatabaseBinarySerialiser.obj
 0001:0003db9c       ??$_Uninitialized_move@PEAUType@cldb@@PEAU12@V?$allocator@UType@cldb@@@std@@@std@@YAPEAUType@cldb@@QEAU12@0PEAU12@AEAV?$allocator@UType@cldb@@@0@@Z 000000018003eb9c f i clReflectCore:DatabaseBinarySerialiser.obj
 0001:0003dc10       ??$_Uninitialized_value_construct_n@PEAUField@cldb@@_KV?$allocator@UField@cldb@@@std@@@std@@YAPEAUField@cldb@@PEAU12@_KAEAV?$allocator@UField@cldb@@@0@@Z 000000018003ec10 f i clReflectCore:DatabaseBinarySerialiser.obj
 0001:0003dc7c       ??0?$pair@$$CBIUTextAttribute@cldb@@@std@@QEAA@$$QEAU01@@Z 000000018003ec7c f i clReflectCore:DatabaseBinarySerialiser.obj
 0001:0003dcf0       ??0?$vector@UClass@cldb@@V?$allocator@UClass@cldb@@@std@@@std@@QEAA@_KAEBV?$allocator@UClass@cldb@@@1@@Z 000000018003ecf0 f i clReflectCore:DatabaseBinarySerialiser.obj
 0001:0003ddb0       ??0?$vector@UContainerInfo@cldb@@V?$allocator@UContainerInfo@cldb@@@std@@@std@@QEAA@_KAEBV?$allocator@UContainerInfo@cldb@@@1@@Z 000000018003edb0 f i clReflectCore:DatabaseBinarySerialiser.obj
 0001:0003de84       ??0?$vector@UEnum@cldb@@V?$allocator@UEnum@cldb@@@std@@@std@@QEAA@_KAEBV?$allocator@UEnum@cldb@@@1@@Z 000000018003ee84 f i clReflectCore:DatabaseBinarySerialiser.obj
 0001:0003df40       ??0?$vector@UEnumConstant@cldb@@V?$allocator@UEnumConstant@cldb@@@std@@@std@@QEAA@_KAEBV?$allocator@UEnumConstant@cldb@@@1@@Z 000000018003ef40 f i clReflectCore:DatabaseBinarySerialiser.obj
 0001:0003dffc       ??0?$vector@UField@cldb@@V?$allocator@UField@cldb@@@std@@@std@@QEAA@_KAEBV?$allocator@UField@cldb@@@1@@Z 000000018003effc f i clReflectCore:DatabaseBinarySerialiser.obj
 0001:0003e07c       ??0?$vector@UFlagAttribute@cldb@@V?$allocator@UFlagAttribute@cldb@@@std@@@std@@QEAA@_KAEBV?$allocator@UFlagAttribute@cldb@@@1@@Z 000000018003f07c f i clReflectCore:DatabaseBinarySerialiser.obj
 0001:0003e148       ??0?$vector@UFloatAttribute@cldb@@V?$allocator@UFloatAttribute@cldb@@@std@@@std@@QEAA@_KAEBV?$allocator@UFloatAttribute@cldb@@@1@@Z 000000018003f148 f i clReflectCore:DatabaseBinarySerialiser.obj
 0001:0003e20c       ??0?$vector@UFunction@cldb@@V?$allocator@UFunction@cldb@@@std@@@std@@QEAA@_KAEBV?$allocator@UFunction@cldb@@@1@@Z 000000018003f20c f i clReflectCore:DatabaseBinarySerialiser.obj
 0001:0003e2cc       ??0?$vector@UIntAttribute@cldb@@V?$allocator@UIntAttribute@cldb@@@std@@@std@@QEAA@_KAEBV?$allocator@UIntAttribute@cldb@@@1@@Z 000000018003f2cc f i clReflectCore:DatabaseBinarySerialiser.obj
 0001:0003e390       ??0?$vector@UNamespace@cldb@@V?$allocator@UNamespace@cldb@@@std@@@std@@QEAA@_KAEBV?$allocator@UNamespace@cldb@@@1@@Z 000000018003f390 f i clReflectCore:DatabaseBinarySerialiser.obj
 0001:0003e448       ??0?$vector@UPrimitiveAttribute@cldb@@V?$allocator@UPrimitiveAttribute@cldb@@@std@@@std@@QEAA@_KAEBV?$allocator@UPrimitiveAttribute@cldb@@@1@@Z 000000018003f448 f i clReflectCore:DatabaseBinarySerialiser.obj
 0001:0003e52c       ??0?$vector@UTemplate@cldb@@V?$allocator@UTemplate@cldb@@@std@@@std@@QEAA@_KAEBV?$allocator@UTemplate@cldb@@@1@@Z 000000018003f52c f i clReflectCore:DatabaseBinarySerialiser.obj
 0001:0003e5e4       ??0?$vector@UTemplateType@cldb@@V?$allocator@UTemplateType@cldb@@@std@@@std@@QEAA@_KAEBV?$allocator@UTemplateType@cldb@@@1@@Z 000000018003f5e4 f i clReflectCore:DatabaseBinarySerialiser.obj
 0001:0003e690       ??0?$vector@UTextAttribute@cldb@@V?$allocator@UTextAttribute@cldb@@@std@@@std@@QEAA@_KAEBV?$allocator@UTextAttribute@cldb@@@1@@Z 000000018003f690 f i clReflectCore:DatabaseBinarySerialiser.obj
 0001:0003e76c       ??0?$vector@UType@cldb@@V?$allocator@UType@cldb@@@std@@@std@@QEAA@_KAEBV?$allocator@UType@cldb@@@1@@Z 000000018003f76c f i clReflectCore:DatabaseBinarySerialiser.obj
 0001:0003e82c       ??0?$vector@UTypeInheritance@cldb@@V?$allocator@UTypeInheritance@cldb@@@std@@@std@@QEAA@_KAEBV?$allocator@UTypeInheritance@cldb@@@1@@Z 000000018003f82c f i clReflectCore:DatabaseBinarySerialiser.obj
 0001:0003e8f0       ??0ContainerInfo@cldb@@QEAA@$$QEAU01@@Z 000000018003f8f0 f i clReflectCore:DatabaseBinarySerialiser.obj
 0001:0003e9c0       ??0ContainerInfo@cldb@@QEAA@AEBU01@@Z 000000018003f9c0 f i clReflectCore:DatabaseBinarySerialiser.obj
 0001:0003ea60       ??0Name@cldb@@QEAA@$$QEAU01@@Z 000000018003fa60 f i clReflectCore:DatabaseBinarySerialiser.obj
 0001:0003eab0       ??0Name@cldb@@QEAA@AEBU01@@Z 000000018003fab0 f i clReflectCore:DatabaseBinarySerialiser.obj
 0001:0003eae0       ??0PrimitiveAttribute@cldb@@QEAA@AEBU01@@Z 000000018003fae0 f i clReflectCore:DatabaseBinarySerialiser.obj
 0001:0003eb4c       ??0TemplateType@cldb@@QEAA@$$QEAU01@@Z 000000018003fb4c f i clReflectCore:DatabaseBinarySerialiser.obj
 0001:0003ebbc       ??0TemplateType@cldb@@QEAA@AEBU01@@Z 000000018003fbbc f i clReflectCore:DatabaseBinarySerialiser.obj
 0001:0003ec30       ??0TemplateType@cldb@@QEAA@XZ 000000018003fc30 f i clReflectCore:DatabaseBinarySerialiser.obj
 0001:0003ecac       ??0TypeInheritance@cldb@@QEAA@$$QEAU01@@Z 000000018003fcac f i clReflectCore:DatabaseBinarySerialiser.obj
 0001:0003ed70       ??0TypeInheritance@cldb@@QEAA@AEBU01@@Z 000000018003fd70 f i clReflectCore:DatabaseBinarySerialiser.obj
 0001:0003ee04       ??1?$_Uninitialized_backout_al@PEAUFlagAttribute@cldb@@V?$allocator@UFlagAttribute@cldb@@@std@@@std@@QEAA@XZ 000000018003fe04 f i clReflectCore:DatabaseBinarySerialiser.obj
 0001:0003ee38       ??1?$_Uninitialized_backout_al@PEAUFloatAttribute@cldb@@V?$allocator@UFloatAttribute@cldb@@@std@@@std@@QEAA@XZ 000000018003fe38 f i clReflectCore:DatabaseBinarySerialiser.obj
 0001:0003ee6c       ??1?$_Uninitialized_backout_al@PEAUIntAttribute@cldb@@V?$allocator@UIntAttribute@cldb@@@std@@@std@@QEAA@XZ 000000018003fe6c f i clReflectCore:DatabaseBinarySerialiser.obj
 0001:0003eea0       ??1?$_Uninitialized_backout_al@PEAUPrimitiveAttribute@cldb@@V?$allocator@UPrimitiveAttribute@cldb@@@std@@@std@@QEAA@XZ 000000018003fea0 f i clReflectCore:DatabaseBinarySerialiser.obj
 0001:0003eed4       ??1?$_Uninitialized_backout_al@PEAUTemplateType@cldb@@V?$allocator@UTemplateType@cldb@@@std@@@std@@QEAA@XZ 000000018003fed4 f i clReflectCore:DatabaseBinarySerialiser.obj
 0001:0003ef2c       ??1?$_Uninitialized_backout_al@PEAUTextAttribute@cldb@@V?$allocator@UTextAttribute@cldb@@@std@@@std@@QEAA@XZ 000000018003ff2c f i clReflectCore:DatabaseBinarySerialiser.obj
 0001:0003ef60       ??1?$pair@$$CBIUClass@cldb@@@std@@QEAA@XZ 000000018003ff60 f i clReflectCore:DatabaseBinarySerialiser.obj
 0001:0003ef6c       ??1?$pair@$$CBIUContainerInfo@cldb@@@std@@QEAA@XZ 000000018003ff6c f i clReflectCore:DatabaseBinarySerialiser.obj
 0001:0003ef78       ??1?$pair@$$CBIUEnum@cldb@@@std@@QEAA@XZ 000000018003ff78 f i clReflectCore:DatabaseBinarySerialiser.obj
 0001:0003ef84       ??1?$pair@$$CBIUEnumConstant@cldb@@@std@@QEAA@XZ 000000018003ff84 f i clReflectCore:DatabaseBinarySerialiser.obj
 0001:0003ef90       ??1?$pair@$$CBIUFlagAttribute@cldb@@@std@@QEAA@XZ 000000018003ff90 f i clReflectCore:DatabaseBinarySerialiser.obj
 0001:0003efa4       ??1?$pair@$$CBIUFloatAttribute@cldb@@@std@@QEAA@XZ 000000018003ffa4 f i clReflectCore:DatabaseBinarySerialiser.obj
 0001:0003efb8       ??1?$pair@$$CBIUIntAttribute@cldb@@@std@@QEAA@XZ 000000018003ffb8 f i clReflectCore:DatabaseBinarySerialiser.obj
 0001:0003efcc       ??1?$pair@$$CBIUNamespace@cldb@@@std@@QEAA@XZ 000000018003ffcc f i clReflectCore:DatabaseBinarySerialiser.obj
 0001:0003efd8       ??1?$pair@$$CBIUPrimitiveAttribute@cldb@@@std@@QEAA@XZ 000000018003ffd8 f i clReflectCore:DatabaseBinarySerialiser.obj
 0001:0003efe4       ??1?$pair@$$CBIUTemplate@cldb@@@std@@QEAA@XZ 000000018003ffe4 f i clReflectCore:DatabaseBinarySerialiser.obj
 0001:0003eff0       ??1?$pair@$$CBIUTemplateType@cldb@@@std@@QEAA@XZ 000000018003fff0 f i clReflectCore:DatabaseBinarySerialiser.obj
 0001:0003f02c       ??1?$pair@$$CBIUTextAttribute@cldb@@@std@@QEAA@XZ 000000018004002c f i clReflectCore:DatabaseBinarySerialiser.obj
 0001:0003f038       ??1?$pair@$$CBIUTypeInheritance@cldb@@@std@@QEAA@XZ 0000000180040038 f i clReflectCore:DatabaseBinarySerialiser.obj
 0001:0003f044       ??1?$vector@UClass@cldb@@V?$allocator@UClass@cldb@@@std@@@std@@QEAA@XZ 0000000180040044 f i clReflectCore:DatabaseBinarySerialiser.obj
 0001:0003f04c       ??1?$vector@UContainerInfo@cldb@@V?$allocator@UContainerInfo@cldb@@@std@@@std@@QEAA@XZ 000000018004004c f i clReflectCore:DatabaseBinarySerialiser.obj
 0001:0003f054       ??1?$vector@UEnum@cldb@@V?$allocator@UEnum@cldb@@@std@@@std@@QEAA@XZ 0000000180040054 f i clReflectCore:DatabaseBinarySerialiser.obj
 0001:0003f05c       ??1?$vector@UEnumConstant@cldb@@V?$allocator@UEnumConstant@cldb@@@std@@@std@@QEAA@XZ 000000018004005c f i clReflectCore:DatabaseBinarySerialiser.obj
 0001:0003f064       ??1?$vector@UFlagAttribute@cldb@@V?$allocator@UFlagAttribute@cldb@@@std@@@std@@QEAA@XZ 0000000180040064 f i clReflectCore:DatabaseBinarySerialiser.obj
 0001:0003f06c       ??1?$vector@UFloatAttribute@cldb@@V?$allocator@UFloatAttribute@cldb@@@std@@@std@@QEAA@XZ 000000018004006c f i clReflectCore:DatabaseBinarySerialiser.obj
 0001:0003f074       ??1?$vector@UFunction@cldb@@V?$allocator@UFunction@cldb@@@std@@@std@@QEAA@XZ 0000000180040074 f i clReflectCore:DatabaseBinarySerialiser.obj
 0001:0003f07c       ??1?$vector@UIntAttribute@cldb@@V?$allocator@UIntAttribute@cldb@@@std@@@std@@QEAA@XZ 000000018004007c f i clReflectCore:DatabaseBinarySerialiser.obj
 0001:0003f084       ??1?$vector@UNamespace@cldb@@V?$allocator@UNamespace@cldb@@@std@@@std@@QEAA@XZ 0000000180040084 f i clReflectCore:DatabaseBinarySerialiser.obj
 0001:0003f08c       ??1?$vector@UPrimitiveAttribute@cldb@@V?$allocator@UPrimitiveAttribute@cldb@@@std@@@std@@QEAA@XZ 000000018004008c f i clReflectCore:DatabaseBinarySerialiser.obj
 0001:0003f094       ??1?$vector@UTemplate@cldb@@V?$allocator@UTemplate@cldb@@@std@@@std@@QEAA@XZ 0000000180040094 f i clReflectCore:DatabaseBinarySerialiser.obj
 0001:0003f09c       ??1?$vector@UTemplateType@cldb@@V?$allocator@UTemplateType@cldb@@@std@@@std@@QEAA@XZ 000000018004009c f i clReflectCore:DatabaseBinarySerialiser.obj
 0001:0003f0b4       ??1?$vector@UTextAttribute@cldb@@V?$allocator@UTextAttribute@cldb@@@std@@@std@@QEAA@XZ 00000001800400b4 f i clReflectCore:DatabaseBinarySerialiser.obj
 0001:0003f0bc       ??1?$vector@UType@cldb@@V?$allocator@UType@cldb@@@std@@@std@@QEAA@XZ 00000001800400bc f i clReflectCore:DatabaseBinarySerialiser.obj
 0001:0003f0c4       ??1?$vector@UTypeInheritance@cldb@@V?$allocator@UTypeInheritance@cldb@@@std@@@std@@QEAA@XZ 00000001800400c4 f i clReflectCore:DatabaseBinarySerialiser.obj
 0001:0003f0cc       ??1DatabaseTypes@meta@cldb@@QEAA@XZ 00000001800400cc f i clReflectCore:DatabaseBinarySerialiser.obj
 0001:0003f1a0       ??4Field@cldb@@QEAAAEAU01@AEBU01@@Z 00000001800401a0 f i clReflectCore:DatabaseBinarySerialiser.obj
 0001:0003f224       ??4TemplateType@cldb@@QEAAAEAU01@AEBU01@@Z 0000000180040224 f i clReflectCore:DatabaseBinarySerialiser.obj
 0001:0003f2d4       ??F?$_Tree_unchecked_const_iterator@V?$_Tree_val@U?$_Tree_simple_types@U?$pair@$$CBIV?$basic_string@DU?$char_traits@D@std@@V?$allocator@D@2@@std@@@std@@@std@@@std@@U_Iterator_base0@2@@std@@QEAAAEAV01@XZ 00000001800402d4 f i clReflectCore:DatabaseBinarySerialiser.obj
 0001:0003f348       ??_G?$pair@$$CBIV?$basic_string@DU?$char_traits@D@std@@V?$allocator@D@2@@std@@@std@@QEAAPEAXI@Z 0000000180040348 f i clReflectCore:DatabaseBinarySerialiser.obj
 0001:0003f3c8       ??_GFlagAttribute@cldb@@UEAAPEAXI@Z 00000001800403c8 f i clReflectCore:DatabaseBinarySerialiser.obj
 0001:0003f3c8       ??_EFlagAttribute@cldb@@UEAAPEAXI@Z 00000001800403c8 f i clReflectCore:DatabaseBinarySerialiser.obj
 0001:0003f40c       ??_EFloatAttribute@cldb@@UEAAPEAXI@Z 000000018004040c f i clReflectCore:DatabaseBinarySerialiser.obj
 0001:0003f40c       ??_GFloatAttribute@cldb@@UEAAPEAXI@Z 000000018004040c f i clReflectCore:DatabaseBinarySerialiser.obj
 0001:0003f450       ??_GIntAttribute@cldb@@UEAAPEAXI@Z 0000000180040450 f i clReflectCore:DatabaseBinarySerialiser.obj
 0001:0003f450       ??_EIntAttribute@cldb@@UEAAPEAXI@Z 0000000180040450 f i clReflectCore:DatabaseBinarySerialiser.obj
 0001:0003f598       ?IsBinaryDatabase@cldb@@YA_NPEBD@Z 0000000180040598 f   clReflectCore:DatabaseBinarySerialiser.obj
 0001:0003f5f4       ?ReadBinaryDatabase@cldb@@YA_NPEBDAEAVDatabase@1@@Z 00000001800405f4 f   clReflectCore:DatabaseBinarySerialiser.obj
 0001:0003fa30       ?WriteBinaryDatabase@cldb@@YAXPEBDAEBVDatabase@1@@Z 0000000180040a30 f   clReflectCore:DatabaseBinarySerialiser.obj
 0001:0003fdd8       ?_Buyheadnode@?$_Tree_comp_alloc@V?$_Tmap_traits@IV?$basic_string@DU?$char_traits@D@std@@V?$allocator@D@2@@std@@U?$less@I@2@V?$allocator@U?$pair@$$CBIV?$basic_string@DU?$char_traits@D@std@@V?$allocator@D@2@@std@@@std@@@2@$0A@@std@@@std@@QEAAPEAU?$_Tree_node@U?$pair@$$CBIV?$basic_string@DU?$char_traits@D@std@@V?$allocator@D@2@@std@@@std@@PEAX@2@XZ 0000000180040dd8 f i clReflectCore:DatabaseBinarySerialiser.obj
 0001:0003fe10       ?_Buynode0@?$_Tree_comp_alloc@V?$_Tmap_traits@IUClass@cldb@@U?$less@I@std@@V?$allocator@U?$pair@$$CBIUClass@cldb@@@std@@@4@$00@std@@@std@@QEAAPEAU?$_Tree_node@U?$pair@$$CBIUClass@cldb@@@std@@PEAX@2@XZ 0000000180040e10 f i clReflectCore:DatabaseBinarySerialiser.obj
 0001:0003fe50       ?_Buynode0@?$_Tree_comp_alloc@V?$_Tmap_traits@IUEnum@cldb@@U?$less@I@std@@V?$allocator@U?$pair@$$CBIUEnum@cldb@@@std@@@4@$00@std@@@std@@QEAAPEAU?$_Tree_node@U?$pair@$$CBIUEnum@cldb@@@std@@PEAX@2@XZ 0000000180040e50 f i clReflectCore:DatabaseBinarySerialiser.obj
 0001:0003fe90       ?_Buynode0@?$_Tree_comp_alloc@V?$_Tmap_traits@IUEnumConstant@cldb@@U?$less@I@std@@V?$allocator@U?$pair@$$CBIUEnumConstant@cldb@@@std@@@4@$00@std@@@std@@QEAAPEAU?$_Tree_node@U?$pair@$$CBIUEnumConstant@cldb@@@std@@PEAX@2@XZ 0000000180040e90 f i clReflectCore:DatabaseBinarySerialiser.obj
 0001:0003fed0       ?_Buynode0@?$_Tree_comp_alloc@V?$_Tmap_traits@IUFlagAttribute@cldb@@U?$less@I@std@@V?$allocator@U?$pair@$$CBIUFlagAttribute@cldb@@@std@@@4@$00@std@@@std@@QEAAPEAU?$_Tree_node@U?$pair@$$CBIUFlagAttribute@cldb@@@std@@PEAX@2@XZ 0000000180040ed0 f i clReflectCore:DatabaseBinarySerialiser.obj
 0001:0003ff10       ?_Buynode0@?$_Tree_comp_alloc@V?$_Tmap_traits@IUFloatAttribute@cldb@@U?$less@I@std@@V?$allocator@U?$pair@$$CBIUFloatAttribute@cldb@@@std@@@4@$00@std@@@std@@QEAAPEAU?$_Tree_node@U?$pair@$$CBIUFloatAttribute@cldb@@@std@@PEAX@2@XZ 0000000180040f10 f i clReflectCore:DatabaseBinarySerialiser.obj
 0001:0003ff50       ?_Buynode0@?$_Tree_comp_alloc@V?$_Tmap_traits@IUIntAttribute@cldb@@U?$less@I@std@@V?$allocator@U?$pair@$$CBIUIntAttribute@cldb@@@std@@@4@$00@std@@@std@@QEAAPEAU?$_Tree_node@U?$pair@$$CBIUIntAttribute@cldb@@@std@@PEAX@2@XZ 0000000180040f50 f i clReflectCore:DatabaseBinarySerialiser.obj
 0001:0003ff90       ?_Buynode0@?$_Tree_comp_alloc@V?$_Tmap_traits@IUNamespace@cldb@@U?$less@I@std@@V?$allocator@U?$pair@$$CBIUNamespace@cldb@@@std@@@4@$00@std@@@std@@QEAAPEAU?$_Tree_node@U?$pair@$$CBIUNamespace@cldb@@@std@@PEAX@2@XZ 0000000180040f90 f i clReflectCore:DatabaseBinarySerialiser.obj
 0001:0003ffd0       ?_Buynode0@?$_Tree_comp_alloc@V?$_Tmap_traits@IUPrimitiveAttribute@cldb@@U?$less@I@std@@V?$allocator@U?$pair@$$CBIUPrimitiveAttribute@cldb@@@std@@@4@$00@std@@@std@@QEAAPEAU?$_Tree_node@U?$pair@$$CBIUPrimitiveAttribute@cldb@@@std@@PEAX@2@XZ 0000000180040fd0 f i clReflectCore:DatabaseBinarySerialiser.obj
 0001:00040010       ?_Buynode0@?$_Tree_comp_alloc@V?$_Tmap_traits@IUTemplate@cldb@@U?$less@I@std@@V?$allocator@U?$pair@$$CBIUTemplate@cldb@@@std@@@4@$00@std@@@std@@QEAAPEAU?$_Tree_node@U?$pair@$$CBIUTemplate@cldb@@@std@@PEAX@2@XZ 0000000180041010 f i clReflectCore:DatabaseBinarySerialiser.obj
 0001:00040050       ?_Buynode0@?$_Tree_comp_alloc@V?$_Tmap_traits@IUTemplateType@cldb@@U?$less@I@std@@V?$allocator@U?$pair@$$CBIUTemplateType@cldb@@@std@@@4@$00@std@@@std@@QEAAPEAU?$_Tree_node@U?$pair@$$CBIUTemplateType@cldb@@@std@@PEAX@2@XZ 0000000180041050 f i clReflectCore:DatabaseBinarySerialiser.obj
 0001:00040090       ?_Buynode0@?$_Tree_comp_alloc@V?$_Tmap_traits@IUTextAttribute@cldb@@U?$less@I@std@@V?$allocator@U?$pair@$$CBIUTextAttribute@cldb@@@std@@@4@$00@std@@@std@@QEAAPEAU?$_Tree_node@U?$pair@$$CBIUTextAttribute@cldb@@@std@@PEAX@2@XZ 0000000180041090 f i clReflectCore:DatabaseBinarySerialiser.obj
 0001:000400d0       ?_Buynode0@?$_Tree_comp_alloc@V?$_Tmap_traits@IV?$basic_string@DU?$char_traits@D@std@@V?$allocator@D@2@@std@@U?$less@I@2@V?$allocator@U?$pair@$$CBIV?$basic_string@DU?$char_traits@D@std@@V?$allocator@D@2@@std@@@std@@@2@$0A@@std@@@std@@QEAAPEAU?$_Tree_node@U?$pair@$$CBIV?$basic_string@DU?$char_traits@D@std@@V?$allocator@D@2@@std@@@std@@PEAX@2@XZ 00000001800410d0 f i clReflectCore:DatabaseBinarySerialiser.obj
 0001:00040110       ?_Change_array@?$vector@UClass@cldb@@V?$allocator@UClass@cldb@@@std@@@std@@AEAAXQEAUClass@cldb@@_K1@Z 0000000180041110 f i clReflectCore:DatabaseBinarySerialiser.obj
 0001:000401e4       ?_Change_array@?$vector@UContainerInfo@cldb@@V?$allocator@UContainerInfo@cldb@@@std@@@std@@AEAAXQEAUContainerInfo@cldb@@_K1@Z 00000001800411e4 f i clReflectCore:DatabaseBinarySerialiser.obj
 0001:0004029c       ?_Change_array@?$vector@UEnum@cldb@@V?$allocator@UEnum@cldb@@@std@@@std@@AEAAXQEAUEnum@cldb@@_K1@Z 000000018004129c f i clReflectCore:DatabaseBinarySerialiser.obj
 0001:00040370       ?_Change_array@?$vector@UEnumConstant@cldb@@V?$allocator@UEnumConstant@cldb@@@std@@@std@@AEAAXQEAUEnumConstant@cldb@@_K1@Z 0000000180041370 f i clReflectCore:DatabaseBinarySerialiser.obj
 0001:00040450       ?_Change_array@?$vector@UFlagAttribute@cldb@@V?$allocator@UFlagAttribute@cldb@@@std@@@std@@AEAAXQEAUFlagAttribute@cldb@@_K1@Z 0000000180041450 f i clReflectCore:DatabaseBinarySerialiser.obj
 0001:00040530       ?_Change_array@?$vector@UFloatAttribute@cldb@@V?$allocator@UFloatAttribute@cldb@@@std@@@std@@AEAAXQEAUFloatAttribute@cldb@@_K1@Z 0000000180041530 f i clReflectCore:DatabaseBinarySerialiser.obj
 0001:00040604       ?_Change_array@?$vector@UFunction@cldb@@V?$allocator@UFunction@cldb@@@std@@@std@@AEAAXQEAUFunction@cldb@@_K1@Z 0000000180041604 f i clReflectCore:DatabaseBinarySerialiser.obj
 0001:000406d8       ?_Change_array@?$vector@UIntAttribute@cldb@@V?$allocator@UIntAttribute@cldb@@@std@@@std@@AEAAXQEAUIntAttribute@cldb@@_K1@Z 00000001800416d8 f i clReflectCore:DatabaseBinarySerialiser.obj
 0001:000407ac       ?_Change_array@?$vector@UNamespace@cldb@@V?$allocator@UNamespace@cldb@@@std@@@std@@AEAAXQEAUNamespace@cldb@@_K1@Z 00000001800417ac f i clReflectCore:DatabaseBinarySerialiser.obj
 0001:00040880       ?_Change_array@?$vector@UPrimitiveAttribute@cldb@@V?$allocator@UPrimitiveAttribute@cldb@@@std@@@std@@AEAAXQEAUPrimitiveAttribute@cldb@@_K1@Z 0000000180041880 f i clReflectCore:DatabaseBinarySerialiser.obj
 0001:00040960       ?_Change_array@?$vector@UTemplate@cldb@@V?$allocator@UTemplate@cldb@@@std@@@std@@AEAAXQEAUTemplate@cldb@@_K1@Z 0000000180041960 f i clReflectCore:DatabaseBinarySerialiser.obj
 0001:00040a34       ?_Change_array@?$vector@UTemplateType@cldb@@V?$allocator@UTemplateType@cldb@@@std@@@std@@AEAAXQEAUTemplateType@cldb@@_K1@Z 0000000180041a34 f i clReflectCore:DatabaseBinarySerialiser.obj
 0001:00040b38       ?_Change_array@?$vector@UTextAttribute@cldb@@V?$allocator@UTextAttribute@cldb@@@std@@@std@@AEAAXQEAUTextAttribute@cldb@@_K1@Z 0000000180041b38 f i clReflectCore:DatabaseBinarySerialiser.obj
 0001:00040bf0       ?_Change_array@?$vector@UType@cldb@@V?$allocator@UType@cldb@@@std@@@std@@AEAAXQEAUType@cldb@@_K1@Z 0000000180041bf0 f i clReflectCore:DatabaseBinarySerialiser.obj
 0001:00040cd0       ?_Change_array@?$vector@UTypeInheritance@cldb@@V?$allocator@UTypeInheritance@cldb@@@std@@@std@@AEAAXQEAUTypeInheritance@cldb@@_K1@Z 0000000180041cd0 f i clReflectCore:DatabaseBinarySerialiser.obj
 0001:00040da4       ?_Destroy@?$vector@UClass@cldb@@V?$allocator@UClass@cldb@@@std@@@std@@AEAAXPEAUClass@cldb@@0@Z 0000000180041da4 f i clReflectCore:DatabaseBinarySerialiser.obj
 0001:00040dd8       ?_Destroy@?$vector@UContainerInfo@cldb@@V?$allocator@UContainerInfo@cldb@@@std@@@std@@AEAAXPEAUContainerInfo@cldb@@0@Z 0000000180041dd8 f i clReflectCore:DatabaseBinarySerialiser.obj
 0001:00040e0c       ?_Destroy@?$vector@UEnum@cldb@@V?$allocator@UEnum@cldb@@@std@@@std@@AEAAXPEAUEnum@cldb@@0@Z 0000000180041e0c f i clReflectCore:DatabaseBinarySerialiser.obj
 0001:00040e40       ?_Destroy@?$vector@UEnumConstant@cldb@@V?$allocator@UEnumConstant@cldb@@@std@@@std@@AEAAXPEAUEnumConstant@cldb@@0@Z 0000000180041e40 f i clReflectCore:DatabaseBinarySerialiser.obj
 0001:00040e74       ?_Destroy@?$vector@UFlagAttribute@cldb@@V?$allocator@UFlagAttribute@cldb@@@std@@@std@@AEAAXPEAUFlagAttribute@cldb@@0@Z 0000000180041e74 f i clReflectCore:DatabaseBinarySerialiser.obj
 0001:00040ea8       ?_Destroy@?$vector@UFloatAttribute@cldb@@V?$allocator@UFloatAttribute@cldb@@@std@@@std@@AEAAXPEAUFloatAttribute@cldb@@0@Z 0000000180041ea8 f i clReflectCore:DatabaseBinarySerialiser.obj
 0001:00040edc       ?_Destroy@?$vector@UFunction@cldb@@V?$allocator@UFunction@cldb@@@std@@@std@@AEAAXPEAUFunction@cldb@@0@Z 0000000180041edc f i clReflectCore:DatabaseBinarySerialiser.obj
 0001:00040f10       ?_Destroy@?$vector@UIntAttribute@cldb@@V?$allocator@UIntAttribute@cldb@@@std@@@std@@AEAAXPEAUIntAttribute@cldb@@0@Z 0000000180041f10 f i clReflectCore:DatabaseBinarySerialiser.obj
 0001:00040f44       ?_Destroy@?$vector@UNamespace@cldb@@V?$allocator@UNamespace@cldb@@@std@@@std@@AEAAXPEAUNamespace@cldb@@0@Z 0000000180041f44 f i clReflectCore:DatabaseBinarySerialiser.obj
 0001:00040f78       ?_Destroy@?$vector@UPrimitiveAttribute@cldb@@V?$allocator@UPrimitiveAttribute@cldb@@@std@@@std@@AEAAXPEAUPrimitiveAttribute@cldb@@0@Z 0000000180041f78 f i clReflectCore:DatabaseBinarySerialiser.obj
 0001:00040fb0       ?_Destroy@?$vector@UTemplate@cldb@@V?$allocator@UTemplate@cldb@@@std@@@std@@AEAAXPEAUTemplate@cldb@@0@Z 0000000180041fb0 f i clReflectCore:DatabaseBinarySerialiser.obj
 0001:00040fe4       ?_Destroy@?$vector@UTemplateType@cldb@@V?$allocator@UTemplateType@cldb@@@std@@@std@@AEAAXPEAUTemplateType@cldb@@0@Z 0000000180041fe4 f i clReflectCore:DatabaseBinarySerialiser.obj
 0001:0004103c       ?_Destroy@?$vector@UTextAttribute@cldb@@V?$allocator@UTextAttribute@cldb@@@std@@@std@@AEAAXPEAUTextAttribute@cldb@@0@Z 000000018004203c f i clReflectCore:DatabaseBinarySerialiser.obj
 0001:00041070       ?_Destroy@?$vector@UType@cldb@@V?$allocator@UType@cldb@@@std@@@std@@AEAAXPEAUType@cldb@@0@Z 0000000180042070 f i clReflectCore:DatabaseBinarySerialiser.obj
 0001:000410a4       ?_Destroy@?$vector@UTypeInheritance@cldb@@V?$allocator@UTypeInheritance@cldb@@@std@@@std@@AEAAXPEAUTypeInheritance@cldb@@0@Z 00000001800420a4 f i clReflectCore:DatabaseBinarySerialiser.obj
 0001:000410d8       ?_Destroy_if_node@?$_Tree@V?$_Tmap_traits@IUName@cldb@@U?$less@I@std@@V?$allocator@U?$pair@$$CBIUName@cldb@@@std@@@4@$0A@@std@@@std@@IEAAXPEAU?$_Tree_node@U?$pair@$$CBIUName@cldb@@@std@@PEAX@2@@Z 00000001800420d8 f i clReflectCore:DatabaseBinarySerialiser.obj
 0001:00041100       ?_Destroy_if_node@?$_Tree@V?$_Tmap_traits@IV?$basic_string@DU?$char_traits@D@std@@V?$allocator@D@2@@std@@U?$less@I@2@V?$allocator@U?$pair@$$CBIV?$basic_string@DU?$char_traits@D@std@@V?$allocator@D@2@@std@@@std@@@2@$0A@@std@@@std@@IEAAXPEAU?$_Tree_node@U?$pair@$$CBIV?$basic_string@DU?$char_traits@D@std@@V?$allocator@D@2@@std@@@std@@PEAX@2@@Z 0000000180042100 f i clReflectCore:DatabaseBinarySerialiser.obj
 0001:00041128       ?_Erase@?$_Tree@V?$_Tmap_traits@IV?$basic_string@DU?$char_traits@D@std@@V?$allocator@D@2@@std@@U?$less@I@2@V?$allocator@U?$pair@$$CBIV?$basic_string@DU?$char_traits@D@std@@V?$allocator@D@2@@std@@@std@@@2@$0A@@std@@@std@@IEAAXPEAU?$_Tree_node@U?$pair@$$CBIV?$basic_string@DU?$char_traits@D@std@@V?$allocator@D@2@@std@@@std@@PEAX@2@@Z 0000000180042128 f i clReflectCore:DatabaseBinarySerialiser.obj
 0001:00041188       ?_Extract@?$_Tree_val@U?$_Tree_simple_types@U?$pair@$$CBIV?$basic_string@DU?$char_traits@D@std@@V?$allocator@D@2@@std@@@std@@@std@@@std@@QEAAPEAU?$_Tree_node@U?$pair@$$CBIV?$basic_string@DU?$char_traits@D@std@@V?$allocator@D@2@@std@@@std@@PEAX@2@V?$_Tree_const_iterator@V?$_Tree_val@U?$_Tree_simple_types@U?$pair@$$CBIV?$basic_string@DU?$char_traits@D@std@@V?$allocator@D@2@@std@@@std@@@std@@@std@@@2@@Z 0000000180042188 f i clReflectCore:DatabaseBinarySerialiser.obj
 0001:000415e0       ?_Freenode0@?$_Tree_comp_alloc@V?$_Tmap_traits@IUClass@cldb@@U?$less@I@std@@V?$allocator@U?$pair@$$CBIUClass@cldb@@@std@@@4@$00@std@@@std@@QEAAXPEAU?$_Tree_node@U?$pair@$$CBIUClass@cldb@@@std@@PEAX@2@@Z 00000001800425e0 f i clReflectCore:DatabaseBinarySerialiser.obj
 0001:000415f0       ?_Freenode0@?$_Tree_comp_alloc@V?$_Tmap_traits@IUEnum@cldb@@U?$less@I@std@@V?$allocator@U?$pair@$$CBIUEnum@cldb@@@std@@@4@$00@std@@@std@@QEAAXPEAU?$_Tree_node@U?$pair@$$CBIUEnum@cldb@@@std@@PEAX@2@@Z 00000001800425f0 f i clReflectCore:DatabaseBinarySerialiser.obj
 0001:00041600       ?_Freenode0@?$_Tree_comp_alloc@V?$_Tmap_traits@IUEnumConstant@cldb@@U?$less@I@std@@V?$allocator@U?$pair@$$CBIUEnumConstant@cldb@@@std@@@4@$00@std@@@std@@QEAAXPEAU?$_Tree_node@U?$pair@$$CBIUEnumConstant@cldb@@@std@@PEAX@2@@Z 0000000180042600 f i clReflectCore:DatabaseBinarySerialiser.obj
 0001:00041610       ?_Freenode0@?$_Tree_comp_alloc@V?$_Tmap_traits@IUFlagAttribute@cldb@@U?$less@I@std@@V?$allocator@U?$pair@$$CBIUFlagAttribute@cldb@@@std@@@4@$00@std@@@std@@QEAAXPEAU?$_Tree_node@U?$pair@$$CBIUFlagAttribute@cldb@@@std@@PEAX@2@@Z 0000000180042610 f i clReflectCore:DatabaseBinarySerialiser.obj
 0001:00041620       ?_Freenode0@?$_Tree_comp_alloc@V?$_Tmap_traits@IUFloatAttribute@cldb@@U?$less@I@std@@V?$allocator@U?$pair@$$CBIUFloatAttribute@cldb@@@std@@@4@$00@std@@@std@@QEAAXPEAU?$_Tree_node@U?$pair@$$CBIUFloatAttribute@cldb@@@std@@PEAX@2@@Z 0000000180042620 f i clReflectCore:DatabaseBinarySerialiser.obj
 0001:00041630       ?_Freenode0@?$_Tree_comp_alloc@V?$_Tmap_traits@IUIntAttribute@cldb@@U?$less@I@std@@V?$allocator@U?$pair@$$CBIUIntAttribute@cldb@@@std@@@4@$00@std@@@std@@QEAAXPEAU?$_Tree_node@U?$pair@$$CBIUIntAttribute@cldb@@@std@@PEAX@2@@Z 0000000180042630 f i clReflectCore:DatabaseBinarySerialiser.obj
 0001:00041640       ?_Freenode0@?$_Tree_comp_alloc@V?$_Tmap_traits@IUNamespace@cldb@@U?$less@I@std@@V?$allocator@U?$pair@$$CBIUNamespace@cldb@@@std@@@4@$00@std@@@std@@QEAAXPEAU?$_Tree_node@U?$pair@$$CBIUNamespace@cldb@@@std@@PEAX@2@@Z 0000000180042640 f i clReflectCore:DatabaseBinarySerialiser.obj
 0001:00041650       ?_Freenode0@?$_Tree_comp_alloc@V?$_Tmap_traits@IUPrimitiveAttribute@cldb@@U?$less@I@std@@V?$allocator@U?$pair@$$CBIUPrimitiveAttribute@cldb@@@std@@@4@$00@std@@@std@@QEAAXPEAU?$_Tree_node@U?$pair@$$CBIUPrimitiveAttribute@cldb@@@std@@PEAX@2@@Z 0000000180042650 f i clReflectCore:DatabaseBinarySerialiser.obj
 0001:00041660       ?_Freenode0@?$_Tree_comp_alloc@V?$_Tmap_traits@IUTemplate@cldb@@U?$less@I@std@@V?$allocator@U?$pair@$$CBIUTemplate@cldb@@@std@@@4@$00@std@@@std@@QEAAXPEAU?$_Tree_node@U?$pair@$$CBIUTemplate@cldb@@@std@@PEAX@2@@Z 0000000180042660 f i clReflectCore:DatabaseBinarySerialiser.obj
 0001:00041670       ?_Freenode0@?$_Tree_comp_alloc@V?$_Tmap_traits@IUTemplateType@cldb@@U?$less@I@std@@V?$allocator@U?$pair@$$CBIUTemplateType@cldb@@@std@@@4@$00@std@@@std@@QEAAXPEAU?$_Tree_node@U?$pair@$$CBIUTemplateType@cldb@@@std@@PEAX@2@@Z 0000000180042670 f i clReflectCore:DatabaseBinarySerialiser.obj
 0001:00041680       ?_Freenode0@?$_Tree_comp_alloc@V?$_Tmap_traits@IUTextAttribute@cldb@@U?$less@I@std@@V?$allocator@U?$pair@$$CBIUTextAttribute@cldb@@@std@@@4@$00@std@@@std@@QEAAXPEAU?$_Tree_node@U?$pair@$$CBIUTextAttribute@cldb@@@std@@PEAX@2@@Z 0000000180042680 f i clReflectCore:DatabaseBinarySerialiser.obj
 0001:00041690       ?_Freenode0@?$_Tree_comp_alloc@V?$_Tmap_traits@IV?$basic_string@DU?$char_traits@D@std@@V?$allocator@D@2@@std@@U?$less@I@2@V?$allocator@U?$pair@$$CBIV?$basic_string@DU?$char_traits@D@std@@V?$allocator@D@2@@std@@@std@@@2@$0A@@std@@@std@@QEAAXPEAU?$_Tree_node@U?$pair@$$CBIV?$basic_string@DU?$char_traits@D@std@@V?$allocator@D@2@@std@@@std@@PEAX@2@@Z 0000000180042690 f i clReflectCore:DatabaseBinarySerialiser.obj
 0001:000416a0       ?_Getal@?$_Vector_alloc@U?$_Vec_base_types@UClass@cldb@@V?$allocator@UClass@cldb@@@std@@@std@@@std@@QEAAAEAV?$allocator@UClass@cldb@@@2@XZ 00000001800426a0 f i clReflectCore:DatabaseBinarySerialiser.obj
 0001:000416a4       ?_Getal@?$_Vector_alloc@U?$_Vec_base_types@UContainerInfo@cldb@@V?$allocator@UContainerInfo@cldb@@@std@@@std@@@std@@QEAAAEAV?$allocator@UContainerInfo@cldb@@@2@XZ 00000001800426a4 f i clReflectCore:DatabaseBinarySerialiser.obj
 0001:000416a8       ?_Getal@?$_Vector_alloc@U?$_Vec_base_types@UEnum@cldb@@V?$allocator@UEnum@cldb@@@std@@@std@@@std@@QEAAAEAV?$allocator@UEnum@cldb@@@2@XZ 00000001800426a8 f i clReflectCore:DatabaseBinarySerialiser.obj
 0001:000416ac       ?_Getal@?$_Vector_alloc@U?$_Vec_base_types@UEnumConstant@cldb@@V?$allocator@UEnumConstant@cldb@@@std@@@std@@@std@@QEAAAEAV?$allocator@UEnumConstant@cldb@@@2@XZ 00000001800426ac f i clReflectCore:DatabaseBinarySerialiser.obj
 0001:000416b0       ?_Getal@?$_Vector_alloc@U?$_Vec_base_types@UField@cldb@@V?$allocator@UField@cldb@@@std@@@std@@@std@@QEAAAEAV?$allocator@UField@cldb@@@2@XZ 00000001800426b0 f i clReflectCore:DatabaseBinarySerialiser.obj
 0001:000416b4       ?_Getal@?$_Vector_alloc@U?$_Vec_base_types@UFlagAttribute@cldb@@V?$allocator@UFlagAttribute@cldb@@@std@@@std@@@std@@QEAAAEAV?$allocator@UFlagAttribute@cldb@@@2@XZ 00000001800426b4 f i clReflectCore:DatabaseBinarySerialiser.obj
 0001:000416b8       ?_Getal@?$_Vector_alloc@U?$_Vec_base_types@UFloatAttribute@cldb@@V?$allocator@UFloatAttribute@cldb@@@std@@@std@@@std@@QEAAAEAV?$allocator@UFloatAttribute@cldb@@@2@XZ 00000001800426b8 f i clReflectCore:DatabaseBinarySerialiser.obj
 0001:000416bc       ?_Getal@?$_Vector_alloc@U?$_Vec_base_types@UFunction@cldb@@V?$allocator@UFunction@cldb@@@std@@@std@@@std@@QEAAAEAV?$allocator@UFunction@cldb@@@2@XZ 00000001800426bc f i clReflectCore:DatabaseBinarySerialiser.obj
 0001:000416c0       ?_Getal@?$_Vector_alloc@U?$_Vec_base_types@UIntAttribute@cldb@@V?$allocator@UIntAttribute@cldb@@@std@@@std@@@std@@QEAAAEAV?$allocator@UIntAttribute@cldb@@@2@XZ 00000001800426c0 f i clReflectCore:DatabaseBinarySerialiser.obj
 0001:000416c4       ?_Getal@?$_Vector_alloc@U?$_Vec_base_types@UNamespace@cldb@@V?$allocator@UNamespace@cldb@@@std@@@std@@@std@@QEAAAEAV?$allocator@UNamespace@cldb@@@2@XZ 00000001800426c4 f i clReflectCore:DatabaseBinarySerialiser.obj
 0001:000416c8       ?_Getal@?$_Vector_alloc@U?$_Vec_base_types@UPrimitiveAttribute@cldb@@V?$allocator@UPrimitiveAttribute@cldb@@@std@@@std@@@std@@QEAAAEAV?$allocator@UPrimitiveAttribute@cldb@@@2@XZ 00000001800426c8 f i clReflectCore:DatabaseBinarySerialiser.obj
 0001:000416cc       ?_Getal@?$_Vector_alloc@U?$_Vec_base_types@UTemplate@cldb@@V?$allocator@UTemplate@cldb@@@std@@@std@@@std@@QEAAAEAV?$allocator@UTemplate@cldb@@@2@XZ 00000001800426cc f i clReflectCore:DatabaseBinarySerialiser.obj
 0001:000416d0       ?_Getal@?$_Vector_alloc@U?$_Vec_base_types@UTemplateType@cldb@@V?$allocator@UTemplateType@cldb@@@std@@@std@@@std@@QEAAAEAV?$allocator@UTemplateType@cldb@@@2@XZ 00000001800426d0 f i clReflectCore:DatabaseBinarySerialiser.obj
 0001:000416d4       ?_Getal@?$_Vector_alloc@U?$_Vec_base_types@UTextAttribute@cldb@@V?$allocator@UTextAttribute@cldb@@@std@@@std@@@std@@QEAAAEAV?$allocator@UTextAttribute@cldb@@@2@XZ 00000001800426d4 f i clReflectCore:DatabaseBinarySerialiser.obj
 0001:000416d8       ?_Getal@?$_Vector_alloc@U?$_Vec_base_types@UType@cldb@@V?$allocator@UType@cldb@@@std@@@std@@@std@@QEAAAEAV?$allocator@UType@cldb@@@2@XZ 00000001800426d8 f i clReflectCore:DatabaseBinarySerialiser.obj
 0001:000416dc       ?_Getal@?$_Vector_alloc@U?$_Vec_base_types@UTypeInheritance@cldb@@V?$allocator@UTypeInheritance@cldb@@@std@@@std@@@std@@QEAAAEAV?$allocator@UTypeInheritance@cldb@@@2@XZ 00000001800426dc f i clReflectCore:DatabaseBinarySerialiser.obj
 0001:000416e0       ?_Tidy@?$vector@UClass@cldb@@V?$allocator@UClass@cldb@@@std@@@std@@AEAAXXZ 00000001800426e0 f i clReflectCore:DatabaseBinarySerialiser.obj
 0001:0004178c       ?_Tidy@?$vector@UContainerInfo@cldb@@V?$allocator@UContainerInfo@cldb@@@std@@@std@@AEAAXXZ 000000018004278c f i clReflectCore:DatabaseBinarySerialiser.obj
 0001:0004181c       ?_Tidy@?$vector@UDatabaseField@meta@cldb@@V?$allocator@UDatabaseField@meta@cldb@@@std@@@std@@AEAAXXZ 000000018004281c f i clReflectCore:DatabaseBinarySerialiser.obj
 0001:00041898       ?_Tidy@?$vector@UEnum@cldb@@V?$allocator@UEnum@cldb@@@std@@@std@@AEAAXXZ 0000000180042898 f i clReflectCore:DatabaseBinarySerialiser.obj
 0001:00041944       ?_Tidy@?$vector@UEnumConstant@cldb@@V?$allocator@UEnumConstant@cldb@@@std@@@std@@AEAAXXZ 0000000180042944 f i clReflectCore:DatabaseBinarySerialiser.obj
 0001:000419f4       ?_Tidy@?$vector@UFlagAttribute@cldb@@V?$allocator@UFlagAttribute@cldb@@@std@@@std@@AEAAXXZ 00000001800429f4 f i clReflectCore:DatabaseBinarySerialiser.obj
 0001:00041aac       ?_Tidy@?$vector@UFloatAttribute@cldb@@V?$allocator@UFloatAttribute@cldb@@@std@@@std@@AEAAXXZ 0000000180042aac f i clReflectCore:DatabaseBinarySerialiser.obj
 0001:00041b5c       ?_Tidy@?$vector@UFunction@cldb@@V?$allocator@UFunction@cldb@@@std@@@std@@AEAAXXZ 0000000180042b5c f i clReflectCore:DatabaseBinarySerialiser.obj
 0001:00041c08       ?_Tidy@?$vector@UIntAttribute@cldb@@V?$allocator@UIntAttribute@cldb@@@std@@@std@@AEAAXXZ 0000000180042c08 f i clReflectCore:DatabaseBinarySerialiser.obj
 0001:00041cb8       ?_Tidy@?$vector@UNamespace@cldb@@V?$allocator@UNamespace@cldb@@@std@@@std@@AEAAXXZ 0000000180042cb8 f i clReflectCore:DatabaseBinarySerialiser.obj
 0001:00041d64       ?_Tidy@?$vector@UPrimitiveAttribute@cldb@@V?$allocator@UPrimitiveAttribute@cldb@@@std@@@std@@AEAAXXZ 0000000180042d64 f i clReflectCore:DatabaseBinarySerialiser.obj
 0001:00041e1c       ?_Tidy@?$vector@UTemplate@cldb@@V?$allocator@UTemplate@cldb@@@std@@@std@@AEAAXXZ 0000000180042e1c f i clReflectCore:DatabaseBinarySerialiser.obj
 0001:00041ec8       ?_Tidy@?$vector@UTemplateType@cldb@@V?$allocator@UTemplateType@cldb@@@std@@@std@@AEAAXXZ 0000000180042ec8 f i clReflectCore:DatabaseBinarySerialiser.obj
 0001:00041fa4       ?_Tidy@?$vector@UTextAttribute@cldb@@V?$allocator@UTextAttribute@cldb@@@std@@@std@@AEAAXXZ 0000000180042fa4 f i clReflectCore:DatabaseBinarySerialiser.obj
 0001:00042038       ?_Tidy@?$vector@UType@cldb@@V?$allocator@UType@cldb@@@std@@@std@@AEAAXXZ 0000000180043038 f i clReflectCore:DatabaseBinarySerialiser.obj
 0001:000420e8       ?_Tidy@?$vector@UTypeInheritance@cldb@@V?$allocator@UTypeInheritance@cldb@@@std@@@std@@AEAAXXZ 00000001800430e8 f i clReflectCore:DatabaseBinarySerialiser.obj
 0001:00042198       ?_Xlength@?$vector@UClass@cldb@@V?$allocator@UClass@cldb@@@std@@@std@@CAXXZ 0000000180043198 f i clReflectCore:DatabaseBinarySerialiser.obj
 0001:000421ac       ?_Xlength@?$vector@UContainerInfo@cldb@@V?$allocator@UContainerInfo@cldb@@@std@@@std@@CAXXZ 00000001800431ac f i clReflectCore:DatabaseBinarySerialiser.obj
 0001:000421c0       ?_Xlength@?$vector@UEnum@cldb@@V?$allocator@UEnum@cldb@@@std@@@std@@CAXXZ 00000001800431c0 f i clReflectCore:DatabaseBinarySerialiser.obj
 0001:000421d4       ?_Xlength@?$vector@UEnumConstant@cldb@@V?$allocator@UEnumConstant@cldb@@@std@@@std@@CAXXZ 00000001800431d4 f i clReflectCore:DatabaseBinarySerialiser.obj
 0001:000421e8       ?_Xlength@?$vector@UFlagAttribute@cldb@@V?$allocator@UFlagAttribute@cldb@@@std@@@std@@CAXXZ 00000001800431e8 f i clReflectCore:DatabaseBinarySerialiser.obj
 0001:000421fc       ?_Xlength@?$vector@UFloatAttribute@cldb@@V?$allocator@UFloatAttribute@cldb@@@std@@@std@@CAXXZ 00000001800431fc f i clReflectCore:DatabaseBinarySerialiser.obj
 0001:00042210       ?_Xlength@?$vector@UFunction@cldb@@V?$allocator@UFunction@cldb@@@std@@@std@@CAXXZ 0000000180043210 f i clReflectCore:DatabaseBinarySerialiser.obj
 0001:00042224       ?_Xlength@?$vector@UIntAttribute@cldb@@V?$allocator@UIntAttribute@cldb@@@std@@@std@@CAXXZ 0000000180043224 f i clReflectCore:DatabaseBinarySerialiser.obj
 0001:00042238       ?_Xlength@?$vector@UNamespace@cldb@@V?$allocator@UNamespace@cldb@@@std@@@std@@CAXXZ 0000000180043238 f i clReflectCore:DatabaseBinarySerialiser.obj
 0001:0004224c       ?_Xlength@?$vector@UPrimitiveAttribute@cldb@@V?$allocator@UPrimitiveAttribute@cldb@@@std@@@std@@CAXXZ 000000018004324c f i clReflectCore:DatabaseBinarySerialiser.obj
 0001:00042260       ?_Xlength@?$vector@UTemplate@cldb@@V?$allocator@UTemplate@cldb@@@std@@@std@@CAXXZ 0000000180043260 f i clReflectCore:DatabaseBinarySerialiser.obj
 0001:00042274       ?_Xlength@?$vector@UTemplateType@cldb@@V?$allocator@UTemplateType@cldb@@@std@@@std@@CAXXZ 0000000180043274 f i clReflectCore:DatabaseBinarySerialiser.obj
 0001:00042288       ?_Xlength@?$vector@UTextAttribute@cldb@@V?$allocator@UTextAttribute@cldb@@@std@@@std@@CAXXZ 0000000180043288 f i clReflectCore:DatabaseBinarySerialiser.obj
 0001:0004229c       ?_Xlength@?$vector@UType@cldb@@V?$allocator@UType@cldb@@@std@@@std@@CAXXZ 000000018004329c f i clReflectCore:DatabaseBinarySerialiser.obj
 0001:000422b0       ?_Xlength@?$vector@UTypeInheritance@cldb@@V?$allocator@UTypeInheritance@cldb@@@std@@@std@@CAXXZ 00000001800432b0 f i clReflectCore:DatabaseBinarySerialiser.obj
 0001:000422c4       ?allocate@?$allocator@UClass@cldb@@@std@@QEAAPEAUClass@cldb@@_K@Z 00000001800432c4 f i clReflectCore:DatabaseBinarySerialiser.obj
 0001:00042330       ?allocate@?$allocator@UContainerInfo@cldb@@@std@@QEAAPEAUContainerInfo@cldb@@_K@Z 0000000180043330 f i clReflectCore:DatabaseBinarySerialiser.obj
 0001:000423a0       ?allocate@?$allocator@UEnum@cldb@@@std@@QEAAPEAUEnum@cldb@@_K@Z 00000001800433a0 f i clReflectCore:DatabaseBinarySerialiser.obj
 0001:0004240c       ?allocate@?$allocator@UEnumConstant@cldb@@@std@@QEAAPEAUEnumConstant@cldb@@_K@Z 000000018004340c f i clReflectCore:DatabaseBinarySerialiser.obj
 0001:0004247c       ?allocate@?$allocator@UFlagAttribute@cldb@@@std@@QEAAPEAUFlagAttribute@cldb@@_K@Z 000000018004347c f i clReflectCore:DatabaseBinarySerialiser.obj
 0001:000424ec       ?allocate@?$allocator@UFloatAttribute@cldb@@@std@@QEAAPEAUFloatAttribute@cldb@@_K@Z 00000001800434ec f i clReflectCore:DatabaseBinarySerialiser.obj
 0001:00042558       ?allocate@?$allocator@UFunction@cldb@@@std@@QEAAPEAUFunction@cldb@@_K@Z 0000000180043558 f i clReflectCore:DatabaseBinarySerialiser.obj
 0001:000425c4       ?allocate@?$allocator@UIntAttribute@cldb@@@std@@QEAAPEAUIntAttribute@cldb@@_K@Z 00000001800435c4 f i clReflectCore:DatabaseBinarySerialiser.obj
 0001:00042630       ?allocate@?$allocator@UNamespace@cldb@@@std@@QEAAPEAUNamespace@cldb@@_K@Z 0000000180043630 f i clReflectCore:DatabaseBinarySerialiser.obj
 0001:0004269c       ?allocate@?$allocator@UPrimitiveAttribute@cldb@@@std@@QEAAPEAUPrimitiveAttribute@cldb@@_K@Z 000000018004369c f i clReflectCore:DatabaseBinarySerialiser.obj
 0001:0004270c       ?allocate@?$allocator@UTemplate@cldb@@@std@@QEAAPEAUTemplate@cldb@@_K@Z 000000018004370c f i clReflectCore:DatabaseBinarySerialiser.obj
 0001:00042778       ?allocate@?$allocator@UTemplateType@cldb@@@std@@QEAAPEAUTemplateType@cldb@@_K@Z 0000000180043778 f i clReflectCore:DatabaseBinarySerialiser.obj
 0001:000427e8       ?allocate@?$allocator@UTextAttribute@cldb@@@std@@QEAAPEAUTextAttribute@cldb@@_K@Z 00000001800437e8 f i clReflectCore:DatabaseBinarySerialiser.obj
 0001:00042858       ?allocate@?$allocator@UType@cldb@@@std@@QEAAPEAUType@cldb@@_K@Z 0000000180043858 f i clReflectCore:DatabaseBinarySerialiser.obj
 0001:000428c8       ?allocate@?$allocator@UTypeInheritance@cldb@@@std@@QEAAPEAUTypeInheritance@cldb@@_K@Z 00000001800438c8 f i clReflectCore:DatabaseBinarySerialiser.obj
 0001:00042934       ?clear@?$_Tree@V?$_Tmap_traits@IV?$basic_string@DU?$char_traits@D@std@@V?$allocator@D@2@@std@@U?$less@I@2@V?$allocator@U?$pair@$$CBIV?$basic_string@DU?$char_traits@D@std@@V?$allocator@D@2@@std@@@std@@@2@$0A@@std@@@std@@QEAAXXZ 0000000180043934 f i clReflectCore:DatabaseBinarySerialiser.obj
 0001:000429cc       ?deallocate@?$allocator@U?$_Tree_node@U?$pair@$$CBIV?$basic_string@DU?$char_traits@D@std@@V?$allocator@D@2@@std@@@std@@PEAX@std@@@std@@QEAAXQEAU?$_Tree_node@U?$pair@$$CBIV?$basic_string@DU?$char_traits@D@std@@V?$allocator@D@2@@std@@@std@@PEAX@2@_K@Z 00000001800439cc f i clReflectCore:DatabaseBinarySerialiser.obj
 0001:00042a10       ?deallocate@?$allocator@UClass@cldb@@@std@@QEAAXQEAUClass@cldb@@_K@Z 0000000180043a10 f i clReflectCore:DatabaseBinarySerialiser.obj
 0001:00042a50       ?deallocate@?$allocator@UContainerInfo@cldb@@@std@@QEAAXQEAUContainerInfo@cldb@@_K@Z 0000000180043a50 f i clReflectCore:DatabaseBinarySerialiser.obj
 0001:00042a94       ?deallocate@?$allocator@UEnum@cldb@@@std@@QEAAXQEAUEnum@cldb@@_K@Z 0000000180043a94 f i clReflectCore:DatabaseBinarySerialiser.obj
 0001:00042ad4       ?deallocate@?$allocator@UEnumConstant@cldb@@@std@@QEAAXQEAUEnumConstant@cldb@@_K@Z 0000000180043ad4 f i clReflectCore:DatabaseBinarySerialiser.obj
 0001:00042b18       ?deallocate@?$allocator@UFlagAttribute@cldb@@@std@@QEAAXQEAUFlagAttribute@cldb@@_K@Z 0000000180043b18 f i clReflectCore:DatabaseBinarySerialiser.obj
 0001:00042b5c       ?deallocate@?$allocator@UFloatAttribute@cldb@@@std@@QEAAXQEAUFloatAttribute@cldb@@_K@Z 0000000180043b5c f i clReflectCore:DatabaseBinarySerialiser.obj
 0001:00042b9c       ?deallocate@?$allocator@UFunction@cldb@@@std@@QEAAXQEAUFunction@cldb@@_K@Z 0000000180043b9c f i clReflectCore:DatabaseBinarySerialiser.obj
 0001:00042bdc       ?deallocate@?$allocator@UIntAttribute@cldb@@@std@@QEAAXQEAUIntAttribute@cldb@@_K@Z 0000000180043bdc f i clReflectCore:DatabaseBinarySerialiser.obj
 0001:00042c1c       ?deallocate@?$allocator@UNamespace@cldb@@@std@@QEAAXQEAUNamespace@cldb@@_K@Z 0000000180043c1c f i clReflectCore:DatabaseBinarySerialiser.obj
 0001:00042c5c       ?deallocate@?$allocator@UPrimitiveAttribute@cldb@@@std@@QEAAXQEAUPrimitiveAttribute@cldb@@_K@Z 0000000180043c5c f i clReflectCore:DatabaseBinarySerialiser.obj
 0001:00042ca0       ?deallocate@?$allocator@UTemplate@cldb@@@std@@QEAAXQEAUTemplate@cldb@@_K@Z 0000000180043ca0 f i clReflectCore:DatabaseBinarySerialiser.obj
 0001:00042ce0       ?deallocate@?$allocator@UTemplateType@cldb@@@std@@QEAAXQEAUTemplateType@cldb@@_K@Z 0000000180043ce0 f i clReflectCore:DatabaseBinarySerialiser.obj
 0001:00042d24       ?deallocate@?$allocator@UTextAttribute@cldb@@@std@@QEAAXQEAUTextAttribute@cldb@@_K@Z 0000000180043d24 f i clReflectCore:DatabaseBinarySerialiser.obj
 0001:00042d68       ?deallocate@?$allocator@UType@cldb@@@std@@QEAAXQEAUType@cldb@@_K@Z 0000000180043d68 f i clReflectCore:DatabaseBinarySerialiser.obj
 0001:00042dac       ?deallocate@?$allocator@UTypeInheritance@cldb@@@std@@QEAAXQEAUTypeInheritance@cldb@@_K@Z 0000000180043dac f i clReflectCore:DatabaseBinarySerialiser.obj
 0001:00042dec       ?erase@?$_Tree@V?$_Tmap_traits@IV?$basic_string@DU?$char_traits@D@std@@V?$allocator@D@2@@std@@U?$less@I@2@V?$allocator@U?$pair@$$CBIV?$basic_string@DU?$char_traits@D@std@@V?$allocator@D@2@@std@@@std@@@2@$0A@@std@@@std@@QEAA?AV?$_Tree_iterator@V?$_Tree_val@U?$_Tree_simple_types@U?$pair@$$CBIV?$basic_string@DU?$char_traits@D@std@@V?$allocator@D@2@@std@@@std@@@std@@@std@@@2@V?$_Tree_const_iterator@V?$_Tree_val@U?$_Tree_simple_types@U?$pair@$$CBIV?$basic_string@DU?$char_traits@D@std@@V?$allocator@D@2@@std@@@std@@@std@@@std@@@2@0@Z 0000000180043dec f i clReflectCore:DatabaseBinarySerialiser.obj
 0001:00042ea0       ?erase@?$_Tree@V?$_Tmap_traits@IV?$basic_string@DU?$char_traits@D@std@@V?$allocator@D@2@@std@@U?$less@I@2@V?$allocator@U?$pair@$$CBIV?$basic_string@DU?$char_traits@D@std@@V?$allocator@D@2@@std@@@std@@@2@$0A@@std@@@std@@QEAA?AV?$_Tree_iterator@V?$_Tree_val@U?$_Tree_simple_types@U?$pair@$$CBIV?$basic_string@DU?$char_traits@D@std@@V?$allocator@D@2@@std@@@std@@@std@@@std@@@2@V?$_Tree_const_iterator@V?$_Tree_val@U?$_Tree_simple_types@U?$pair@$$CBIV?$basic_string@DU?$char_traits@D@std@@V?$allocator@D@2@@std@@@std@@@std@@@std@@@2@@Z 0000000180043ea0 f i clReflectCore:DatabaseBinarySerialiser.obj
 0001:00044254       ??0Attribute@cldb@@QEAA@W4Kind@Primitive@1@UName@1@1@Z 0000000180045254 f i clReflectCore:DatabaseTextSerialiser.obj
 0001:000443ac       ??0Class@cldb@@QEAA@UName@1@0I_N@Z 00000001800453ac f i clReflectCore:DatabaseTextSerialiser.obj
 0001:00044508       ??0Enum@cldb@@QEAA@UName@1@0W4Scoped@01@@Z 0000000180045508 f i clReflectCore:DatabaseTextSerialiser.obj
 0001:00044664       ??0EnumConstant@cldb@@QEAA@UName@1@0H@Z 0000000180045664 f i clReflectCore:DatabaseTextSerialiser.obj
 0001:000447b8       ??0FlagAttribute@cldb@@QEAA@UName@1@0@Z 00000001800457b8 f i clReflectCore:DatabaseTextSerialiser.obj
 0001:0004491c       ??0FloatAttribute@cldb@@QEAA@UName@1@0M@Z 000000018004591c f i clReflectCore:DatabaseTextSerialiser.obj
 0001:00044a94       ??0IntAttribute@cldb@@QEAA@UName@1@0H@Z 0000000180045a94 f i clReflectCore:DatabaseTextSerialiser.obj
 0001:00044bf4       ??0Namespace@cldb@@QEAA@UName@1@0@Z 0000000180045bf4 f i clReflectCore:DatabaseTextSerialiser.obj
 0001:00044d50       ??0PrimitiveAttribute@cldb@@QEAA@UName@1@00@Z 0000000180045d50 f i clReflectCore:DatabaseTextSerialiser.obj
 0001:00044f24       ??0Template@cldb@@QEAA@UName@1@0@Z 0000000180045f24 f i clReflectCore:DatabaseTextSerialiser.obj
 0001:00045080       ??0TemplateType@cldb@@QEAA@UName@1@0I@Z 0000000180046080 f i clReflectCore:DatabaseTextSerialiser.obj
 0001:00045204       ??0TextAttribute@cldb@@QEAA@UName@1@0PEBD@Z 0000000180046204 f i clReflectCore:DatabaseTextSerialiser.obj
 0001:0004537c       ??0Type@cldb@@QEAA@W4Kind@Primitive@1@UName@1@1I@Z 000000018004637c f i clReflectCore:DatabaseTextSerialiser.obj
 0001:000454d0       ??1Class@cldb@@QEAA@XZ     00000001800464d0 f i clReflectCore:DatabaseTextSerialiser.obj
 0001:000454d8       ??1Enum@cldb@@QEAA@XZ      00000001800464d8 f i clReflectCore:DatabaseTextSerialiser.obj
 0001:000454e0       ??1EnumConstant@cldb@@QEAA@XZ 00000001800464e0 f i clReflectCore:DatabaseTextSerialiser.obj
 0001:000454e8       ??1Namespace@cldb@@QEAA@XZ 00000001800464e8 f i clReflectCore:DatabaseTextSerialiser.obj
 0001:000454f0       ??1Template@cldb@@QEAA@XZ  00000001800464f0 f i clReflectCore:DatabaseTextSerialiser.obj
 0001:000454f8       ??1TemplateType@cldb@@QEAA@XZ 00000001800464f8 f i clReflectCore:DatabaseTextSerialiser.obj
 0001:00045650       ?IsTextDatabase@cldb@@YA_NPEBD@Z 0000000180046650 f   clReflectCore:DatabaseTextSerialiser.obj
 0001:00046af8       ?ReadTextDatabase@cldb@@YA_NPEBDAEAVDatabase@1@@Z 0000000180047af8 f   clReflectCore:DatabaseTextSerialiser.obj
 0001:00047648       ?WriteTextDatabase@cldb@@YAXPEBDAEBVDatabase@1@@Z 0000000180048648 f   clReflectCore:DatabaseTextSerialiser.obj
 0001:00047a4c       __local_stdio_scanf_options 0000000180048a4c f i clReflectCore:DatabaseTextSerialiser.obj
 0001:00047a54       fprintf                    0000000180048a54 f i clReflectCore:DatabaseTextSerialiser.obj
 0001:00047a98       sscanf                     0000000180048a98 f i clReflectCore:DatabaseTextSerialiser.obj
 0001:00047ae4       ??$Fields@$01@DatabaseType@meta@cldb@@QEAAAEAU012@AEAY01$$CBUDatabaseField@12@@Z 0000000180048ae4 f i clReflectCore:DatabaseMetadata.obj
 0001:00047b64       ??$Fields@$02@DatabaseType@meta@cldb@@QEAAAEAU012@AEAY02$$CBUDatabaseField@12@@Z 0000000180048b64 f i clReflectCore:DatabaseMetadata.obj
 0001:00047be4       ??$Fields@$03@DatabaseType@meta@cldb@@QEAAAEAU012@AEAY03$$CBUDatabaseField@12@@Z 0000000180048be4 f i clReflectCore:DatabaseMetadata.obj
 0001:00047c64       ??$Fields@$04@DatabaseType@meta@cldb@@QEAAAEAU012@AEAY04$$CBUDatabaseField@12@@Z 0000000180048c64 f i clReflectCore:DatabaseMetadata.obj
 0001:00047ce4       ??$_Resize@V<lambda_b968c51225d46dce47aea77570e0bc54>@@@?$vector@UDatabaseField@meta@cldb@@V?$allocator@UDatabaseField@meta@cldb@@@std@@@std@@AEAAX_KV<lambda_b968c51225d46dce47aea77570e0bc54>@@@Z 0000000180048ce4 f i clReflectCore:DatabaseMetadata.obj
 0001:00047e50       ??0DatabaseTypes@meta@cldb@@QEAA@XZ 0000000180048e50 f   clReflectCore:DatabaseMetadata.obj
 0001:000487d4       ??1DatabaseType@meta@cldb@@QEAA@XZ 00000001800497d4 f i clReflectCore:DatabaseMetadata.obj
 0001:000487e0       ?_Change_array@?$vector@UDatabaseField@meta@cldb@@V?$allocator@UDatabaseField@meta@cldb@@@std@@@std@@AEAAXQEAUDatabaseField@meta@cldb@@_K1@Z 00000001800497e0 f i clReflectCore:DatabaseMetadata.obj
 0001:00048894       ?_Getal@?$_Vector_alloc@U?$_Vec_base_types@UDatabaseField@meta@cldb@@V?$allocator@UDatabaseField@meta@cldb@@@std@@@std@@@std@@QEAAAEAV?$allocator@UDatabaseField@meta@cldb@@@2@XZ 0000000180049894 f i clReflectCore:DatabaseMetadata.obj
 0001:00048898       ?_Xlength@?$vector@UDatabaseField@meta@cldb@@V?$allocator@UDatabaseField@meta@cldb@@@std@@@std@@CAXXZ 0000000180049898 f i clReflectCore:DatabaseMetadata.obj
 0001:000488ac       ?allocate@?$allocator@UDatabaseField@meta@cldb@@@std@@QEAAPEAUDatabaseField@meta@cldb@@_K@Z 00000001800498ac f i clReflectCore:DatabaseMetadata.obj
 0001:0004891c       ?deallocate@?$allocator@UDatabaseField@meta@cldb@@@std@@QEAAXQEAUDatabaseField@meta@cldb@@_K@Z 000000018004991c f i clReflectCore:DatabaseMetadata.obj
 0001:00049060       ??0Attribute@clcpp@@QEAA@W4Kind@Primitive@1@@Z 000000018004a060 f   clReflectCpp:clcpp.obj
 0001:00049078       ??0Attribute@clcpp@@QEAA@XZ 000000018004a078 f   clReflectCpp:clcpp.obj
 0001:00049094       ??0Class@clcpp@@QEAA@XZ    000000018004a094 f   clReflectCpp:clcpp.obj
 0001:0004912c       ??0ContainerInfo@clcpp@@QEAA@XZ 000000018004a12c f   clReflectCpp:clcpp.obj
 0001:00049150       ??0Database@clcpp@@QEAA@XZ 000000018004a150 f   clReflectCpp:clcpp.obj
 0001:00049160       ??0DatabaseFileHeader@internal@clcpp@@QEAA@XZ 000000018004a160 f   clReflectCpp:clcpp.obj
 0001:00049184       ??0DatabaseMem@internal@clcpp@@QEAA@XZ 000000018004a184 f   clReflectCpp:clcpp.obj
 0001:000492d8       ??0Enum@clcpp@@QEAA@XZ     000000018004a2d8 f   clReflectCpp:clcpp.obj
 0001:00049314       ??0EnumConstant@clcpp@@QEAA@XZ 000000018004a314 f   clReflectCpp:clcpp.obj
 0001:00049334       ??0Field@clcpp@@QEAA@XZ    000000018004a334 f   clReflectCpp:clcpp.obj
 0001:00049380       ??0Function@clcpp@@QEAA@XZ 000000018004a380 f   clReflectCpp:clcpp.obj
 0001:000493c0       ??0Name@clcpp@@QEAA@XZ     000000018004a3c0 f   clReflectCpp:clcpp.obj
 0001:000493cc       ??0Namespace@clcpp@@QEAA@XZ 000000018004a3cc f   clReflectCpp:clcpp.obj
 0001:00049444       ??0Primitive@clcpp@@QEAA@W4Kind@01@@Z 000000018004a444 f   clReflectCpp:clcpp.obj
 0001:0004946c       ??0Qualifier@clcpp@@QEAA@W4Operator@01@_N@Z 000000018004a46c f   clReflectCpp:clcpp.obj
 0001:00049478       ??0Qualifier@clcpp@@QEAA@XZ 000000018004a478 f   clReflectCpp:clcpp.obj
 0001:00049484       ??0Range@clcpp@@QEAA@XZ    000000018004a484 f   clReflectCpp:clcpp.obj
 0001:00049490       ??0Template@clcpp@@QEAA@XZ 000000018004a490 f   clReflectCpp:clcpp.obj
 0001:000494bc       ??0TemplateType@clcpp@@QEAA@XZ 000000018004a4bc f   clReflectCpp:clcpp.obj
 0001:00049500       ??0Type@clcpp@@QEAA@W4Kind@Primitive@1@@Z 000000018004a500 f   clReflectCpp:clcpp.obj
 0001:0004952c       ??0Type@clcpp@@QEAA@XZ     000000018004a52c f   clReflectCpp:clcpp.obj
 0001:0004955c       ??1Database@clcpp@@QEAA@XZ 000000018004a55c f   clReflectCpp:clcpp.obj
 0001:00049574       ?AsClass@Type@clcpp@@QEBAPEBUClass@2@XZ 000000018004a574 f   clReflectCpp:clcpp.obj
 0001:00049594       ?AsEnum@Type@clcpp@@QEBAPEBUEnum@2@XZ 000000018004a594 f   clReflectCpp:clcpp.obj
 0001:000495b4       ?AsFloatAttribute@Attribute@clcpp@@QEBAPEBUFloatAttribute@2@XZ 000000018004a5b4 f   clReflectCpp:clcpp.obj
 0001:000495d4       ?AsIntAttribute@Attribute@clcpp@@QEBAPEBUIntAttribute@2@XZ 000000018004a5d4 f   clReflectCpp:clcpp.obj
 0001:000495f4       ?AsPrimitiveAttribute@Attribute@clcpp@@QEBAPEBUPrimitiveAttribute@2@XZ 000000018004a5f4 f   clReflectCpp:clcpp.obj
 0001:00049614       ?AsTemplateType@Type@clcpp@@QEBAPEBUTemplateType@2@XZ 000000018004a614 f   clReflectCpp:clcpp.obj
 0001:00049634       ?AsTextAttribute@Attribute@clcpp@@QEBAPEBUTextAttribute@2@XZ 000000018004a634 f   clReflectCpp:clcpp.obj
 0001:00049654       ?Assert@internal@clcpp@@YAX_N@Z 000000018004a654 f   clReflectCpp:clcpp.obj
 0001:00049670       ?DerivesFrom@Type@clcpp@@QEBA_NI@Z 000000018004a670 f   clReflectCpp:clcpp.obj
 0001:000496f0       ?FindOverloadedPrimitive@internal@clcpp@@YA?AURange@2@AEBU?$CArray@PEBUPrimitive@clcpp@@@2@I@Z 000000018004a6f0 f   clReflectCpp:clcpp.obj
 0001:00049744       ?FindPrimitive@internal@clcpp@@YAPEBUPrimitive@2@AEBU?$CArray@PEBUPrimitive@clcpp@@@2@I@Z 000000018004a744 f   clReflectCpp:clcpp.obj
 0001:00049780       ?GetFunction@Database@clcpp@@QEBAPEBUFunction@2@I@Z 000000018004a780 f   clReflectCpp:clcpp.obj
 0001:000497d0       ?GetFunctions@Database@clcpp@@QEBAPEBUFunction@2@AEAI@Z 000000018004a7d0 f   clReflectCpp:clcpp.obj
 0001:000497e8       ?GetGlobalNamespace@Database@clcpp@@QEBAPEBUNamespace@2@XZ 000000018004a7e8 f   clReflectCpp:clcpp.obj
 0001:00049800       ?GetName@Database@clcpp@@QEBA?AUName@2@I@Z 000000018004a800 f   clReflectCpp:clcpp.obj
 0001:00049868       ?GetName@Database@clcpp@@QEBA?AUName@2@PEBD@Z 000000018004a868 f   clReflectCpp:clcpp.obj
 0001:000498b8       ?GetNamespace@Database@clcpp@@QEBAPEBUNamespace@2@I@Z 000000018004a8b8 f   clReflectCpp:clcpp.obj
 0001:0004990c       ?GetOverloadedFunction@Database@clcpp@@QEBA?AURange@2@I@Z 000000018004a90c f   clReflectCpp:clcpp.obj
 0001:00049978       ?GetTemplate@Database@clcpp@@QEBAPEBUTemplate@2@I@Z 000000018004a978 f   clReflectCpp:clcpp.obj
 0001:000499cc       ?GetType@Database@clcpp@@QEBAPEBUType@2@I@Z 000000018004a9cc f   clReflectCpp:clcpp.obj
 0001:000499fc       ?GetTypes@Database@clcpp@@QEBAPEAPEBUType@2@AEAI@Z 000000018004a9fc f   clReflectCpp:clcpp.obj
 0001:00049a14       ?GetValueName@Enum@clcpp@@QEBAPEBDH@Z 000000018004aa14 f   clReflectCpp:clcpp.obj
 0001:00049a6c       ?HashData@internal@clcpp@@YAIPEBXHI@Z 000000018004aa6c f   clReflectCpp:clcpp.obj
 0001:00049a74       ?HashNameString@internal@clcpp@@YAIPEBDI@Z 000000018004aa74 f   clReflectCpp:clcpp.obj
 0001:00049a94       ?IsFunctionParameter@Field@clcpp@@QEBA_NXZ 000000018004aa94 f   clReflectCpp:clcpp.obj
 0001:00049a9c       ?Load@Database@clcpp@@QEAA_NPEAUIFile@2@PEAUIAllocator@2@I@Z 000000018004aa9c f   clReflectCpp:clcpp.obj
 0001:00049aec       ?Load@Database@clcpp@@QEAA_NPEAUIFile@2@PEAUIAllocator@2@_KI@Z 000000018004aaec f   clReflectCpp:clcpp.obj
 0001:00049e98       ?MixHashes@internal@clcpp@@YAIII@Z 000000018004ae98 f   clReflectCpp:clcpp.obj
 0001:00049fd8       ?SetTypes@Database@clcpp@@QEAAXPEAPEBUType@2@I@Z 000000018004afd8 f   clReflectCpp:clcpp.obj
 0001:00049ff0       ?UnLoad@Database@clcpp@@QEAA_NXZ 000000018004aff0 f   clReflectCpp:clcpp.obj
 0001:0004a061       UnDecorateSymbolName       000000018004b061 f   dbghelp:dbghelp.dll
 0001:0004a067       SymSetOptions              000000018004b067 f   dbghelp:dbghelp.dll
 0001:0004a06d       SymCleanup                 000000018004b06d f   dbghelp:dbghelp.dll
 0001:0004a073       SymInitialize              000000018004b073 f   dbghelp:dbghelp.dll
 0001:0004a079       GetCurrentProcess          000000018004b079 f   kernel32:KERNEL32.dll
 0001:0004a07f       GetModuleHandleA           000000018004b07f f   kernel32:KERNEL32.dll
 0001:0004a085       ExitProcess                000000018004b085 f   kernel32:KERNEL32.dll
 0001:0004a08b       ?_Xlength_error@std@@YAXPEBD@Z 000000018004b08b f   msvcprt:MSVCP140.dll
 0001:0004a091       ?_Xout_of_range@std@@YAXPEBD@Z 000000018004b091 f   msvcprt:MSVCP140.dll
 0001:0004a098       ??2@YAPEAX_K@Z             000000018004b098 f   MSVCRT:new_scalar.obj
 0001:0004a0d4       ??3@YAXPEAX_K@Z            000000018004b0d4 f   MSVCRT:delete_scalar_size.obj
 0001:0004a0dc       __GSHandlerCheck_EH        000000018004b0dc f   MSVCRT:gshandlereh.obj
 0001:0004a170       __security_check_cookie    000000018004b170 f   MSVCRT:amdsecgs.obj
 0001:0004a194       ??1type_info@@UEAA@XZ      000000018004b194 f   MSVCRT:std_type_info_static.obj
 0001:0004a1a0       ??_Gtype_info@@UEAAPEAXI@Z 000000018004b1a0 f i MSVCRT:std_type_info_static.obj
 0001:0004a1a0       ??_Etype_info@@UEAAPEAXI@Z 000000018004b1a0 f i MSVCRT:std_type_info_static.obj
 0001:0004a1cc       __dyn_tls_init             000000018004b1cc f   MSVCRT:tlsdyn.obj
 0001:0004a21c       ??_M@YAXPEAX_K1P6AX0@Z@Z   000000018004b21c f   MSVCRT:ehvecdtr.obj
 0001:0004a288       ??_M@YAXPEAX_KHP6AX0@Z@Z   000000018004b288 f   MSVCRT:ehvecdtr.obj
 0001:0004a2ac       ?__ArrayUnwind@@YAXPEAX_K1P6AX0@Z@Z 000000018004b2ac f   MSVCRT:ehvecdtr.obj
 0001:0004a310       ??_U@YAPEAX_K@Z            000000018004b310 f   MSVCRT:new_array.obj
 0001:0004a318       __raise_securityfailure    000000018004b318 f   MSVCRT:gs_report.obj
 0001:0004a34c       __report_gsfailure         000000018004b34c f   MSVCRT:gs_report.obj
 0001:0004a420       __report_rangecheckfailure 000000018004b420 f   MSVCRT:gs_report.obj
 0001:0004a434       __report_securityfailure   000000018004b434 f   MSVCRT:gs_report.obj
 0001:0004a4d0       __report_securityfailureEx 000000018004b4d0 f   MSVCRT:gs_report.obj
 0001:0004a6c4       __GSHandlerCheck           000000018004b6c4 f   MSVCRT:gshandler.obj
 0001:0004a6e4       __GSHandlerCheckCommon     000000018004b6e4 f   MSVCRT:gshandler.obj
 0001:0004aa8c       _CRT_INIT                  000000018004ba8c f   MSVCRT:dll_dllmain.obj
 0001:0004aa94       _DllMainCRTStartup         000000018004ba94 f   MSVCRT:dll_dllmain.obj
 0001:0004aad4       ??$__crt_fast_decode_pointer@PEAP6AXXZ@@YAPEAP6AXXZQEAP6AXXZ@Z 000000018004bad4 f i MSVCRT:utility.obj
 0001:0004aaec       ??$__crt_fast_encode_pointer@PEAP6AXXZ@@YAPEAP6AXXZQEAP6AXXZ@Z 000000018004baec f i MSVCRT:utility.obj
 0001:0004ab0c       ?__crt_rotate_pointer_value@@YA_K_KH@Z 000000018004bb0c f i MSVCRT:utility.obj
 0001:0004ab18       ?configure_argv@__scrt_narrow_argv_policy@@SAHXZ 000000018004bb18 f i MSVCRT:utility.obj
 0001:0004ab78       ?initialize_environment@__scrt_narrow_environment_policy@@SAHXZ 000000018004bb78 f i MSVCRT:utility.obj
 0001:0004abb0       NtCurrentTeb               000000018004bbb0 f i MSVCRT:utility.obj
 0001:0004abbc       __scrt_acquire_startup_lock 000000018004bbbc f   MSVCRT:utility.obj
 0001:0004abf8       __scrt_dllmain_after_initialize_c 000000018004bbf8 f   MSVCRT:utility.obj
 0001:0004ac2c       __scrt_dllmain_before_initialize_c 000000018004bc2c f   MSVCRT:utility.obj
 0001:0004ac44       __scrt_dllmain_crt_thread_attach 000000018004bc44 f   MSVCRT:utility.obj
 0001:0004ac6c       __scrt_dllmain_crt_thread_detach 000000018004bc6c f   MSVCRT:utility.obj
 0001:0004ac84       __scrt_dllmain_exception_filter 000000018004bc84 f   MSVCRT:utility.obj
 0001:0004ace4       __scrt_dllmain_uninitialize_c 000000018004bce4 f   MSVCRT:utility.obj
 0001:0004ad14       __scrt_dllmain_uninitialize_critical 000000018004bd14 f   MSVCRT:utility.obj
 0001:0004ad28       __scrt_initialize_crt      000000018004bd28 f   MSVCRT:utility.obj
 0001:0004ad74       __scrt_initialize_onexit_tables 000000018004bd74 f   MSVCRT:utility.obj
 0001:0004ae4c       __scrt_is_nonwritable_in_current_image 000000018004be4c f   MSVCRT:utility.obj
 0001:0004aee8       __scrt_release_startup_lock 000000018004bee8 f   MSVCRT:utility.obj
 0001:0004af0c       __scrt_uninitialize_crt    000000018004bf0c f   MSVCRT:utility.obj
 0001:0004af38       _onexit                    000000018004bf38 f   MSVCRT:utility.obj
 0001:0004af88       at_quick_exit              000000018004bf88 f   MSVCRT:utility.obj
 0001:0004afc0       atexit                     000000018004bfc0 f   MSVCRT:utility.obj
 0001:0004b07c       ??$?RUTlsDtorNode@@@__crt_internal_free_policy@@QEBAXQEBUTlsDtorNode@@@Z 000000018004c07c f i MSVCRT:tlsdtor.obj
 0001:0004b084       ??0?$__crt_unique_heap_ptr@UTlsDtorNode@@U__crt_internal_free_policy@@@@QEAA@QEAUTlsDtorNode@@@Z 000000018004c084 f i MSVCRT:tlsdtor.obj
 0001:0004b08c       ??1?$__crt_unique_heap_ptr@UTlsDtorNode@@U__crt_internal_free_policy@@@@QEAA@XZ 000000018004c08c f i MSVCRT:tlsdtor.obj
 0001:0004b0a8       ?detach@?$__crt_unique_heap_ptr@UTlsDtorNode@@U__crt_internal_free_policy@@@@QEAAPEAUTlsDtorNode@@XZ 000000018004c0a8 f i MSVCRT:tlsdtor.obj
 0001:0004b0b0       ?release@?$__crt_unique_heap_ptr@UTlsDtorNode@@U__crt_internal_free_policy@@@@QEAAXXZ 000000018004c0b0 f i MSVCRT:tlsdtor.obj
 0001:0004b0cc       __tlregdtor                000000018004c0cc f   MSVCRT:tlsdtor.obj
 0001:0004b164       ??_L@YAXPEAX_K1P6AX0@Z2@Z  000000018004c164 f   MSVCRT:ehvecctr.obj
 0001:0004b1d4       ??_L@YAXPEAX_KHP6AX0@Z2@Z  000000018004c1d4 f   MSVCRT:ehvecctr.obj
 0001:0004b1dc       ??__C@YAXPEAX0_K1P6AX00@ZP6AX0@Z@Z 000000018004c1dc f   MSVCRT:ehvccctr.obj
 0001:0004b250       ??__C@YAXPEAX0_KHP6AX00@ZP6AX0@Z@Z 000000018004c250 f   MSVCRT:ehvccctr.obj
 0001:0004b258       ??_V@YAXPEAX@Z             000000018004c258 f   MSVCRT:delete_array.obj
 0001:0004b260       ??0bad_alloc@std@@AEAA@QEBD@Z 000000018004c260 f i MSVCRT:throw_bad_alloc.obj
 0001:0004b278       ??0bad_alloc@std@@QEAA@AEBV01@@Z 000000018004c278 f i MSVCRT:throw_bad_alloc.obj
 0001:0004b2b8       ??0bad_alloc@std@@QEAA@XZ  000000018004c2b8 f i MSVCRT:throw_bad_alloc.obj
 0001:0004b2d8       ??0bad_array_new_length@std@@QEAA@AEBV01@@Z 000000018004c2d8 f i MSVCRT:throw_bad_alloc.obj
 0001:0004b318       ??0bad_array_new_length@std@@QEAA@XZ 000000018004c318 f i MSVCRT:throw_bad_alloc.obj
 0001:0004b338       ??0exception@std@@QEAA@AEBV01@@Z 000000018004c338 f i MSVCRT:throw_bad_alloc.obj
 0001:0004b370       ??0exception@std@@QEAA@QEBDH@Z 000000018004c370 f i MSVCRT:throw_bad_alloc.obj
 0001:0004b388       ??1bad_alloc@std@@UEAA@XZ  000000018004c388 f i MSVCRT:throw_bad_alloc.obj
 0001:0004b39c       ??1bad_array_new_length@std@@UEAA@XZ 000000018004c39c f i MSVCRT:throw_bad_alloc.obj
 0001:0004b3b0       ??1exception@std@@UEAA@XZ  000000018004c3b0 f i MSVCRT:throw_bad_alloc.obj
 0001:0004b3c4       ??_Ebad_alloc@std@@UEAAPEAXI@Z 000000018004c3c4 f i MSVCRT:throw_bad_alloc.obj
 0001:0004b3c4       ??_Gbad_alloc@std@@UEAAPEAXI@Z 000000018004c3c4 f i MSVCRT:throw_bad_alloc.obj
 0001:0004b408       ??_Gbad_array_new_length@std@@UEAAPEAXI@Z 000000018004c408 f i MSVCRT:throw_bad_alloc.obj
 0001:0004b408       ??_Ebad_array_new_length@std@@UEAAPEAXI@Z 000000018004c408 f i MSVCRT:throw_bad_alloc.obj
 0001:0004b44c       ??_Eexception@std@@UEAAPEAXI@Z 000000018004c44c f i MSVCRT:throw_bad_alloc.obj
 0001:0004b44c       ??_Gexception@std@@UEAAPEAXI@Z 000000018004c44c f i MSVCRT:throw_bad_alloc.obj
 0001:0004b490       ?__scrt_throw_std_bad_alloc@@YAXXZ 000000018004c490 f   MSVCRT:throw_bad_alloc.obj
 0001:0004b4b0       ?__scrt_throw_std_bad_array_new_length@@YAXXZ 000000018004c4b0 f   MSVCRT:throw_bad_alloc.obj
 0001:0004b4d0       ?what@exception@std@@UEBAPEBDXZ 000000018004c4d0 f i MSVCRT:throw_bad_alloc.obj
 0001:0004b4e4       ??3@YAXPEAX@Z              000000018004c4e4 f   MSVCRT:delete_scalar.obj
 0001:0004b4ec       _guard_check_icall_nop     000000018004c4ec f i MSVCRT:guard_support.obj
 0001:0004b4f0       ReadNoFence64              000000018004c4f0 f i MSVCRT:guard_support.obj
 0001:0004b4f4       ReadPointerNoFence         000000018004c4f4 f i MSVCRT:guard_support.obj
 0001:0004b4f8       _guard_icall_checks_enforced 000000018004c4f8 f i MSVCRT:guard_support.obj
 0001:0004b510       _guard_rf_checks_enforced  000000018004c510 f i MSVCRT:guard_support.obj
 0001:0004b580       __security_init_cookie     000000018004c580 f   MSVCRT:gs_support.obj
 0001:0004b62c       DllMain                    000000018004c62c f   MSVCRT:dll_dllmain_stub.obj
 0001:0004b650       ?__scrt_initialize_type_info@@YAXXZ 000000018004c650 f   MSVCRT:tncleanup.obj
 0001:0004b660       ?__scrt_uninitialize_type_info@@YAXXZ 000000018004c660 f   MSVCRT:tncleanup.obj
 0001:0004b66c       __scrt_initialize_default_local_stdio_options 000000018004c66c f   MSVCRT:default_local_stdio_options.obj
 0001:0004b688       __scrt_get_dyn_tls_init_callback 000000018004c688 f   MSVCRT:dyn_tls_init.obj
 0001:0004b690       __crt_debugger_hook        000000018004c690 f   MSVCRT:utility_desktop.obj
 0001:0004b698       __scrt_fastfail            000000018004c698 f   MSVCRT:utility_desktop.obj
 0001:0004b7e4       __scrt_get_show_window_mode 000000018004c7e4 f   MSVCRT:utility_desktop.obj
 0001:0004b820       __scrt_initialize_mta      000000018004c820 f   MSVCRT:utility_desktop.obj
 0001:0004b828       __scrt_initialize_winrt    000000018004c828 f   MSVCRT:utility_desktop.obj
 0001:0004b82c       __scrt_is_managed_app      000000018004c82c f   MSVCRT:utility_desktop.obj
 0001:0004b880       __scrt_set_unhandled_exception_filter 000000018004c880 f   MSVCRT:utility_desktop.obj
 0001:0004b890       __scrt_exe_initialize_mta  000000018004c890 f   MSVCRT:utility_desktop.obj
 0001:0004b890       __scrt_stub_for_initialize_mta 000000018004c890 f   MSVCRT:utility_desktop.obj
 0001:0004b894       __scrt_unhandled_exception_filter 000000018004c894 f   MSVCRT:utility_desktop.obj
 0001:0004b8cc       _RTC_Initialize            000000018004c8cc f   MSVCRT:initsect.obj
 0001:0004b908       _RTC_Terminate             000000018004c908 f   MSVCRT:initsect.obj
 0001:0004b944       __isa_available_init       000000018004c944 f   MSVCRT:cpu_disp.obj
 0001:0004bac0       _get_startup_argv_mode     000000018004cac0 f   MSVCRT:argv_mode.obj
 0001:0004bac8       __scrt_is_ucrt_dll_in_use  000000018004cac8 f   MSVCRT:ucrt_detection.obj
 0001:0004bae0       _purecall                  000000018004cae0 f   vcruntime:VCRUNTIME140.dll
 0001:0004bae6       __std_terminate            000000018004cae6 f   vcruntime:VCRUNTIME140.dll
 0001:0004baec       memcpy                     000000018004caec f   vcruntime:VCRUNTIME140.dll
 0001:0004baf2       memmove                    000000018004caf2 f   vcruntime:VCRUNTIME140.dll
 0001:0004baf8       _CxxThrowException         000000018004caf8 f   vcruntime:VCRUNTIME140.dll
 0001:0004bafe       __CxxFrameHandler3         000000018004cafe f   vcruntime:VCRUNTIME140.dll
 0001:0004bb04       memcmp                     000000018004cb04 f   vcruntime:VCRUNTIME140.dll
 0001:0004bb0a       memchr                     000000018004cb0a f   vcruntime:VCRUNTIME140.dll
 0001:0004bb10       strstr                     000000018004cb10 f   vcruntime:VCRUNTIME140.dll
 0001:0004bb16       memset                     000000018004cb16 f   vcruntime:VCRUNTIME140.dll
 0001:0004bb1c       __C_specific_handler       000000018004cb1c f   vcruntime:VCRUNTIME140.dll
 0001:0004bb22       __std_exception_copy       000000018004cb22 f   vcruntime:VCRUNTIME140.dll
 0001:0004bb28       __std_exception_destroy    000000018004cb28 f   vcruntime:VCRUNTIME140.dll
 0001:0004bb2e       __std_type_info_destroy_list 000000018004cb2e f   vcruntime:VCRUNTIME140.dll
 0001:0004bb34       _invalid_parameter_noinfo_noreturn 000000018004cb34 f   ucrt:api-ms-win-crt-runtime-l1-1-0.dll
 0001:0004bb3a       free                       000000018004cb3a f   ucrt:api-ms-win-crt-heap-l1-1-0.dll
 0001:0004bb40       malloc                     000000018004cb40 f   ucrt:api-ms-win-crt-heap-l1-1-0.dll
 0001:0004bb46       fclose                     000000018004cb46 f   ucrt:api-ms-win-crt-stdio-l1-1-0.dll
 0001:0004bb4c       fflush                     000000018004cb4c f   ucrt:api-ms-win-crt-stdio-l1-1-0.dll
 0001:0004bb52       fopen                      000000018004cb52 f   ucrt:api-ms-win-crt-stdio-l1-1-0.dll
 0001:0004bb58       fwrite                     000000018004cb58 f   ucrt:api-ms-win-crt-stdio-l1-1-0.dll
 0001:0004bb5e       strcpy                     000000018004cb5e f   ucrt:api-ms-win-crt-string-l1-1-0.dll
 0001:0004bb64       strlen                     000000018004cb64 f   ucrt:api-ms-win-crt-string-l1-1-0.dll
 0001:0004bb6a       strcat                     000000018004cb6a f   ucrt:api-ms-win-crt-string-l1-1-0.dll
 0001:0004bb70       strcmp                     000000018004cb70 f   ucrt:api-ms-win-crt-string-l1-1-0.dll
 0001:0004bb76       strncmp                    000000018004cb76 f   ucrt:api-ms-win-crt-string-l1-1-0.dll
 0001:0004bb7c       strncpy                    000000018004cb7c f   ucrt:api-ms-win-crt-string-l1-1-0.dll
 0001:0004bb82       fgetc                      000000018004cb82 f   ucrt:api-ms-win-crt-stdio-l1-1-0.dll
 0001:0004bb88       _itoa                      000000018004cb88 f   ucrt:api-ms-win-crt-convert-l1-1-0.dll
 0001:0004bb8e       tolower                    000000018004cb8e f   ucrt:api-ms-win-crt-string-l1-1-0.dll
 0001:0004bb94       __acrt_iob_func            000000018004cb94 f   ucrt:api-ms-win-crt-stdio-l1-1-0.dll
 0001:0004bb9a       fputs                      000000018004cb9a f   ucrt:api-ms-win-crt-stdio-l1-1-0.dll
 0001:0004bba0       __stdio_common_vsnprintf_s 000000018004cba0 f   ucrt:api-ms-win-crt-stdio-l1-1-0.dll
 0001:0004bba6       fread                      000000018004cba6 f   ucrt:api-ms-win-crt-stdio-l1-1-0.dll
 0001:0004bbac       atoi                       000000018004cbac f   ucrt:api-ms-win-crt-convert-l1-1-0.dll
 0001:0004bbb2       __stdio_common_vfprintf    000000018004cbb2 f   ucrt:api-ms-win-crt-stdio-l1-1-0.dll
 0001:0004bbb8       __stdio_common_vsscanf     000000018004cbb8 f   ucrt:api-ms-win-crt-stdio-l1-1-0.dll
 0001:0004bbbe       strtok                     000000018004cbbe f   ucrt:api-ms-win-crt-string-l1-1-0.dll
 0001:0004bbc4       _callnewh                  000000018004cbc4 f   ucrt:api-ms-win-crt-heap-l1-1-0.dll
 0001:0004bbca       terminate                  000000018004cbca f   ucrt:api-ms-win-crt-runtime-l1-1-0.dll
 0001:0004bbd0       _initterm                  000000018004cbd0 f   ucrt:api-ms-win-crt-runtime-l1-1-0.dll
 0001:0004bbd6       _initterm_e                000000018004cbd6 f   ucrt:api-ms-win-crt-runtime-l1-1-0.dll
 0001:0004bbdc       _seh_filter_dll            000000018004cbdc f   ucrt:api-ms-win-crt-runtime-l1-1-0.dll
 0001:0004bbe2       _configure_narrow_argv     000000018004cbe2 f   ucrt:api-ms-win-crt-runtime-l1-1-0.dll
 0001:0004bbe8       _initialize_narrow_environment 000000018004cbe8 f   ucrt:api-ms-win-crt-runtime-l1-1-0.dll
 0001:0004bbee       _initialize_onexit_table   000000018004cbee f   ucrt:api-ms-win-crt-runtime-l1-1-0.dll
 0001:0004bbf4       _register_onexit_function  000000018004cbf4 f   ucrt:api-ms-win-crt-runtime-l1-1-0.dll
 0001:0004bbfa       _execute_onexit_table      000000018004cbfa f   ucrt:api-ms-win-crt-runtime-l1-1-0.dll
 0001:0004bc00       _crt_atexit                000000018004cc00 f   ucrt:api-ms-win-crt-runtime-l1-1-0.dll
 0001:0004bc06       _crt_at_quick_exit         000000018004cc06 f   ucrt:api-ms-win-crt-runtime-l1-1-0.dll
 0001:0004bc0c       _cexit                     000000018004cc0c f   ucrt:api-ms-win-crt-runtime-l1-1-0.dll
 0001:0004bc12       RtlCaptureContext          000000018004cc12 f   kernel32:KERNEL32.dll
 0001:0004bc18       RtlLookupFunctionEntry     000000018004cc18 f   kernel32:KERNEL32.dll
 0001:0004bc1e       RtlVirtualUnwind           000000018004cc1e f   kernel32:KERNEL32.dll
 0001:0004bc24       UnhandledExceptionFilter   000000018004cc24 f   kernel32:KERNEL32.dll
 0001:0004bc2a       SetUnhandledExceptionFilter 000000018004cc2a f   kernel32:KERNEL32.dll
 0001:0004bc30       TerminateProcess           000000018004cc30 f   kernel32:KERNEL32.dll
 0001:0004bc36       IsProcessorFeaturePresent  000000018004cc36 f   kernel32:KERNEL32.dll
 0001:0004bc3c       QueryPerformanceCounter    000000018004cc3c f   kernel32:KERNEL32.dll
 0001:0004bc42       GetCurrentProcessId        000000018004cc42 f   kernel32:KERNEL32.dll
 0001:0004bc48       GetCurrentThreadId         000000018004cc48 f   kernel32:KERNEL32.dll
 0001:0004bc4e       GetSystemTimeAsFileTime    000000018004cc4e f   kernel32:KERNEL32.dll
 0001:0004bc54       DisableThreadLibraryCalls  000000018004cc54 f   kernel32:KERNEL32.dll
 0001:0004bc5a       InitializeSListHead        000000018004cc5a f   kernel32:KERNEL32.dll
 0001:0004bc60       IsDebuggerPresent          000000018004cc60 f   kernel32:KERNEL32.dll
 0001:0004bc66       GetStartupInfoW            000000018004cc66 f   kernel32:KERNEL32.dll
 0001:0004bc6c       GetModuleHandleW           000000018004cc6c f   kernel32:KERNEL32.dll
 0001:0004bc74       __scrt_stub_for_acrt_initialize 000000018004cc74 f   MSVCRT:ucrt_stubs.obj
 0001:0004bc74       __vcrt_initialize          000000018004cc74 f   MSVCRT:ucrt_stubs.obj
 0001:0004bc74       __acrt_initialize          000000018004cc74 f   MSVCRT:ucrt_stubs.obj
 0001:0004bc78       __acrt_thread_attach       000000018004cc78 f   MSVCRT:ucrt_stubs.obj
 0001:0004bc78       __scrt_stub_for_acrt_thread_attach 000000018004cc78 f   MSVCRT:ucrt_stubs.obj
 0001:0004bc78       __vcrt_thread_attach       000000018004cc78 f   MSVCRT:ucrt_stubs.obj
 0001:0004bc7c       __vcrt_thread_detach       000000018004cc7c f   MSVCRT:ucrt_stubs.obj
 0001:0004bc7c       __acrt_thread_detach       000000018004cc7c f   MSVCRT:ucrt_stubs.obj
 0001:0004bc7c       __scrt_stub_for_acrt_thread_detach 000000018004cc7c f   MSVCRT:ucrt_stubs.obj
 0001:0004bc80       __acrt_uninitialize        000000018004cc80 f   MSVCRT:ucrt_stubs.obj
 0001:0004bc80       __vcrt_uninitialize        000000018004cc80 f   MSVCRT:ucrt_stubs.obj
 0001:0004bc80       __scrt_stub_for_acrt_uninitialize 000000018004cc80 f   MSVCRT:ucrt_stubs.obj
 0001:0004bc84       __vcrt_uninitialize_critical 000000018004cc84 f   MSVCRT:ucrt_stubs.obj
 0001:0004bc84       __acrt_uninitialize_critical 000000018004cc84 f   MSVCRT:ucrt_stubs.obj
 0001:0004bc84       __scrt_stub_for_acrt_uninitialize_critical 000000018004cc84 f   MSVCRT:ucrt_stubs.obj
 0001:0004bc88       __scrt_stub_for_is_c_termination_complete 000000018004cc88 f   MSVCRT:ucrt_stubs.obj
 0001:0004bc88       _is_c_termination_complete 000000018004cc88 f   MSVCRT:ucrt_stubs.obj
 0001:0004bca0       _guard_dispatch_icall_nop  000000018004cca0 f   MSVCRT:guard_dispatch.obj
 0002:00000000       __imp_GetModuleHandleW     0000000180053000     kernel32:KERNEL32.dll
 0002:00000008       __imp_GetStartupInfoW      0000000180053008     kernel32:KERNEL32.dll
 0002:00000010       __imp_IsDebuggerPresent    0000000180053010     kernel32:KERNEL32.dll
 0002:00000018       __imp_InitializeSListHead  0000000180053018     kernel32:KERNEL32.dll
 0002:00000020       __imp_DisableThreadLibraryCalls 0000000180053020     kernel32:KERNEL32.dll
 0002:00000028       __imp_GetCurrentProcess    0000000180053028     kernel32:KERNEL32.dll
 0002:00000030       __imp_GetModuleHandleA     0000000180053030     kernel32:KERNEL32.dll
 0002:00000038       __imp_ExitProcess          0000000180053038     kernel32:KERNEL32.dll
 0002:00000040       __imp_GetCurrentProcessId  0000000180053040     kernel32:KERNEL32.dll
 0002:00000048       __imp_QueryPerformanceCounter 0000000180053048     kernel32:KERNEL32.dll
 0002:00000050       __imp_IsProcessorFeaturePresent 0000000180053050     kernel32:KERNEL32.dll
 0002:00000058       __imp_TerminateProcess     0000000180053058     kernel32:KERNEL32.dll
 0002:00000060       __imp_SetUnhandledExceptionFilter 0000000180053060     kernel32:KERNEL32.dll
 0002:00000068       __imp_UnhandledExceptionFilter 0000000180053068     kernel32:KERNEL32.dll
 0002:00000070       __imp_RtlVirtualUnwind     0000000180053070     kernel32:KERNEL32.dll
 0002:00000078       __imp_RtlLookupFunctionEntry 0000000180053078     kernel32:KERNEL32.dll
 0002:00000080       __imp_RtlCaptureContext    0000000180053080     kernel32:KERNEL32.dll
 0002:00000088       __imp_GetSystemTimeAsFileTime 0000000180053088     kernel32:KERNEL32.dll
 0002:00000090       __imp_GetCurrentThreadId   0000000180053090     kernel32:KERNEL32.dll
 0002:00000098       \177KERNEL32_NULL_THUNK_DATA 0000000180053098     kernel32:KERNEL32.dll
 0002:000000a0       __imp_?_Xout_of_range@std@@YAXPEBD@Z 00000001800530a0     msvcprt:MSVCP140.dll
 0002:000000a8       __imp_?_Xlength_error@std@@YAXPEBD@Z 00000001800530a8     msvcprt:MSVCP140.dll
 0002:000000b0       \177MSVCP140_NULL_THUNK_DATA 00000001800530b0     msvcprt:MSVCP140.dll
 0002:000000b8       __imp___std_exception_copy 00000001800530b8     vcruntime:VCRUNTIME140.dll
 0002:000000c0       __imp___std_exception_destroy 00000001800530c0     vcruntime:VCRUNTIME140.dll
 0002:000000c8       __imp___std_type_info_destroy_list 00000001800530c8     vcruntime:VCRUNTIME140.dll
 0002:000000d0       __imp___CxxFrameHandler3   00000001800530d0     vcruntime:VCRUNTIME140.dll
 0002:000000d8       __imp_memset               00000001800530d8     vcruntime:VCRUNTIME140.dll
 0002:000000e0       __imp_memcpy               00000001800530e0     vcruntime:VCRUNTIME140.dll
 0002:000000e8       __imp__CxxThrowException   00000001800530e8     vcruntime:VCRUNTIME140.dll
 0002:000000f0       __imp___std_terminate      00000001800530f0     vcruntime:VCRUNTIME140.dll
 0002:000000f8       __imp_memcmp               00000001800530f8     vcruntime:VCRUNTIME140.dll
 0002:00000100       __imp__purecall            0000000180053100     vcruntime:VCRUNTIME140.dll
 0002:00000108       __imp___C_specific_handler 0000000180053108     vcruntime:VCRUNTIME140.dll
 0002:00000110       __imp_strstr               0000000180053110     vcruntime:VCRUNTIME140.dll
 0002:00000118       __imp_memmove              0000000180053118     vcruntime:VCRUNTIME140.dll
 0002:00000120       __imp_memchr               0000000180053120     vcruntime:VCRUNTIME140.dll
 0002:00000128       \177VCRUNTIME140_NULL_THUNK_DATA 0000000180053128     vcruntime:VCRUNTIME140.dll
 0002:00000130       __imp__itoa                0000000180053130     ucrt:api-ms-win-crt-convert-l1-1-0.dll
 0002:00000138       __imp_atoi                 0000000180053138     ucrt:api-ms-win-crt-convert-l1-1-0.dll
 0002:00000140       \177api-ms-win-crt-convert-l1-1-0_NULL_THUNK_DATA 0000000180053140     ucrt:api-ms-win-crt-convert-l1-1-0.dll
 0002:00000148       __imp_free                 0000000180053148     ucrt:api-ms-win-crt-heap-l1-1-0.dll
 0002:00000150       __imp_malloc               0000000180053150     ucrt:api-ms-win-crt-heap-l1-1-0.dll
 0002:00000158       __imp__callnewh            0000000180053158     ucrt:api-ms-win-crt-heap-l1-1-0.dll
 0002:00000160       \177api-ms-win-crt-heap-l1-1-0_NULL_THUNK_DATA 0000000180053160     ucrt:api-ms-win-crt-heap-l1-1-0.dll
 0002:00000168       __imp__execute_onexit_table 0000000180053168     ucrt:api-ms-win-crt-runtime-l1-1-0.dll
 0002:00000170       __imp__cexit               0000000180053170     ucrt:api-ms-win-crt-runtime-l1-1-0.dll
 0002:00000178       __imp__register_onexit_function 0000000180053178     ucrt:api-ms-win-crt-runtime-l1-1-0.dll
 0002:00000180       __imp__initialize_onexit_table 0000000180053180     ucrt:api-ms-win-crt-runtime-l1-1-0.dll
 0002:00000188       __imp__invalid_parameter_noinfo_noreturn 0000000180053188     ucrt:api-ms-win-crt-runtime-l1-1-0.dll
 0002:00000190       __imp__crt_at_quick_exit   0000000180053190     ucrt:api-ms-win-crt-runtime-l1-1-0.dll
 0002:00000198       __imp__crt_atexit          0000000180053198     ucrt:api-ms-win-crt-runtime-l1-1-0.dll
 0002:000001a0       __imp_terminate            00000001800531a0     ucrt:api-ms-win-crt-runtime-l1-1-0.dll
 0002:000001a8       __imp__initterm            00000001800531a8     ucrt:api-ms-win-crt-runtime-l1-1-0.dll
 0002:000001b0       __imp__initterm_e          00000001800531b0     ucrt:api-ms-win-crt-runtime-l1-1-0.dll
 0002:000001b8       __imp__seh_filter_dll      00000001800531b8     ucrt:api-ms-win-crt-runtime-l1-1-0.dll
 0002:000001c0       __imp__configure_narrow_argv 00000001800531c0     ucrt:api-ms-win-crt-runtime-l1-1-0.dll
 0002:000001c8       __imp__initialize_narrow_environment 00000001800531c8     ucrt:api-ms-win-crt-runtime-l1-1-0.dll
 0002:000001d0       \177api-ms-win-crt-runtime-l1-1-0_NULL_THUNK_DATA 00000001800531d0     ucrt:api-ms-win-crt-runtime-l1-1-0.dll
 0002:000001d8       __imp_fread                00000001800531d8     ucrt:api-ms-win-crt-stdio-l1-1-0.dll
 0002:000001e0       __imp___stdio_common_vsnprintf_s 00000001800531e0     ucrt:api-ms-win-crt-stdio-l1-1-0.dll
 0002:000001e8       __imp___acrt_iob_func      00000001800531e8     ucrt:api-ms-win-crt-stdio-l1-1-0.dll
 0002:000001f0       __imp_fclose               00000001800531f0     ucrt:api-ms-win-crt-stdio-l1-1-0.dll
 0002:000001f8       __imp___stdio_common_vfprintf 00000001800531f8     ucrt:api-ms-win-crt-stdio-l1-1-0.dll
 0002:00000200       __imp___stdio_common_vsscanf 0000000180053200     ucrt:api-ms-win-crt-stdio-l1-1-0.dll
 0002:00000208       __imp_fgetc                0000000180053208     ucrt:api-ms-win-crt-stdio-l1-1-0.dll
 0002:00000210       __imp_fflush               0000000180053210     ucrt:api-ms-win-crt-stdio-l1-1-0.dll
 0002:00000218       __imp_fopen                0000000180053218     ucrt:api-ms-win-crt-stdio-l1-1-0.dll
 0002:00000220       __imp_fwrite               0000000180053220     ucrt:api-ms-win-crt-stdio-l1-1-0.dll
 0002:00000228       __imp_fputs                0000000180053228     ucrt:api-ms-win-crt-stdio-l1-1-0.dll
 0002:00000230       \177api-ms-win-crt-stdio-l1-1-0_NULL_THUNK_DATA 0000000180053230     ucrt:api-ms-win-crt-stdio-l1-1-0.dll
 0002:00000238       __imp_strtok               0000000180053238     ucrt:api-ms-win-crt-string-l1-1-0.dll
 0002:00000240       __imp_tolower              0000000180053240     ucrt:api-ms-win-crt-string-l1-1-0.dll
 0002:00000248       __imp_strncmp              0000000180053248     ucrt:api-ms-win-crt-string-l1-1-0.dll
 0002:00000250       __imp_strcmp               0000000180053250     ucrt:api-ms-win-crt-string-l1-1-0.dll
 0002:00000258       __imp_strcat               0000000180053258     ucrt:api-ms-win-crt-string-l1-1-0.dll
 0002:00000260       __imp_strlen               0000000180053260     ucrt:api-ms-win-crt-string-l1-1-0.dll
 0002:00000268       __imp_strcpy               0000000180053268     ucrt:api-ms-win-crt-string-l1-1-0.dll
 0002:00000270       __imp_strncpy              0000000180053270     ucrt:api-ms-win-crt-string-l1-1-0.dll
 0002:00000278       \177api-ms-win-crt-string-l1-1-0_NULL_THUNK_DATA 0000000180053278     ucrt:api-ms-win-crt-string-l1-1-0.dll
 0002:00000280       __imp_SymInitialize        0000000180053280     dbghelp:dbghelp.dll
 0002:00000288       __imp_SymCleanup           0000000180053288     dbghelp:dbghelp.dll
 0002:00000290       __imp_SymSetOptions        0000000180053290     dbghelp:dbghelp.dll
 0002:00000298       __imp_UnDecorateSymbolName 0000000180053298     dbghelp:dbghelp.dll
 0002:000002a0       \177dbghelp_NULL_THUNK_DATA 00000001800532a0     dbghelp:dbghelp.dll
 0002:000002a8       __guard_check_icall_fptr   00000001800532a8     MSVCRT:guard_support.obj
 0002:000002b0       __guard_dispatch_icall_fptr 00000001800532b0     MSVCRT:guard_support.obj
 0002:000002b8       __xc_a                     00000001800532b8     MSVCRT:initializers.obj
 0002:000002c8       __xc_z                     00000001800532c8     MSVCRT:initializers.obj
 0002:00000510       __xi_a                     0000000180053510     MSVCRT:initializers.obj
 0002:00000518       __xi_z                     0000000180053518     MSVCRT:initializers.obj
 0002:00000520       __xl_a                     0000000180053520     MSVCRT:tlssup.obj
 0002:00000538       __xl_z                     0000000180053538     MSVCRT:tlssup.obj
 0002:00000540       __xp_a                     0000000180053540     MSVCRT:initializers.obj
 0002:00000548       __xp_z                     0000000180053548     MSVCRT:initializers.obj
 0002:00000550       __xt_a                     0000000180053550     MSVCRT:initializers.obj
 0002:00000558       __xt_z                     0000000180053558     MSVCRT:initializers.obj
 0002:000020a0       ??_7IAllocator@clcpp@@6B@  00000001800550a0     CppExport.obj
 0002:000020b0       ??_C@_01NBENCBCI@?$CK@     00000001800550b0     CppExport.obj
 0002:000020b2       ??_C@_00CNPNBAHC@@         00000001800550b2     CppExport.obj
 0002:000020d0       ??_C@_02MOLJINC@?3?3@      00000001800550d0     CppExport.obj
 0002:000020d4       ??_C@_04GHJNJNPO@main@     00000001800550d4     CppExport.obj
 0002:000020e0       ??_C@_0CG@MDJLIOCC@Couldn?8t?5find?5iterator?5name?5for@ 00000001800550e0     CppExport.obj
 0002:00002108       ??_C@_0CL@FDAIMMDA@Couldn?8t?5find?5iterator?5type?5?8?$CFs@ 0000000180055108     CppExport.obj
 0002:00002138       ??_C@_0DF@MIMFEHAJ@Derived?5type?5?8?$CFs?8?5with?5base?5?8?$CFs@ 0000000180055138     CppExport.obj
 0002:00002170       ??_C@_0CL@BOCFCNL@Base?5type?5?8?$CFs?8?5of?5?8?$CFs?8?5could?5no@ 0000000180055170     CppExport.obj
 0002:0000219c       ??_C@_06LNOFJDNM@return@   000000018005519c     CppExport.obj
 0002:000021a8       ??_C@_0BC@FGHDFMKH@?3?3ConstructObject@ 00000001800551a8     CppExport.obj
 0002:000021c0       ??_C@_0BB@ICPDFNLK@?3?3DestructObject@ 00000001800551c0     CppExport.obj
 0002:000021d8       ??_C@_0P@INBEDDMJ@disk_transient@ 00000001800551d8     CppExport.obj
 0002:000021e8       ??_C@_0BC@DPGNAGKD@network_transient@ 00000001800551e8     CppExport.obj
 0002:00002200       ??_C@_0BE@PCKNHNLF@replicate_transient@ 0000000180055200     CppExport.obj
 0002:00002218       ??_C@_0BB@CNNAEMNF@export_transient@ 0000000180055218     CppExport.obj
 0002:00002230       ??_C@_09OGDMPJBP@transient@ 0000000180055230     CppExport.obj
 0002:00002240       ??_C@_08FGGIOGHA@pre_save@ 0000000180055240     CppExport.obj
 0002:00002250       ??_C@_09NJMFPGKA@post_load@ 0000000180055250     CppExport.obj
 0002:00002260       ??_C@_0M@POPLGGKK@custom_flag@ 0000000180055260     CppExport.obj
 0002:00002270       ??_C@_09CBPKCNMB@replicate@ 0000000180055270     CppExport.obj
 0002:0000227c       ??_C@_05NLAOMDOA@load_@    000000018005527c     CppExport.obj
 0002:00002284       ??_C@_05FKLCMINO@save_@    0000000180055284     CppExport.obj
 0002:00002290       ??_C@_0DH@EABEEPDJ@Attribute?5?8custom_flag?8?5must?5ha@ 0000000180055290     CppExport.obj
 0002:000022c8       ??_C@_0BE@JKGKNGLC@custom_flag_inherit@ 00000001800552c8     CppExport.obj
 0002:000022e0       ??_C@_0DH@LOMMFBAN@Primitive?5?8?$CFs?8?5couldn?8t?5find?5pa@ 00000001800552e0     CppExport.obj
 0002:00002320       ??_C@_0EK@CFBENCPI@Function?5parameter?5?8?$CFs?8?5within?5@ 0000000180055320     CppExport.obj
 0002:00002370       ??_C@_0ED@GBNIPBDC@Class?5field?5?8?$CFs?8?5within?5?8?$CFs?8?5co@ 0000000180055370     CppExport.obj
 0002:000023b8       ??_C@_0DM@DPBMCKMD@Unparented?5field?5?8?$CFs?8?5couldn?8t?5@ 00000001800553b8     CppExport.obj
 0002:000023f8       ??_C@_0DK@HLNKKBJF@Attribute?5?8?$CFs?8?5couldn?8t?5find?5pr@ 00000001800553f8     CppExport.obj
 0002:00002438       ??_C@_0DF@CCDGKHMC@Type?5?8?$CFs?8?5couldn?8t?5find?5base?5ty@ 0000000180055438     CppExport.obj
 0002:00002470       ??_C@_0EF@ELPJNOAN@Template?5parameter?5within?5?8?$CFs?8?5@ 0000000180055470     CppExport.obj
 0002:000024b8       ??_C@_03CNNAJPOM@wbc@      00000001800554b8     CppExport.obj
 0002:000024bc       ??_C@_06FDBINMNI@cppexp@   00000001800554bc     CppExport.obj
 0002:000024c8       ??_C@_08PIMMHPBP@flag?3?5?$CFs@ 00000001800554c8     CppExport.obj
 0002:000024d8       ??_C@_0N@KGHLDNON@int?3?5?$CFs?5?$DN?5?$CFd@ 00000001800554d8     CppExport.obj
 0002:000024e8       ??_C@_0P@FIHHNFLD@float?3?5?$CFs?5?$DN?5?$CFf@ 00000001800554e8     CppExport.obj
 0002:000024f8       ??_C@_0BD@ECENJKLN@primitive?3?5?$CFs?5?$DN?5?$CFs@ 00000001800554f8     CppExport.obj
 0002:00002510       ??_C@_0BP@PDBJEHEA@primitive?3?5?$CFs?5?$DN?5?$DM?$DMUNRESOLVED?$DO?$DO@ 0000000180055510     CppExport.obj
 0002:00002530       ??_C@_0O@PHGLELIH@text?3?5?$CFs?5?$DN?5?$CFs@ 0000000180055530     CppExport.obj
 0002:00002540       ??_C@_0BC@MONKGHEI@Attributes?5for?5?$CFs@ 0000000180055540     CppExport.obj
 0002:00002554       ??_C@_01EEMJAFIK@?6@       0000000180055554     CppExport.obj
 0002:00002558       ??_C@_06LIJLOJAG@const?5@  0000000180055558     CppExport.obj
 0002:00002560       ??_C@_02DKCKIIND@?$CFs@    0000000180055560     CppExport.obj
 0002:00002568       ??_C@_0BE@LHIGJMAN@?$DM?$DMUNRESOLVED?5TYPE?$DO?$DO@ 0000000180055568     CppExport.obj
 0002:0000257c       ??_C@_01HNPIGOCE@?$CG@     000000018005557c     CppExport.obj
 0002:00002580       ??_C@_03EEBNCBOD@?5?$CFs@  0000000180055580     CppExport.obj
 0002:00002584       ??_C@_04KBDJOJNB@?$FL?$CFd?$FN@ 0000000180055584     CppExport.obj
 0002:0000258c       ??_C@_01ICJEACDI@?$DL@     000000018005558c     CppExport.obj
 0002:00002590       ??_C@_04GKJNKENE@void@     0000000180055590     CppExport.obj
 0002:00002598       ??_C@_04GEBKAAEJ@?5?$CFs?$CI@ 0000000180055598     CppExport.obj
 0002:000025a0       ??_C@_02KEGNLNML@?0?5@     00000001800555a0     CppExport.obj
 0002:000025a4       ??_C@_02LJALELK@?$CJ?$DL@  00000001800555a4     CppExport.obj
 0002:000025a8       ??_C@_08KENEOPHL@?$CFs?5?$DN?5?$CFd?0@ 00000001800555a8     CppExport.obj
 0002:000025b8       ??_C@_08DKCMDALA@enum?5?$CFs?6@ 00000001800555b8     CppExport.obj
 0002:000025c4       ??_C@_02KCPFEJNG@?$HL?6@   00000001800555c4     CppExport.obj
 0002:000025c8       ??_C@_02GACFDCNG@?$HN?$DL@ 00000001800555c8     CppExport.obj
 0002:000025d0       ??_C@_08HPPPEAOF@class?5?$CFs@ 00000001800555d0     CppExport.obj
 0002:000025e0       ??_C@_0N@MCBNHDGA@?5?3?5public?5?$CFs@ 00000001800555e0     CppExport.obj
 0002:000025f0       ??_C@_0M@OGOHPAGE@?0?5public?5?$CFs@ 00000001800555f0     CppExport.obj
 0002:00002600       ??_C@_0N@ELEDBMBP@template?5?$CFs?6@ 0000000180055600     CppExport.obj
 0002:00002610       ??_C@_0O@MEJHNDKH@namespace?5?$CFs?6@ 0000000180055610     CppExport.obj
 0002:00002620       ??_C@_01CELHOKLL@?$HN@     0000000180055620     CppExport.obj
 0002:00002628       ??_C@_0BI@CFPLBAOH@invalid?5string?5position@ 0000000180055628     CppExport.obj
 0002:00002640       ??_C@_0BD@OLBABOEK@vector?$DMT?$DO?5too?5long@ 0000000180055640     CppExport.obj
 0002:00002658       ??_C@_0BA@JFNIOLAK@string?5too?5long@ 0000000180055658     CppExport.obj
 0002:00002668       ??_C@_0BE@JONHPENG@map?1set?$DMT?$DO?5too?5long@ 0000000180055668     CppExport.obj
 0002:00002a98       ??_7Attribute@cldb@@6B@    0000000180055a98     Main.obj
 0002:00002aa8       ??_7PrimitiveAttribute@cldb@@6B@ 0000000180055aa8     Main.obj
 0002:00002ab8       ??_7TextAttribute@cldb@@6B@ 0000000180055ab8     Main.obj
 0002:00002ac0       ??_C@_0BG@KLOHFDNB@Not?5enough?5arguments?6@ 0000000180055ac0     Main.obj
 0002:00002ae0       ??_C@_0EA@PLOEDOGK@Couldn?8t?5read?5?8?$CFs?8?5as?5binary?5or@ 0000000180055ae0     Main.obj
 0002:00002b20       ??_C@_04KPOKBEGI@?9map@    0000000180055b20     Main.obj
 0002:00002b28       ??_C@_0BG@BAIPPPPI@Parsing?5map?5file?3?5?$CFs?6@ 0000000180055b28     Main.obj
 0002:00002b40       ??_C@_04FCNBKKBM@?9cpp@    0000000180055b40     Main.obj
 0002:00002b48       ??_C@_08HBOCJFML@?9cpp_log@ 0000000180055b48     Main.obj
 0002:00002b60       __xmm@000000000000000f0000000000000000 0000000180055b60     Main.obj
 0002:00002c60       ??_C@_0BB@MOGOBHAF@list?$DMT?$DO?5too?5long@ 0000000180055c60     PtrRelocator.obj
 0002:000030b0       ??_C@_07KOLFKCDI@__cdecl@  00000001800560b0     MapFileParser.obj
 0002:000030b8       ??_C@_09IFJBGAPI@__stdcall@ 00000001800560b8     MapFileParser.obj
 0002:000030c8       ??_C@_0L@JMKHOMEK@__fastcall@ 00000001800560c8     MapFileParser.obj
 0002:000030d4       ??_C@_06PBJBIPGK@struct@   00000001800560d4     MapFileParser.obj
 0002:000030dc       ??_C@_05ENKANFLO@class@    00000001800560dc     MapFileParser.obj
 0002:000030e4       ??_C@_04DBJPMPLO@enum@     00000001800560e4     MapFileParser.obj
 0002:000030ec       ??_C@_05BNCCCJPP@const@    00000001800560ec     MapFileParser.obj
 0002:000030f8       ??_C@_0L@NPHFGOKO@__thiscall@ 00000001800560f8     MapFileParser.obj
 0002:00003108       ??_C@_08CLLOMHGD@unsigned@ 0000000180056108     MapFileParser.obj
 0002:00003114       ??_C@_06CPIODIKA@signed@   0000000180056114     MapFileParser.obj
 0002:0000311c       ??_C@_01CLKCMJKC@?5@       000000018005611c     MapFileParser.obj
 0002:00003120       ??_C@_07LFCOJCAC@__int64@  0000000180056120     MapFileParser.obj
 0002:00003128       ??_C@_09IPNKJOIF@long?5long@ 0000000180056128     MapFileParser.obj
 0002:00003138       ??_C@_0BF@JLNBGCIK@clcppConstructObject@ 0000000180056138     MapFileParser.obj
 0002:00003150       ??_C@_0BE@PHMLODEP@clcppDestructObject@ 0000000180056150     MapFileParser.obj
 0002:00003168       ??_C@_0BI@IIPJBEOB@clcpp?3?3GetTypeNameHash?$DM@ 0000000180056168     MapFileParser.obj
 0002:00003180       ??_C@_0BA@NAMCBLON@clcpp?3?3GetType?$DM@ 0000000180056180     MapFileParser.obj
 0002:00003190       ??_C@_0DE@GBPKCCBM@Couldn?8t?5locate?5function?5name?5i@ 0000000180056190     MapFileParser.obj
 0002:000031c8       ??_C@_0DD@LHDJDOGL@Couldn?8t?5locate?5left?5bracket?5in@ 00000001800561c8     MapFileParser.obj
 0002:00003200       ??_C@_0DE@JGFBHOFJ@Couldn?8t?5locate?5right?5bracket?5i@ 0000000180056200     MapFileParser.obj
 0002:00003240       ??_C@_0FA@NIPHBHBD@Function?5declaration?5says?5it?8s?5@ 0000000180056240     MapFileParser.obj
 0002:00003290       ??_C@_07DIBCDNGL@struct?5@ 0000000180056290     MapFileParser.obj
 0002:00003298       ??_C@_06LJBABKPM@class?5@  0000000180056298     MapFileParser.obj
 0002:000032a0       ??_C@_05LJGMCFOG@enum?5@   00000001800562a0     MapFileParser.obj
 0002:000032a8       ??_C@_0DO@JPNANCEG@Couldn?8t?5locate?5opening?5angle?5b@ 00000001800562a8     MapFileParser.obj
 0002:000032e8       ??_C@_0DO@JEJAGKKF@Couldn?8t?5locate?5closing?5angle?5b@ 00000001800562e8     MapFileParser.obj
 0002:00003328       ??_C@_0DA@NBLLDJOJ@GetType?5can?8t?5be?5used?5for?5unref@ 0000000180056328     MapFileParser.obj
 0002:00003358       ??_C@_0DH@NIMEBLHH@Couldn?8t?5locate?5opening?5bracket@ 0000000180056358     MapFileParser.obj
 0002:00003390       ??_C@_0EN@LPBBJFIE@Couldn?8t?5locate?5pointer?5charact@ 0000000180056390     MapFileParser.obj
 0002:000033e0       ??_C@_04IIAJELJL@this@     00000001800563e0     MapFileParser.obj
 0002:000033e8       ??_C@_0BA@LHGNINMG@ConstructObject@ 00000001800563e8     MapFileParser.obj
 0002:000033f8       ??_C@_0P@JCLKCEPB@DestructObject@ 00000001800563f8     MapFileParser.obj
 0002:00003410       ??_C@_0EO@CDEOEKEA@Couldn?8t?5initialise?5symbol?5hand@ 0000000180056410     MapFileParser.obj
 0002:00003460       ??_C@_0DH@LCHLFNIB@Function?5?8?$CFs?8?5is?5not?5a?5function@ 0000000180056460     MapFileParser.obj
 0002:00003498       ??_C@_02JDPG@rb@           0000000180056498     MapFileParser.obj
 0002:000034a0       ??_C@_09FDNLJJB@?5?5Address@ 00000001800564a0     MapFileParser.obj
 0002:000034b0       ??_C@_0BL@MLMKNPDC@Preferred?5load?5address?5is?5@ 00000001800564b0     MapFileParser.obj
 0002:000034f8       ??_C@_0BB@JCEFLFJE@0123456789abcdef@ 00000001800564f8     clReflectCore:FileUtils.obj
 0002:00003698       ??_C@_01NOFIACDB@w@        0000000180056698     clReflectCore:Logging.obj
 0002:000036a0       ??_C@_09PIEMHOIP@WARNING?3?5@ 00000001800566a0     clReflectCore:Logging.obj
 0002:000036b0       ??_C@_07JHDPBCI@ERROR?3?5@ 00000001800566b0     clReflectCore:Logging.obj
 0002:00003d50       ??_C@_04DDKJGDCM@bool@     0000000180056d50     clReflectCore:Database.obj
 0002:00003d58       ??_C@_04ENMBGAPA@char@     0000000180056d58     clReflectCore:Database.obj
 0002:00003d60       ??_C@_0O@PPAIJIHF@unsigned?5char@ 0000000180056d60     clReflectCore:Database.obj
 0002:00003d70       ??_C@_07CLGGIAMF@wchar_t@  0000000180056d70     clReflectCore:Database.obj
 0002:00003d78       ??_C@_05BFKKPKCG@short@    0000000180056d78     clReflectCore:Database.obj
 0002:00003d80       ??_C@_0P@IIMKEEHB@unsigned?5short@ 0000000180056d80     clReflectCore:Database.obj
 0002:00003d90       ??_C@_03JBIPMCLC@int@      0000000180056d90     clReflectCore:Database.obj
 0002:00003d98       ??_C@_0N@OFHMGPAL@unsigned?5int@ 0000000180056d98     clReflectCore:Database.obj
 0002:00003da8       ??_C@_04GOKPGOLB@long@     0000000180056da8     clReflectCore:Database.obj
 0002:00003db0       ??_C@_0O@NMGGJGDE@unsigned?5long@ 0000000180056db0     clReflectCore:Database.obj
 0002:00003dc0       ??_C@_05KNFBNCOH@float@    0000000180056dc0     clReflectCore:Database.obj
 0002:00003dc8       ??_C@_06BNJCAIGJ@double@   0000000180056dc8     clReflectCore:Database.obj
 0002:00003dd0       ??_C@_0BD@PNIDPONK@unsigned?5long?5long@ 0000000180056dd0     clReflectCore:Database.obj
 0002:00003de4       ??_C@_02NOFGAPG@?$DM?9@    0000000180056de4     clReflectCore:Database.obj
 0002:00005480       ??_7FlagAttribute@cldb@@6B@ 0000000180058480     clReflectCore:DatabaseBinarySerialiser.obj
 0002:00005490       ??_7IntAttribute@cldb@@6B@ 0000000180058490     clReflectCore:DatabaseBinarySerialiser.obj
 0002:000054a0       ??_7FloatAttribute@cldb@@6B@ 00000001800584a0     clReflectCore:DatabaseBinarySerialiser.obj
 0002:000059b0       ??_C@_02NJPGOMH@?$CFf@     00000001800589b0     clReflectCore:DatabaseTextSerialiser.obj
 0002:000059c0       ??_C@_0EL@KPKPKFDH@?9?9?9?9?5?9?9?9?9?9?9?9?9?9?9?9?9?9?9?9?9?9?9?9?9?9?9?9?9?9?9@ 00000001800589c0     clReflectCore:DatabaseTextSerialiser.obj
 0002:00005a10       ??_C@_0EL@MMOIOEPI@?9?9?9?9?9?9?9?9?9?9?9?9?9?9?9?9?9?9?9?9?9?9?9?9?9?9?9?9?9?9?9@ 0000000180058a10     clReflectCore:DatabaseTextSerialiser.obj
 0002:00005a5c       ??_C@_02PHMGELLB@?6?6@     0000000180058a5c     clReflectCore:DatabaseTextSerialiser.obj
 0002:00005a60       ??_C@_01GPOEFGEJ@?7@       0000000180058a60     clReflectCore:DatabaseTextSerialiser.obj
 0002:00005a64       ??_C@_02MJDCBKNA@?71@      0000000180058a64     clReflectCore:DatabaseTextSerialiser.obj
 0002:00005a68       ??_C@_02NACJCLJB@?70@      0000000180058a68     clReflectCore:DatabaseTextSerialiser.obj
 0002:00005a6c       ??_C@_01EFFIKLCJ@n@        0000000180058a6c     clReflectCore:DatabaseTextSerialiser.obj
 0002:00005a70       ??_C@_01PAPGNFGE@c@        0000000180058a70     clReflectCore:DatabaseTextSerialiser.obj
 0002:00005a74       ??_C@_01LKDEMHDF@s@        0000000180058a74     clReflectCore:DatabaseTextSerialiser.obj
 0002:00005a78       ??_C@_01MHEDDDHA@v@        0000000180058a78     clReflectCore:DatabaseTextSerialiser.obj
 0002:00005a7c       ??_C@_01JBBJJEPG@p@        0000000180058a7c     clReflectCore:DatabaseTextSerialiser.obj
 0002:00005a80       ??_C@_01KDCPPGHE@r@        0000000180058a80     clReflectCore:DatabaseTextSerialiser.obj
 0002:00005a84       ??_C@_02NOKNKGCL@?7?7@     0000000180058a84     clReflectCore:DatabaseTextSerialiser.obj
 0002:00005a88       ??_C@_0L@ICLNDICN@Hash?7?7Name@ 0000000180058a88     clReflectCore:DatabaseTextSerialiser.obj
 0002:00005a94       ??_C@_05FMHPGHJN@Names@    0000000180058a94     clReflectCore:DatabaseTextSerialiser.obj
 0002:00005a9c       ??_C@_02BPNAGAFM@wc@       0000000180058a9c     clReflectCore:DatabaseTextSerialiser.obj
 0002:00005aa0       ??_C@_0BF@OAJNGHPP@?6clReflect?5Database?6@ 0000000180058aa0     clReflectCore:DatabaseTextSerialiser.obj
 0002:00005ab8       ??_C@_0BB@FOJCIAKO@Format?5Version?3?5@ 0000000180058ab8     clReflectCore:DatabaseTextSerialiser.obj
 0002:00005acc       ??_C@_03EGHOKNNL@?6?6?6@   0000000180058acc     clReflectCore:DatabaseTextSerialiser.obj
 0002:00005ad0       ??_C@_0BD@FDNMGDJM@Name?7?7Parent?7?7Size@ 0000000180058ad0     clReflectCore:DatabaseTextSerialiser.obj
 0002:00005ae4       ??_C@_05MNBBFGB@Types@     0000000180058ae4     clReflectCore:DatabaseTextSerialiser.obj
 0002:00005af0       ??_C@_0BE@OIIJONKP@Name?7?7Parent?7?7Value@ 0000000180058af0     clReflectCore:DatabaseTextSerialiser.obj
 0002:00005b08       ??_C@_0P@FHOIDPKL@Enum?5Constants@ 0000000180058b08     clReflectCore:DatabaseTextSerialiser.obj
 0002:00005b18       ??_C@_0BL@MIFPFKEP@Name?7?7Parent?7?7Size?7?7Scoped@ 0000000180058b18     clReflectCore:DatabaseTextSerialiser.obj
 0002:00005b34       ??_C@_05CPFGCOEH@Enums@    0000000180058b34     clReflectCore:DatabaseTextSerialiser.obj
 0002:00005b40       ??_C@_0CF@DPMMHNGK@Name?7?7Parent?7?7Type?7?7Mod?7Cst?7Off@ 0000000180058b40     clReflectCore:DatabaseTextSerialiser.obj
 0002:00005b68       ??_C@_06BFNMHBP@Fields@    0000000180058b68     clReflectCore:DatabaseTextSerialiser.obj
 0002:00005b70       ??_C@_0BC@OMLDLGE@Name?7?7Parent?7?7UID@ 0000000180058b70     clReflectCore:DatabaseTextSerialiser.obj
 0002:00005b88       ??_C@_09GLFFPDKE@Functions@ 0000000180058b88     clReflectCore:DatabaseTextSerialiser.obj
 0002:00005b98       ??_C@_0CD@BAOBGFBP@Name?7?7Parent?7?7Size?7?7Base?7?7Is?5Cl@ 0000000180058b98     clReflectCore:DatabaseTextSerialiser.obj
 0002:00005bc0       ??_C@_07DPIHKJGF@Classes@  0000000180058bc0     clReflectCore:DatabaseTextSerialiser.obj
 0002:00005bc8       ??_C@_0N@HNPIGGHE@Name?7?7Parent@ 0000000180058bc8     clReflectCore:DatabaseTextSerialiser.obj
 0002:00005bd8       ??_C@_09GIMPJFPI@Templates@ 0000000180058bd8     clReflectCore:DatabaseTextSerialiser.obj
 0002:00005be8       ??_C@_0CO@MJOLFBDM@Name?7?7Parent?7?7Argument?5type?5and@ 0000000180058be8     clReflectCore:DatabaseTextSerialiser.obj
 0002:00005c18       ??_C@_0P@JFNMICMP@Template?5Types@ 0000000180058c18     clReflectCore:DatabaseTextSerialiser.obj
 0002:00005c28       ??_C@_0L@KCJDJAB@Namespaces@ 0000000180058c28     clReflectCore:DatabaseTextSerialiser.obj
 0002:00005c38       ??_C@_0BA@HMCOJFAG@Flag?5Attributes@ 0000000180058c38     clReflectCore:DatabaseTextSerialiser.obj
 0002:00005c48       ??_C@_0P@NOLCLMFN@Int?5Attributes@ 0000000180058c48     clReflectCore:DatabaseTextSerialiser.obj
 0002:00005c58       ??_C@_0BB@FIDEJMCO@Float?5Attributes@ 0000000180058c58     clReflectCore:DatabaseTextSerialiser.obj
 0002:00005c70       ??_C@_0BF@POHIEHBE@Primitive?5Attributes@ 0000000180058c70     clReflectCore:DatabaseTextSerialiser.obj
 0002:00005c88       ??_C@_0BA@KKPCJAKM@Text?5Attributes@ 0000000180058c88     clReflectCore:DatabaseTextSerialiser.obj
 0002:00005c98       ??_C@_0CA@NOEFKENF@Name?7?7Read?7?7Write?7?7Flags?7?7Count@ 0000000180058c98     clReflectCore:DatabaseTextSerialiser.obj
 0002:00005cb8       ??_C@_0L@DMCCOKIJ@Containers@ 0000000180058cb8     clReflectCore:DatabaseTextSerialiser.obj
 0002:00005cc8       ??_C@_0BE@BEEGMPFE@Name?7?7Derived?7?7Base@ 0000000180058cc8     clReflectCore:DatabaseTextSerialiser.obj
 0002:00005ce0       ??_C@_0M@LCNOGNPK@Inheritance@ 0000000180058ce0     clReflectCore:DatabaseTextSerialiser.obj
 0002:00005cf0       ??_C@_0BD@CKJDPKMI@clReflect?5Database@ 0000000180058cf0     clReflectCore:DatabaseTextSerialiser.obj
 0002:00005d04       ??_C@_01JLIPDDHJ@?3@       0000000180058d04     clReflectCore:DatabaseTextSerialiser.obj
 0002:00005d08       ??_C@_05DLBHCFPD@?9?9?9?9?5@ 0000000180058d08     clReflectCore:DatabaseTextSerialiser.obj
 0002:00005d10       ??_C@_04ECGLBLOI@?9?9?9?9@ 0000000180058d10     clReflectCore:DatabaseTextSerialiser.obj
 0002:00005dc0       __xmm@00000001000000600000000100000001 0000000180058dc0     clReflectCore:DatabaseMetadata.obj
 0002:00005dd0       __xmm@00000001000001000000000400000001 0000000180058dd0     clReflectCore:DatabaseMetadata.obj
 0002:00005de0       __xmm@00000004000000000000000100000001 0000000180058de0     clReflectCore:DatabaseMetadata.obj
 0002:00005df0       __xmm@00000004000000580000000100000001 0000000180058df0     clReflectCore:DatabaseMetadata.obj
 0002:00005e00       __xmm@00000004000000600000000100000001 0000000180058e00     clReflectCore:DatabaseMetadata.obj
 0002:00005e10       __xmm@000000040000007c0000000100000001 0000000180058e10     clReflectCore:DatabaseMetadata.obj
 0002:00005e20       __xmm@00000004000000880000000100000001 0000000180058e20     clReflectCore:DatabaseMetadata.obj
 0002:00005e30       __xmm@00000020000000600000000100000003 0000000180058e30     clReflectCore:DatabaseMetadata.obj
 0002:00005e40       __xmm@00000028000000000000000100000002 0000000180058e40     clReflectCore:DatabaseMetadata.obj
 0002:00005e50       __xmm@00000028000000300000000100000002 0000000180058e50     clReflectCore:DatabaseMetadata.obj
 0002:00005e60       __xmm@00000028000000500000000100000002 0000000180058e60     clReflectCore:DatabaseMetadata.obj
 0002:00005e70       __xmm@00000028000000580000000100000002 0000000180058e70     clReflectCore:DatabaseMetadata.obj
 0002:00005e80       __xmm@00000028000000600000000100000002 0000000180058e80     clReflectCore:DatabaseMetadata.obj
 0002:00005e90       __xmm@00000028000000600000000400000002 0000000180058e90     clReflectCore:DatabaseMetadata.obj
 0002:00005ed0       ??_7type_info@@6B@         0000000180058ed0     MSVCRT:std_type_info_static.obj
 0002:00005ed8       __dyn_tls_init_callback    0000000180058ed8     MSVCRT:tlsdyn.obj
 0002:00005ef0       _pRawDllMain               0000000180058ef0     MSVCRT:dll_dllmain.obj
 0002:00005ef0       _pDefaultRawDllMain        0000000180058ef0     MSVCRT:dll_dllmain.obj
 0002:00005ef8       __dyn_tls_dtor_callback    0000000180058ef8     MSVCRT:tlsdtor.obj
 0002:00005f08       ??_7exception@std@@6B@     0000000180058f08     MSVCRT:throw_bad_alloc.obj
 0002:00005f18       ??_C@_0BC@EOODALEL@Unknown?5exception@ 0000000180058f18     MSVCRT:throw_bad_alloc.obj
 0002:00005f38       ??_7bad_alloc@std@@6B@     0000000180058f38     MSVCRT:throw_bad_alloc.obj
 0002:00005f48       ??_C@_0P@GHFPNOJB@bad?5allocation@ 0000000180058f48     MSVCRT:throw_bad_alloc.obj
 0002:00005f60       ??_7bad_array_new_length@std@@6B@ 0000000180058f60     MSVCRT:throw_bad_alloc.obj
 0002:00005f70       ??_C@_0BF@KINCDENJ@bad?5array?5new?5length@ 0000000180058f70     MSVCRT:throw_bad_alloc.obj
 0002:00005ff0       _load_config_used          0000000180058ff0     MSVCRT:loadcfg.obj
 0002:000060f0       _tls_used                  00000001800590f0     MSVCRT:tlssup.obj
 0002:00006118       ??_R4IAllocator@clcpp@@6B@ 0000000180059118     CppExport.obj
 0002:00006140       ??_R3IAllocator@clcpp@@8   0000000180059140     CppExport.obj
 0002:00006158       ??_R2IAllocator@clcpp@@8   0000000180059158     CppExport.obj
 0002:00006168       ??_R1A@?0A@EA@IAllocator@clcpp@@8 0000000180059168     CppExport.obj
 0002:00006210       ??_R4Attribute@cldb@@6B@   0000000180059210     Main.obj
 0002:00006238       ??_R3Attribute@cldb@@8     0000000180059238     Main.obj
 0002:00006250       ??_R2Attribute@cldb@@8     0000000180059250     Main.obj
 0002:00006268       ??_R1A@?0A@EA@Attribute@cldb@@8 0000000180059268     Main.obj
 0002:00006290       ??_R17?0A@EA@Primitive@cldb@@8 0000000180059290     Main.obj
 0002:000062b8       ??_R3Primitive@cldb@@8     00000001800592b8     Main.obj
 0002:000062d0       ??_R2Primitive@cldb@@8     00000001800592d0     Main.obj
 0002:000062e0       ??_R1A@?0A@EA@Primitive@cldb@@8 00000001800592e0     Main.obj
 0002:00006308       ??_R4PrimitiveAttribute@cldb@@6B@ 0000000180059308     Main.obj
 0002:00006330       ??_R3PrimitiveAttribute@cldb@@8 0000000180059330     Main.obj
 0002:00006348       ??_R2PrimitiveAttribute@cldb@@8 0000000180059348     Main.obj
 0002:00006368       ??_R1A@?0A@EA@PrimitiveAttribute@cldb@@8 0000000180059368     Main.obj
 0002:00006390       ??_R4TextAttribute@cldb@@6B@ 0000000180059390     Main.obj
 0002:000063b8       ??_R3TextAttribute@cldb@@8 00000001800593b8     Main.obj
 0002:000063d0       ??_R2TextAttribute@cldb@@8 00000001800593d0     Main.obj
 0002:000063f0       ??_R1A@?0A@EA@TextAttribute@cldb@@8 00000001800593f0     Main.obj
 0002:00006590       ??_R4FlagAttribute@cldb@@6B@ 0000000180059590     clReflectCore:DatabaseBinarySerialiser.obj
 0002:000065b8       ??_R3FlagAttribute@cldb@@8 00000001800595b8     clReflectCore:DatabaseBinarySerialiser.obj
 0002:000065d0       ??_R2FlagAttribute@cldb@@8 00000001800595d0     clReflectCore:DatabaseBinarySerialiser.obj
 0002:000065f0       ??_R1A@?0A@EA@FlagAttribute@cldb@@8 00000001800595f0     clReflectCore:DatabaseBinarySerialiser.obj
 0002:00006618       ??_R4IntAttribute@cldb@@6B@ 0000000180059618     clReflectCore:DatabaseBinarySerialiser.obj
 0002:00006640       ??_R3IntAttribute@cldb@@8  0000000180059640     clReflectCore:DatabaseBinarySerialiser.obj
 0002:00006658       ??_R2IntAttribute@cldb@@8  0000000180059658     clReflectCore:DatabaseBinarySerialiser.obj
 0002:00006678       ??_R1A@?0A@EA@IntAttribute@cldb@@8 0000000180059678     clReflectCore:DatabaseBinarySerialiser.obj
 0002:000066a0       ??_R4FloatAttribute@cldb@@6B@ 00000001800596a0     clReflectCore:DatabaseBinarySerialiser.obj
 0002:000066c8       ??_R3FloatAttribute@cldb@@8 00000001800596c8     clReflectCore:DatabaseBinarySerialiser.obj
 0002:000066e0       ??_R2FloatAttribute@cldb@@8 00000001800596e0     clReflectCore:DatabaseBinarySerialiser.obj
 0002:00006700       ??_R1A@?0A@EA@FloatAttribute@cldb@@8 0000000180059700     clReflectCore:DatabaseBinarySerialiser.obj
 0002:00006728       ??_R4type_info@@6B@        0000000180059728     MSVCRT:std_type_info_static.obj
 0002:00006750       ??_R3type_info@@8          0000000180059750     MSVCRT:std_type_info_static.obj
 0002:00006768       ??_R2type_info@@8          0000000180059768     MSVCRT:std_type_info_static.obj
 0002:00006778       ??_R1A@?0A@EA@type_info@@8 0000000180059778     MSVCRT:std_type_info_static.obj
 0002:000067a0       ??_R4exception@std@@6B@    00000001800597a0     MSVCRT:throw_bad_alloc.obj
 0002:000067c8       ??_R3exception@std@@8      00000001800597c8     MSVCRT:throw_bad_alloc.obj
 0002:000067e0       ??_R2exception@std@@8      00000001800597e0     MSVCRT:throw_bad_alloc.obj
 0002:000067f0       ??_R1A@?0A@EA@exception@std@@8 00000001800597f0     MSVCRT:throw_bad_alloc.obj
 0002:00006818       ??_R4bad_alloc@std@@6B@    0000000180059818     MSVCRT:throw_bad_alloc.obj
 0002:00006840       ??_R3bad_alloc@std@@8      0000000180059840     MSVCRT:throw_bad_alloc.obj
 0002:00006858       ??_R2bad_alloc@std@@8      0000000180059858     MSVCRT:throw_bad_alloc.obj
 0002:00006870       ??_R1A@?0A@EA@bad_alloc@std@@8 0000000180059870     MSVCRT:throw_bad_alloc.obj
 0002:00006898       ??_R4bad_array_new_length@std@@6B@ 0000000180059898     MSVCRT:throw_bad_alloc.obj
 0002:000068c0       ??_R3bad_array_new_length@std@@8 00000001800598c0     MSVCRT:throw_bad_alloc.obj
 0002:000068d8       ??_R2bad_array_new_length@std@@8 00000001800598d8     MSVCRT:throw_bad_alloc.obj
 0002:000068f8       ??_R1A@?0A@EA@bad_array_new_length@std@@8 00000001800598f8     MSVCRT:throw_bad_alloc.obj
 0002:00006d08       __rtc_iaa                  0000000180059d08     MSVCRT:initsect.obj
 0002:00006d10       __rtc_izz                  0000000180059d10     MSVCRT:initsect.obj
 0002:00006d18       __rtc_taa                  0000000180059d18     MSVCRT:initsect.obj
 0002:00006d20       __rtc_tzz                  0000000180059d20     MSVCRT:initsect.obj
 0002:00006d30       _tls_start                 0000000180059d30     MSVCRT:tlssup.obj
 0002:00006fb8       ?handle@?6???$LogPrimitives@UAttribute@clcpp@@@?A0x8ccd60d2@@YAXAEBU?$CArray@PEBUAttribute@clcpp@@@clcpp@@@Z@4PEAXEA 0000000180059fb8     CppExport.obj
 0002:00006fc0       ??__J?6???$LogPrimitives@UAttribute@clcpp@@@?A0x8ccd60d2@@YAXAEBU?$CArray@PEBUAttribute@clcpp@@@clcpp@@@Z@56 0000000180059fc0     CppExport.obj
 0002:00006fc8       ?handle@?6???$LogPrimitives@UEnumConstant@clcpp@@@?A0x8ccd60d2@@YAXAEBU?$CArray@PEBUEnumConstant@clcpp@@@clcpp@@@Z@4PEAXEA 0000000180059fc8     CppExport.obj
 0002:00006fd0       ??__J?6???$LogPrimitives@UEnumConstant@clcpp@@@?A0x8ccd60d2@@YAXAEBU?$CArray@PEBUEnumConstant@clcpp@@@clcpp@@@Z@56 0000000180059fd0     CppExport.obj
 0002:00006fd8       ?handle@?6???$LogPrimitives@UTemplateType@clcpp@@@?A0x8ccd60d2@@YAXAEBU?$CArray@PEBUTemplateType@clcpp@@@clcpp@@@Z@4PEAXEA 0000000180059fd8     CppExport.obj
 0002:00006fe0       ??__J?6???$LogPrimitives@UTemplateType@clcpp@@@?A0x8ccd60d2@@YAXAEBU?$CArray@PEBUTemplateType@clcpp@@@clcpp@@@Z@56 0000000180059fe0     CppExport.obj
 0002:00006fe8       ?handle@?6???$LogPrimitives@UClass@clcpp@@@?A0x8ccd60d2@@YAXAEBU?$CArray@PEBUClass@clcpp@@@clcpp@@@Z@4PEAXEA 0000000180059fe8     CppExport.obj
 0002:00006ff0       ??__J?6???$LogPrimitives@UClass@clcpp@@@?A0x8ccd60d2@@YAXAEBU?$CArray@PEBUClass@clcpp@@@clcpp@@@Z@56 0000000180059ff0     CppExport.obj
 0002:00006ff8       ?handle@?6???$LogPrimitives@UField@clcpp@@@?A0x8ccd60d2@@YAXAEBU?$CArray@PEBUField@clcpp@@@clcpp@@@Z@4PEAXEA 0000000180059ff8     CppExport.obj
 0002:00007000       ??__J?6???$LogPrimitives@UField@clcpp@@@?A0x8ccd60d2@@YAXAEBU?$CArray@PEBUField@clcpp@@@clcpp@@@Z@56 000000018005a000     CppExport.obj
 0002:00007008       ?handle@?6???$LogPrimitives@UEnum@clcpp@@@?A0x8ccd60d2@@YAXAEBU?$CArray@PEBUEnum@clcpp@@@clcpp@@@Z@4PEAXEA 000000018005a008     CppExport.obj
 0002:00007010       ??__J?6???$LogPrimitives@UEnum@clcpp@@@?A0x8ccd60d2@@YAXAEBU?$CArray@PEBUEnum@clcpp@@@clcpp@@@Z@56 000000018005a010     CppExport.obj
 0002:00007018       ?handle@?6???$LogPrimitives@UFunction@clcpp@@@?A0x8ccd60d2@@YAXAEBU?$CArray@PEBUFunction@clcpp@@@clcpp@@@Z@4PEAXEA 000000018005a018     CppExport.obj
 0002:00007020       ??__J?6???$LogPrimitives@UFunction@clcpp@@@?A0x8ccd60d2@@YAXAEBU?$CArray@PEBUFunction@clcpp@@@clcpp@@@Z@56 000000018005a020     CppExport.obj
 0002:00007028       ?handle@?6???$LogPrimitives@UTemplate@clcpp@@@?A0x8ccd60d2@@YAXAEBU?$CArray@PEBUTemplate@clcpp@@@clcpp@@@Z@4PEAXEA 000000018005a028     CppExport.obj
 0002:00007030       ??__J?6???$LogPrimitives@UTemplate@clcpp@@@?A0x8ccd60d2@@YAXAEBU?$CArray@PEBUTemplate@clcpp@@@clcpp@@@Z@56 000000018005a030     CppExport.obj
 0002:00007038       ?handle@?6???$LogPrimitives@UNamespace@clcpp@@@?A0x8ccd60d2@@YAXAEBU?$CArray@PEBUNamespace@clcpp@@@clcpp@@@Z@4PEAXEA 000000018005a038     CppExport.obj
 0002:00007040       ??__J?6???$LogPrimitives@UNamespace@clcpp@@@?A0x8ccd60d2@@YAXAEBU?$CArray@PEBUNamespace@clcpp@@@clcpp@@@Z@56 000000018005a040     CppExport.obj
 0002:00007050       ?object@?$OffsetOfImpl@PEBDUDatabaseMem@internal@clcpp@@@meta@cldb@@2UDatabaseMem@internal@clcpp@@A 000000018005a050     CppExport.obj
 0002:000072c0       ?object@?$OffsetOfImpl@U?$CArray@UName@clcpp@@@clcpp@@UDatabaseMem@internal@2@@meta@cldb@@2UDatabaseMem@internal@clcpp@@A 000000018005a2c0     CppExport.obj
 0002:00007530       ?object@?$OffsetOfImpl@U?$CArray@UType@clcpp@@@clcpp@@UDatabaseMem@internal@2@@meta@cldb@@2UDatabaseMem@internal@clcpp@@A 000000018005a530     CppExport.obj
 0002:000077a0       ?object@?$OffsetOfImpl@U?$CArray@UEnumConstant@clcpp@@@clcpp@@UDatabaseMem@internal@2@@meta@cldb@@2UDatabaseMem@internal@clcpp@@A 000000018005a7a0     CppExport.obj
 0002:00007a10       ?object@?$OffsetOfImpl@U?$CArray@UEnum@clcpp@@@clcpp@@UDatabaseMem@internal@2@@meta@cldb@@2UDatabaseMem@internal@clcpp@@A 000000018005aa10     CppExport.obj
 0002:00007c80       ?object@?$OffsetOfImpl@U?$CArray@UField@clcpp@@@clcpp@@UDatabaseMem@internal@2@@meta@cldb@@2UDatabaseMem@internal@clcpp@@A 000000018005ac80     CppExport.obj
 0002:00007ef0       ?object@?$OffsetOfImpl@U?$CArray@UFunction@clcpp@@@clcpp@@UDatabaseMem@internal@2@@meta@cldb@@2UDatabaseMem@internal@clcpp@@A 000000018005aef0     CppExport.obj
 0002:00008160       ?object@?$OffsetOfImpl@U?$CArray@UClass@clcpp@@@clcpp@@UDatabaseMem@internal@2@@meta@cldb@@2UDatabaseMem@internal@clcpp@@A 000000018005b160     CppExport.obj
 0002:000083d0       ?object@?$OffsetOfImpl@U?$CArray@UTemplateType@clcpp@@@clcpp@@UDatabaseMem@internal@2@@meta@cldb@@2UDatabaseMem@internal@clcpp@@A 000000018005b3d0     CppExport.obj
 0002:00008640       ?object@?$OffsetOfImpl@U?$CArray@UTemplate@clcpp@@@clcpp@@UDatabaseMem@internal@2@@meta@cldb@@2UDatabaseMem@internal@clcpp@@A 000000018005b640     CppExport.obj
 0002:000088b0       ?object@?$OffsetOfImpl@U?$CArray@UNamespace@clcpp@@@clcpp@@UDatabaseMem@internal@2@@meta@cldb@@2UDatabaseMem@internal@clcpp@@A 000000018005b8b0     CppExport.obj
 0002:00008b20       ?object@?$OffsetOfImpl@U?$CArray@UFlagAttribute@clcpp@@@clcpp@@UDatabaseMem@internal@2@@meta@cldb@@2UDatabaseMem@internal@clcpp@@A 000000018005bb20     CppExport.obj
 0002:00008d90       ?object@?$OffsetOfImpl@U?$CArray@UIntAttribute@clcpp@@@clcpp@@UDatabaseMem@internal@2@@meta@cldb@@2UDatabaseMem@internal@clcpp@@A 000000018005bd90     CppExport.obj
 0002:00009000       ?object@?$OffsetOfImpl@U?$CArray@UFloatAttribute@clcpp@@@clcpp@@UDatabaseMem@internal@2@@meta@cldb@@2UDatabaseMem@internal@clcpp@@A 000000018005c000     CppExport.obj
 0002:00009270       ?object@?$OffsetOfImpl@U?$CArray@UPrimitiveAttribute@clcpp@@@clcpp@@UDatabaseMem@internal@2@@meta@cldb@@2UDatabaseMem@internal@clcpp@@A 000000018005c270     CppExport.obj
 0002:000094e0       ?object@?$OffsetOfImpl@U?$CArray@UTextAttribute@clcpp@@@clcpp@@UDatabaseMem@internal@2@@meta@cldb@@2UDatabaseMem@internal@clcpp@@A 000000018005c4e0     CppExport.obj
 0002:00009750       ?object@?$OffsetOfImpl@U?$CArray@PEBUType@clcpp@@@clcpp@@UDatabaseMem@internal@2@@meta@cldb@@2UDatabaseMem@internal@clcpp@@A 000000018005c750     CppExport.obj
 0002:000099c0       ?object@?$OffsetOfImpl@U?$CArray@UContainerInfo@clcpp@@@clcpp@@UDatabaseMem@internal@2@@meta@cldb@@2UDatabaseMem@internal@clcpp@@A 000000018005c9c0     CppExport.obj
 0002:00009c30       ?object@?$OffsetOfImpl@U?$CArray@PEBUNamespace@clcpp@@@clcpp@@UNamespace@2@@meta@cldb@@2UNamespace@clcpp@@A 000000018005cc30     CppExport.obj
 0002:00009cf0       ?object@?$OffsetOfImpl@U?$CArray@PEBUType@clcpp@@@clcpp@@UNamespace@2@@meta@cldb@@2UNamespace@clcpp@@A 000000018005ccf0     CppExport.obj
 0002:00009db0       ?object@?$OffsetOfImpl@U?$CArray@PEBUEnum@clcpp@@@clcpp@@UNamespace@2@@meta@cldb@@2UNamespace@clcpp@@A 000000018005cdb0     CppExport.obj
 0002:00009e70       ?object@?$OffsetOfImpl@U?$CArray@PEBUClass@clcpp@@@clcpp@@UNamespace@2@@meta@cldb@@2UNamespace@clcpp@@A 000000018005ce70     CppExport.obj
 0002:00009f30       ?object@?$OffsetOfImpl@U?$CArray@PEBUFunction@clcpp@@@clcpp@@UNamespace@2@@meta@cldb@@2UNamespace@clcpp@@A 000000018005cf30     CppExport.obj
 0002:00009ff0       ?object@?$OffsetOfImpl@U?$CArray@PEBUTemplate@clcpp@@@clcpp@@UNamespace@2@@meta@cldb@@2UNamespace@clcpp@@A 000000018005cff0     CppExport.obj
 0002:0000a0a8       ?object@?$OffsetOfImpl@PEBDUName@clcpp@@@meta@cldb@@2UName@clcpp@@A 000000018005d0a8     CppExport.obj
 0002:0000a0b8       ?object@?$OffsetOfImpl@PEBUPrimitive@clcpp@@U12@@meta@cldb@@2UPrimitive@clcpp@@A 000000018005d0b8     CppExport.obj
 0002:0000a0e0       ?object@?$OffsetOfImpl@U?$CArray@PEBUType@clcpp@@@clcpp@@UType@2@@meta@cldb@@2UType@clcpp@@A 000000018005d0e0     CppExport.obj
 0002:0000a130       ?object@?$OffsetOfImpl@PEAUContainerInfo@clcpp@@UType@2@@meta@cldb@@2UType@clcpp@@A 000000018005d130     CppExport.obj
 0002:0000a180       ?object@?$OffsetOfImpl@U?$CArray@PEBUEnumConstant@clcpp@@@clcpp@@UEnum@2@@meta@cldb@@2UEnum@clcpp@@A 000000018005d180     CppExport.obj
 0002:0000a210       ?object@?$OffsetOfImpl@U?$CArray@PEBUAttribute@clcpp@@@clcpp@@UEnum@2@@meta@cldb@@2UEnum@clcpp@@A 000000018005d210     CppExport.obj
 0002:0000a2a0       ?object@?$OffsetOfImpl@PEBUType@clcpp@@UField@2@@meta@cldb@@2UField@clcpp@@A 000000018005d2a0     CppExport.obj
 0002:0000a310       ?object@?$OffsetOfImpl@U?$CArray@PEBUAttribute@clcpp@@@clcpp@@UField@2@@meta@cldb@@2UField@clcpp@@A 000000018005d310     CppExport.obj
 0002:0000a380       ?object@?$OffsetOfImpl@PEAUContainerInfo@clcpp@@UField@2@@meta@cldb@@2UField@clcpp@@A 000000018005d380     CppExport.obj
 0002:0000a3f0       ?object@?$OffsetOfImpl@PEBUField@clcpp@@UFunction@2@@meta@cldb@@2UFunction@clcpp@@A 000000018005d3f0     CppExport.obj
 0002:0000a470       ?object@?$OffsetOfImpl@U?$CArray@PEBUField@clcpp@@@clcpp@@UFunction@2@@meta@cldb@@2UFunction@clcpp@@A 000000018005d470     CppExport.obj
 0002:0000a4f0       ?object@?$OffsetOfImpl@U?$CArray@PEBUAttribute@clcpp@@@clcpp@@UFunction@2@@meta@cldb@@2UFunction@clcpp@@A 000000018005d4f0     CppExport.obj
 0002:0000a570       ?object@?$OffsetOfImpl@PEBUFunction@clcpp@@UClass@2@@meta@cldb@@2UClass@clcpp@@A 000000018005d570     CppExport.obj
 0002:0000a670       ?object@?$OffsetOfImpl@U?$CArray@PEBUEnum@clcpp@@@clcpp@@UClass@2@@meta@cldb@@2UClass@clcpp@@A 000000018005d670     CppExport.obj
 0002:0000a770       ?object@?$OffsetOfImpl@U?$CArray@PEBUClass@clcpp@@@clcpp@@UClass@2@@meta@cldb@@2UClass@clcpp@@A 000000018005d770     CppExport.obj
 0002:0000a870       ?object@?$OffsetOfImpl@U?$CArray@PEBUFunction@clcpp@@@clcpp@@UClass@2@@meta@cldb@@2UClass@clcpp@@A 000000018005d870     CppExport.obj
 0002:0000a970       ?object@?$OffsetOfImpl@U?$CArray@PEBUField@clcpp@@@clcpp@@UClass@2@@meta@cldb@@2UClass@clcpp@@A 000000018005d970     CppExport.obj
 0002:0000aa70       ?object@?$OffsetOfImpl@U?$CArray@PEBUAttribute@clcpp@@@clcpp@@UClass@2@@meta@cldb@@2UClass@clcpp@@A 000000018005da70     CppExport.obj
 0002:0000ab70       ?object@?$OffsetOfImpl@U?$CArray@PEBUTemplate@clcpp@@@clcpp@@UClass@2@@meta@cldb@@2UClass@clcpp@@A 000000018005db70     CppExport.obj
 0002:0000ac70       ?object@?$OffsetOfImpl@PEBUFunction@clcpp@@UTemplateType@2@@meta@cldb@@2UTemplateType@clcpp@@A 000000018005dc70     CppExport.obj
 0002:0000ad00       ?object@?$OffsetOfImpl@$$BY03PEBUType@clcpp@@UTemplateType@2@@meta@cldb@@2UTemplateType@clcpp@@A 000000018005dd00     CppExport.obj
 0002:0000ad90       ?object@?$OffsetOfImpl@U?$CArray@PEBUTemplateType@clcpp@@@clcpp@@UTemplate@2@@meta@cldb@@2UTemplate@clcpp@@A 000000018005dd90     CppExport.obj
 0002:0000add0       ?object@?$OffsetOfImpl@PEBUPrimitive@clcpp@@UPrimitiveAttribute@2@@meta@cldb@@2UPrimitiveAttribute@clcpp@@A 000000018005ddd0     CppExport.obj
 0002:0000ae00       ?object@?$OffsetOfImpl@PEBDUTextAttribute@clcpp@@@meta@cldb@@2UTextAttribute@clcpp@@A 000000018005de00     CppExport.obj
 0002:0000ae30       ?object@?$OffsetOfImpl@PEBUType@clcpp@@UContainerInfo@2@@meta@cldb@@2UContainerInfo@clcpp@@A 000000018005de30     CppExport.obj
 0002:0000bf20       ?g_StreamMap@?A0x5d83d808@@3V?$map@PEBDUStreamSet@?A0x5d83d808@@U?$less@PEBD@std@@V?$allocator@U?$pair@QEBDUStreamSet@?A0x5d83d808@@@std@@@4@@std@@A 000000018005ef20     clReflectCore:Logging.obj
 0002:0000bf90       ?object@?$OffsetOfImpl@W4Kind@Primitive@cldb@@U23@@meta@cldb@@2UPrimitive@3@A 000000018005ef90     clReflectCore:DatabaseMetadata.obj
 0002:0000bff0       ?object@?$OffsetOfImpl@UName@cldb@@UPrimitive@2@@meta@cldb@@2UPrimitive@3@A 000000018005eff0     clReflectCore:DatabaseMetadata.obj
 0002:0000c050       ?object@?$OffsetOfImpl@KUType@cldb@@@meta@cldb@@2UType@3@A 000000018005f050     clReflectCore:DatabaseMetadata.obj
 0002:0000c0b0       ?object@?$OffsetOfImpl@W4Scoped@Enum@cldb@@U23@@meta@cldb@@2UEnum@3@A 000000018005f0b0     clReflectCore:DatabaseMetadata.obj
 0002:0000c120       ?object@?$OffsetOfImpl@HUEnumConstant@cldb@@@meta@cldb@@2UEnumConstant@3@A 000000018005f120     clReflectCore:DatabaseMetadata.obj
 0002:0000c180       ?object@?$OffsetOfImpl@UName@cldb@@UField@2@@meta@cldb@@2UField@3@A 000000018005f180     clReflectCore:DatabaseMetadata.obj
 0002:0000c210       ?object@?$OffsetOfImpl@UQualifier@cldb@@UField@2@@meta@cldb@@2UField@3@A 000000018005f210     clReflectCore:DatabaseMetadata.obj
 0002:0000c2a0       ?object@?$OffsetOfImpl@HUField@cldb@@@meta@cldb@@2UField@3@A 000000018005f2a0     clReflectCore:DatabaseMetadata.obj
 0002:0000c330       ?object@?$OffsetOfImpl@IUField@cldb@@@meta@cldb@@2UField@3@A 000000018005f330     clReflectCore:DatabaseMetadata.obj
 0002:0000c3c0       ?object@?$OffsetOfImpl@IUFunction@cldb@@@meta@cldb@@2UFunction@3@A 000000018005f3c0     clReflectCore:DatabaseMetadata.obj
 0002:0000c430       ?object@?$OffsetOfImpl@$$BY03UName@cldb@@UTemplateType@2@@meta@cldb@@2UTemplateType@3@A 000000018005f430     clReflectCore:DatabaseMetadata.obj
 0002:0000c540       ?object@?$OffsetOfImpl@$$BY03_NUTemplateType@cldb@@@meta@cldb@@2UTemplateType@3@A 000000018005f540     clReflectCore:DatabaseMetadata.obj
 0002:0000c650       ?object@?$OffsetOfImpl@_NUClass@cldb@@@meta@cldb@@2UClass@3@A 000000018005f650     clReflectCore:DatabaseMetadata.obj
 0002:0000c6c0       ?object@?$OffsetOfImpl@HUIntAttribute@cldb@@@meta@cldb@@2UIntAttribute@3@A 000000018005f6c0     clReflectCore:DatabaseMetadata.obj
 0002:0000c730       ?object@?$OffsetOfImpl@MUFloatAttribute@cldb@@@meta@cldb@@2UFloatAttribute@3@A 000000018005f730     clReflectCore:DatabaseMetadata.obj
 0002:0000c7a0       ?object@?$OffsetOfImpl@UName@cldb@@UPrimitiveAttribute@2@@meta@cldb@@2UPrimitiveAttribute@3@A 000000018005f7a0     clReflectCore:DatabaseMetadata.obj
 0002:0000c830       ?object@?$OffsetOfImpl@V?$basic_string@DU?$char_traits@D@std@@V?$allocator@D@2@@std@@UTextAttribute@cldb@@@meta@cldb@@2UTextAttribute@3@A 000000018005f830     clReflectCore:DatabaseMetadata.obj
 0002:0000c8b0       ?object@?$OffsetOfImpl@UName@cldb@@UContainerInfo@2@@meta@cldb@@2UContainerInfo@3@A 000000018005f8b0     clReflectCore:DatabaseMetadata.obj
 0002:0000c930       ?object@?$OffsetOfImpl@IUContainerInfo@cldb@@@meta@cldb@@2UContainerInfo@3@A 000000018005f930     clReflectCore:DatabaseMetadata.obj
 0002:0000c9b0       ?object@?$OffsetOfImpl@UName@cldb@@UTypeInheritance@2@@meta@cldb@@2UTypeInheritance@3@A 000000018005f9b0     clReflectCore:DatabaseMetadata.obj
 0002:0000cb40       _tls_end                   000000018005fb40     MSVCRT:tlssup.obj
 0002:0001a860       _TI2?AVbad_alloc@std@@     000000018006d860     MSVCRT:throw_bad_alloc.obj
 0002:0001a880       _CTA2?AVbad_alloc@std@@    000000018006d880     MSVCRT:throw_bad_alloc.obj
 0002:0001a898       _CT??_R0?AVbad_alloc@std@@@8??0bad_alloc@std@@QEAA@AEBV01@@Z24 000000018006d898     MSVCRT:throw_bad_alloc.obj
 0002:0001a8c0       _CT??_R0?AVexception@std@@@8??0exception@std@@QEAA@AEBV01@@Z24 000000018006d8c0     MSVCRT:throw_bad_alloc.obj
 0002:0001a8e8       _TI3?AVbad_array_new_length@std@@ 000000018006d8e8     MSVCRT:throw_bad_alloc.obj
 0002:0001a908       _CTA3?AVbad_array_new_length@std@@ 000000018006d908     MSVCRT:throw_bad_alloc.obj
 0002:0001a928       _CT??_R0?AVbad_array_new_length@std@@@8??0bad_array_new_length@std@@QEAA@AEBV01@@Z24 000000018006d928     MSVCRT:throw_bad_alloc.obj
 0002:0001a99c       __IMPORT_DESCRIPTOR_dbghelp 000000018006d99c     dbghelp:dbghelp.dll
 0002:0001a9b0       __IMPORT_DESCRIPTOR_KERNEL32 000000018006d9b0     kernel32:KERNEL32.dll
 0002:0001a9c4       __IMPORT_DESCRIPTOR_MSVCP140 000000018006d9c4     msvcprt:MSVCP140.dll
 0002:0001a9d8       __IMPORT_DESCRIPTOR_VCRUNTIME140 000000018006d9d8     vcruntime:VCRUNTIME140.dll
 0002:0001a9ec       __IMPORT_DESCRIPTOR_api-ms-win-crt-runtime-l1-1-0 000000018006d9ec     ucrt:api-ms-win-crt-runtime-l1-1-0.dll
 0002:0001aa00       __IMPORT_DESCRIPTOR_api-ms-win-crt-heap-l1-1-0 000000018006da00     ucrt:api-ms-win-crt-heap-l1-1-0.dll
 0002:0001aa14       __IMPORT_DESCRIPTOR_api-ms-win-crt-stdio-l1-1-0 000000018006da14     ucrt:api-ms-win-crt-stdio-l1-1-0.dll
 0002:0001aa28       __IMPORT_DESCRIPTOR_api-ms-win-crt-string-l1-1-0 000000018006da28     ucrt:api-ms-win-crt-string-l1-1-0.dll
 0002:0001aa3c       __IMPORT_DESCRIPTOR_api-ms-win-crt-convert-l1-1-0 000000018006da3c     ucrt:api-ms-win-crt-convert-l1-1-0.dll
 0002:0001aa50       __NULL_IMPORT_DESCRIPTOR   000000018006da50     dbghelp:dbghelp.dll
 0003:00000000       ?__LINE__Var@?0???0Primitive@clcpp@@QEAA@XZ@4JA 000000018006f000     CppExport.obj
 0003:00000004       ?__LINE__Var@?0???1?$map@PEBDUStreamSet@?A0x5d83d808@@U?$less@PEBD@std@@V?$allocator@U?$pair@QEBDUStreamSet@?A0x5d83d808@@@std@@@4@@std@@QEAA@XZ@4JA 000000018006f004     clReflectCore:Logging.obj
 0003:00000008       ?__LINE__Var@?0???1?$_Tree@V?$_Tmap_traits@PEBDUStreamSet@?A0x5d83d808@@U?$less@PEBD@std@@V?$allocator@U?$pair@QEBDUStreamSet@?A0x5d83d808@@@std@@@4@$0A@@std@@@std@@QEAA@XZ@4JA 000000018006f008     clReflectCore:Logging.obj
 0003:0000000c       ?__LINE__Var@?0???0?$map@PEBDUStreamSet@?A0x5d83d808@@U?$less@PEBD@std@@V?$allocator@U?$pair@QEBDUStreamSet@?A0x5d83d808@@@std@@@4@@std@@QEAA@XZ@4JA 000000018006f00c     clReflectCore:Logging.obj
 0003:00000010       ?__LINE__Var@?0???1?$_Tree_comp_alloc@V?$_Tmap_traits@PEBDUStreamSet@?A0x5d83d808@@U?$less@PEBD@std@@V?$allocator@U?$pair@QEBDUStreamSet@?A0x5d83d808@@@std@@@4@$0A@@std@@@std@@QEAA@XZ@4JA 000000018006f010     clReflectCore:Logging.obj
 0003:00000014       ?__LINE__Var@?0??_Tidy@?$_Tree@V?$_Tmap_traits@PEBDUStreamSet@?A0x5d83d808@@U?$less@PEBD@std@@V?$allocator@U?$pair@QEBDUStreamSet@?A0x5d83d808@@@std@@@4@$0A@@std@@@std@@IEAAXXZ@4JA 000000018006f014     clReflectCore:Logging.obj
 0003:00000018       ?__LINE__Var@?0???0?$_Tree@V?$_Tmap_traits@PEBDUStreamSet@?A0x5d83d808@@U?$less@PEBD@std@@V?$allocator@U?$pair@QEBDUStreamSet@?A0x5d83d808@@@std@@@4@$0A@@std@@@std@@QEAA@AEBU?$less@PEBD@2@@Z@4JA 000000018006f018     clReflectCore:Logging.obj
 0003:0000001c       ?__LINE__Var@?0??_Freeheadnode@?$_Tree_comp_alloc@V?$_Tmap_traits@PEBDUStreamSet@?A0x5d83d808@@U?$less@PEBD@std@@V?$allocator@U?$pair@QEBDUStreamSet@?A0x5d83d808@@@std@@@4@$0A@@std@@@std@@QEAAXPEAU?$_Tree_node@U?$pair@QEBDUStreamSet@?A0x5d83d808@@@std@@PEAX@3@@Z@4JA 000000018006f01c     clReflectCore:Logging.obj
 0003:00000020       ?__LINE__Var@?0???0?$_Tree_comp_alloc@V?$_Tmap_traits@PEBDUStreamSet@?A0x5d83d808@@U?$less@PEBD@std@@V?$allocator@U?$pair@QEBDUStreamSet@?A0x5d83d808@@@std@@@4@$0A@@std@@@std@@QEAA@AEBU?$less@PEBD@2@@Z@4JA 000000018006f020     clReflectCore:Logging.obj
 0003:00000024       ?__LINE__Var@?0??erase@?$_Tree@V?$_Tmap_traits@PEBDUStreamSet@?A0x5d83d808@@U?$less@PEBD@std@@V?$allocator@U?$pair@QEBDUStreamSet@?A0x5d83d808@@@std@@@4@$0A@@std@@@std@@QEAA?AV?$_Tree_iterator@V?$_Tree_val@U?$_Tree_simple_types@U?$pair@QEBDUStreamSet@?A0x5d83d808@@@std@@@std@@@std@@@3@V?$_Tree_const_iterator@V?$_Tree_val@U?$_Tree_simple_types@U?$pair@QEBDUStreamSet@?A0x5d83d808@@@std@@@std@@@std@@@3@0@Z@4JA 000000018006f024     clReflectCore:Logging.obj
 0003:00000028       ?__LINE__Var@?0???E?$_Tree_const_iterator@V?$_Tree_val@U?$_Tree_simple_types@U?$pair@QEBDUStreamSet@?A0x5d83d808@@@std@@@std@@@std@@@std@@QEAA?AV12@H@Z@4JA 000000018006f028     clReflectCore:Logging.obj
 0003:0000002c       ?__LINE__Var@?0??_Construct@?$_Tree_comp_alloc@V?$_Tmap_traits@PEBDUStreamSet@?A0x5d83d808@@U?$less@PEBD@std@@V?$allocator@U?$pair@QEBDUStreamSet@?A0x5d83d808@@@std@@@4@$0A@@std@@@std@@QEAAXXZ@4JA 000000018006f02c     clReflectCore:Logging.obj
 0003:00000030       ?__LINE__Var@?0??clear@?$_Tree@V?$_Tmap_traits@PEBDUStreamSet@?A0x5d83d808@@U?$less@PEBD@std@@V?$allocator@U?$pair@QEBDUStreamSet@?A0x5d83d808@@@std@@@4@$0A@@std@@@std@@QEAAXXZ@4JA 000000018006f030     clReflectCore:Logging.obj
 0003:00000034       ?__LINE__Var@?0??erase@?$_Tree@V?$_Tmap_traits@PEBDUStreamSet@?A0x5d83d808@@U?$less@PEBD@std@@V?$allocator@U?$pair@QEBDUStreamSet@?A0x5d83d808@@@std@@@4@$0A@@std@@@std@@QEAA?AV?$_Tree_iterator@V?$_Tree_val@U?$_Tree_simple_types@U?$pair@QEBDUStreamSet@?A0x5d83d808@@@std@@@std@@@std@@@3@V?$_Tree_const_iterator@V?$_Tree_val@U?$_Tree_simple_types@U?$pair@QEBDUStreamSet@?A0x5d83d808@@@std@@@std@@@std@@@3@@Z@4JA 000000018006f034     clReflectCore:Logging.obj
 0003:00000038       ?__LINE__Var@?0??_Extract@?$_Tree_val@U?$_Tree_simple_types@U?$pair@QEBDUStreamSet@?A0x5d83d808@@@std@@@std@@@std@@QEAAPEAU?$_Tree_node@U?$pair@QEBDUStreamSet@?A0x5d83d808@@@std@@PEAX@3@V?$_Tree_const_iterator@V?$_Tree_val@U?$_Tree_simple_types@U?$pair@QEBDUStreamSet@?A0x5d83d808@@@std@@@std@@@std@@@3@@Z@4JA 000000018006f038     clReflectCore:Logging.obj
 0003:0000003c       ?__LINE__Var@?0??_Buyheadnode@?$_Tree_comp_alloc@V?$_Tmap_traits@PEBDUStreamSet@?A0x5d83d808@@U?$less@PEBD@std@@V?$allocator@U?$pair@QEBDUStreamSet@?A0x5d83d808@@@std@@@4@$0A@@std@@@std@@QEAAPEAU?$_Tree_node@U?$pair@QEBDUStreamSet@?A0x5d83d808@@@std@@PEAX@3@XZ@4JA 000000018006f03c     clReflectCore:Logging.obj
 0003:00000040       ?__LINE__Var@?0??_Erase@?$_Tree@V?$_Tmap_traits@PEBDUStreamSet@?A0x5d83d808@@U?$less@PEBD@std@@V?$allocator@U?$pair@QEBDUStreamSet@?A0x5d83d808@@@std@@@4@$0A@@std@@@std@@IEAAXPEAU?$_Tree_node@U?$pair@QEBDUStreamSet@?A0x5d83d808@@@std@@PEAX@3@@Z@4JA 000000018006f040     clReflectCore:Logging.obj
 0003:00000044       ?__LINE__Var@?0???$?0AEBU?$less@PEBD@std@@U_Zero_then_variadic_args_t@1@@?$_Compressed_pair@U?$less@PEBD@std@@V?$_Compressed_pair@V?$allocator@U?$_Tree_node@U?$pair@QEBDUStreamSet@?A0x5d83d808@@@std@@PEAX@std@@@std@@V?$_Tree_val@U?$_Tree_simple_types@U?$pair@QEBDUStreamSet@?A0x5d83d808@@@std@@@std@@@2@$00@2@$00@std@@QEAA@U_One_then_variadic_args_t@2@AEBU?$less@PEBD@2@$$QEAU_Zero_then_variadic_args_t@2@@Z@4JA 000000018006f044     clReflectCore:Logging.obj
 0003:00000048       ?__LINE__Var@?0???$swap@DX@std@@YAXAEAD0@Z@4JA 000000018006f048     clReflectCore:Logging.obj
 0003:0000004c       ?__LINE__Var@?0???$forward@AEBU?$less@PEBD@std@@@std@@YAAEBU?$less@PEBD@1@AEBU21@@Z@4JA 000000018006f04c     clReflectCore:Logging.obj
 0003:00000050       ?__LINE__Var@?0???$forward@U_Zero_then_variadic_args_t@std@@@std@@YA$$QEAU_Zero_then_variadic_args_t@1@AEAU21@@Z@4JA 000000018006f050     clReflectCore:Logging.obj
 0003:00000054       ?__LINE__Var@?0???$?0$$V@?$_Compressed_pair@V?$allocator@U?$_Tree_node@U?$pair@QEBDUStreamSet@?A0x5d83d808@@@std@@PEAX@std@@@std@@V?$_Tree_val@U?$_Tree_simple_types@U?$pair@QEBDUStreamSet@?A0x5d83d808@@@std@@@std@@@2@$00@std@@QEAA@U_Zero_then_variadic_args_t@2@@Z@4JA 000000018006f054     clReflectCore:Logging.obj
 0003:00000058       ?__LINE__Var@?0???$move@AEAD@std@@YA$$QEADAEAD@Z@4JA 000000018006f058     clReflectCore:Logging.obj
 0003:0000005c       ?__LINE__Var@?0???0?$_Tree_val@U?$_Tree_simple_types@U?$pair@QEBDUStreamSet@?A0x5d83d808@@@std@@@std@@@std@@QEAA@XZ@4JA 000000018006f05c     clReflectCore:Logging.obj
 0003:00000060       ?__LINE__Var@?0???0?$allocator@U?$_Tree_node@U?$pair@QEBDUStreamSet@?A0x5d83d808@@@std@@PEAX@std@@@std@@QEAA@XZ@4JA 000000018006f060     clReflectCore:Logging.obj
 0003:00000064       ?__LINE__Var@?0???1?$map@IV?$basic_string@DU?$char_traits@D@std@@V?$allocator@D@2@@std@@U?$less@I@2@V?$allocator@U?$pair@$$CBIV?$basic_string@DU?$char_traits@D@std@@V?$allocator@D@2@@std@@@std@@@2@@std@@QEAA@XZ@4JA 000000018006f064     clReflectCore:DatabaseBinarySerialiser.obj
 0003:00000068       ?__LINE__Var@?0???1?$_Tree@V?$_Tmap_traits@IV?$basic_string@DU?$char_traits@D@std@@V?$allocator@D@2@@std@@U?$less@I@2@V?$allocator@U?$pair@$$CBIV?$basic_string@DU?$char_traits@D@std@@V?$allocator@D@2@@std@@@std@@@2@$0A@@std@@@std@@QEAA@XZ@4JA 000000018006f068     clReflectCore:DatabaseBinarySerialiser.obj
 0003:0000006c       ?__LINE__Var@?0???0?$map@IV?$basic_string@DU?$char_traits@D@std@@V?$allocator@D@2@@std@@U?$less@I@2@V?$allocator@U?$pair@$$CBIV?$basic_string@DU?$char_traits@D@std@@V?$allocator@D@2@@std@@@std@@@2@@std@@QEAA@XZ@4JA 000000018006f06c     clReflectCore:DatabaseBinarySerialiser.obj
 0003:00000070       ?__LINE__Var@?0???1?$_Tree_comp_alloc@V?$_Tmap_traits@IV?$basic_string@DU?$char_traits@D@std@@V?$allocator@D@2@@std@@U?$less@I@2@V?$allocator@U?$pair@$$CBIV?$basic_string@DU?$char_traits@D@std@@V?$allocator@D@2@@std@@@std@@@2@$0A@@std@@@std@@QEAA@XZ@4JA 000000018006f070     clReflectCore:DatabaseBinarySerialiser.obj
 0003:00000074       ?__LINE__Var@?0??_Tidy@?$_Tree@V?$_Tmap_traits@IV?$basic_string@DU?$char_traits@D@std@@V?$allocator@D@2@@std@@U?$less@I@2@V?$allocator@U?$pair@$$CBIV?$basic_string@DU?$char_traits@D@std@@V?$allocator@D@2@@std@@@std@@@2@$0A@@std@@@std@@IEAAXXZ@4JA 000000018006f074     clReflectCore:DatabaseBinarySerialiser.obj
 0003:00000078       ?__LINE__Var@?0???0?$_Tree@V?$_Tmap_traits@IV?$basic_string@DU?$char_traits@D@std@@V?$allocator@D@2@@std@@U?$less@I@2@V?$allocator@U?$pair@$$CBIV?$basic_string@DU?$char_traits@D@std@@V?$allocator@D@2@@std@@@std@@@2@$0A@@std@@@std@@QEAA@AEBU?$less@I@2@@Z@4JA 000000018006f078     clReflectCore:DatabaseBinarySerialiser.obj
 0003:0000007c       ?__LINE__Var@?0??_Freeheadnode@?$_Tree_comp_alloc@V?$_Tmap_traits@IV?$basic_string@DU?$char_traits@D@std@@V?$allocator@D@2@@std@@U?$less@I@2@V?$allocator@U?$pair@$$CBIV?$basic_string@DU?$char_traits@D@std@@V?$allocator@D@2@@std@@@std@@@2@$0A@@std@@@std@@QEAAXPEAU?$_Tree_node@U?$pair@$$CBIV?$basic_string@DU?$char_traits@D@std@@V?$allocator@D@2@@std@@@std@@PEAX@3@@Z@4JA 000000018006f07c     clReflectCore:DatabaseBinarySerialiser.obj
 0003:00000080       ?__LINE__Var@?0???0?$_Tree_comp_alloc@V?$_Tmap_traits@IV?$basic_string@DU?$char_traits@D@std@@V?$allocator@D@2@@std@@U?$less@I@2@V?$allocator@U?$pair@$$CBIV?$basic_string@DU?$char_traits@D@std@@V?$allocator@D@2@@std@@@std@@@2@$0A@@std@@@std@@QEAA@AEBU?$less@I@2@@Z@4JA 000000018006f080     clReflectCore:DatabaseBinarySerialiser.obj
 0003:00000084       ?__LINE__Var@?0??erase@?$_Tree@V?$_Tmap_traits@IV?$basic_string@DU?$char_traits@D@std@@V?$allocator@D@2@@std@@U?$less@I@2@V?$allocator@U?$pair@$$CBIV?$basic_string@DU?$char_traits@D@std@@V?$allocator@D@2@@std@@@std@@@2@$0A@@std@@@std@@QEAA?AV?$_Tree_iterator@V?$_Tree_val@U?$_Tree_simple_types@U?$pair@$$CBIV?$basic_string@DU?$char_traits@D@std@@V?$allocator@D@2@@std@@@std@@@std@@@std@@@3@V?$_Tree_const_iterator@V?$_Tree_val@U?$_Tree_simple_types@U?$pair@$$CBIV?$basic_string@DU?$char_traits@D@std@@V?$allocator@D@2@@std@@@std@@@std@@@std@@@3@0@Z@4JA 000000018006f084     clReflectCore:DatabaseBinarySerialiser.obj
 0003:00000088       ?__LINE__Var@?0???E?$_Tree_const_iterator@V?$_Tree_val@U?$_Tree_simple_types@U?$pair@$$CBIV?$basic_string@DU?$char_traits@D@std@@V?$allocator@D@2@@std@@@std@@@std@@@std@@@std@@QEAA?AV12@H@Z@4JA 000000018006f088     clReflectCore:DatabaseBinarySerialiser.obj
 0003:0000008c       ?__LINE__Var@?0??_Construct@?$_Tree_comp_alloc@V?$_Tmap_traits@IV?$basic_string@DU?$char_traits@D@std@@V?$allocator@D@2@@std@@U?$less@I@2@V?$allocator@U?$pair@$$CBIV?$basic_string@DU?$char_traits@D@std@@V?$allocator@D@2@@std@@@std@@@2@$0A@@std@@@std@@QEAAXXZ@4JA 000000018006f08c     clReflectCore:DatabaseBinarySerialiser.obj
 0003:00000090       ?__LINE__Var@?0??erase@?$_Tree@V?$_Tmap_traits@IV?$basic_string@DU?$char_traits@D@std@@V?$allocator@D@2@@std@@U?$less@I@2@V?$allocator@U?$pair@$$CBIV?$basic_string@DU?$char_traits@D@std@@V?$allocator@D@2@@std@@@std@@@2@$0A@@std@@@std@@QEAA?AV?$_Tree_iterator@V?$_Tree_val@U?$_Tree_simple_types@U?$pair@$$CBIV?$basic_string@DU?$char_traits@D@std@@V?$allocator@D@2@@std@@@std@@@std@@@std@@@3@V?$_Tree_const_iterator@V?$_Tree_val@U?$_Tree_simple_types@U?$pair@$$CBIV?$basic_string@DU?$char_traits@D@std@@V?$allocator@D@2@@std@@@std@@@std@@@std@@@3@@Z@4JA 000000018006f090     clReflectCore:DatabaseBinarySerialiser.obj
 0003:00000094       ?__LINE__Var@?0??_Extract@?$_Tree_val@U?$_Tree_simple_types@U?$pair@$$CBIV?$basic_string@DU?$char_traits@D@std@@V?$allocator@D@2@@std@@@std@@@std@@@std@@QEAAPEAU?$_Tree_node@U?$pair@$$CBIV?$basic_string@DU?$char_traits@D@std@@V?$allocator@D@2@@std@@@std@@PEAX@3@V?$_Tree_const_iterator@V?$_Tree_val@U?$_Tree_simple_types@U?$pair@$$CBIV?$basic_string@DU?$char_traits@D@std@@V?$allocator@D@2@@std@@@std@@@std@@@std@@@3@@Z@4JA 000000018006f094     clReflectCore:DatabaseBinarySerialiser.obj
 0003:00000098       ?__LINE__Var@?0??_Buyheadnode@?$_Tree_comp_alloc@V?$_Tmap_traits@IV?$basic_string@DU?$char_traits@D@std@@V?$allocator@D@2@@std@@U?$less@I@2@V?$allocator@U?$pair@$$CBIV?$basic_string@DU?$char_traits@D@std@@V?$allocator@D@2@@std@@@std@@@2@$0A@@std@@@std@@QEAAPEAU?$_Tree_node@U?$pair@$$CBIV?$basic_string@DU?$char_traits@D@std@@V?$allocator@D@2@@std@@@std@@PEAX@3@XZ@4JA 000000018006f098     clReflectCore:DatabaseBinarySerialiser.obj
 0003:0000009c       ?__LINE__Var@?0???$?0AEBU?$less@I@std@@U_Zero_then_variadic_args_t@1@@?$_Compressed_pair@U?$less@I@std@@V?$_Compressed_pair@V?$allocator@U?$_Tree_node@U?$pair@$$CBIV?$basic_string@DU?$char_traits@D@std@@V?$allocator@D@2@@std@@@std@@PEAX@std@@@std@@V?$_Tree_val@U?$_Tree_simple_types@U?$pair@$$CBIV?$basic_string@DU?$char_traits@D@std@@V?$allocator@D@2@@std@@@std@@@std@@@2@$00@2@$00@std@@QEAA@U_One_then_variadic_args_t@2@AEBU?$less@I@2@$$QEAU_Zero_then_variadic_args_t@2@@Z@4JA 000000018006f09c     clReflectCore:DatabaseBinarySerialiser.obj
 0003:000000a0       ?__LINE__Var@?0???$forward@AEBU?$less@I@std@@@std@@YAAEBU?$less@I@1@AEBU21@@Z@4JA 000000018006f0a0     clReflectCore:DatabaseBinarySerialiser.obj
 0003:000000a4       ?__LINE__Var@?0???$?0$$V@?$_Compressed_pair@V?$allocator@U?$_Tree_node@U?$pair@$$CBIV?$basic_string@DU?$char_traits@D@std@@V?$allocator@D@2@@std@@@std@@PEAX@std@@@std@@V?$_Tree_val@U?$_Tree_simple_types@U?$pair@$$CBIV?$basic_string@DU?$char_traits@D@std@@V?$allocator@D@2@@std@@@std@@@std@@@2@$00@std@@QEAA@U_Zero_then_variadic_args_t@2@@Z@4JA 000000018006f0a4     clReflectCore:DatabaseBinarySerialiser.obj
 0003:000000a8       ?__LINE__Var@?0???0?$_Tree_val@U?$_Tree_simple_types@U?$pair@$$CBIV?$basic_string@DU?$char_traits@D@std@@V?$allocator@D@2@@std@@@std@@@std@@@std@@QEAA@XZ@4JA 000000018006f0a8     clReflectCore:DatabaseBinarySerialiser.obj
 0003:000000ac       ?__LINE__Var@?0???0?$allocator@U?$_Tree_node@U?$pair@$$CBIV?$basic_string@DU?$char_traits@D@std@@V?$allocator@D@2@@std@@@std@@PEAX@std@@@std@@QEAA@XZ@4JA 000000018006f0ac     clReflectCore:DatabaseBinarySerialiser.obj
 0003:000000b0       ?__LINE__Var@?0??assign@?$char_traits@D@std@@SAXAEADAEBD@Z@4JA 000000018006f0b0     clReflectCore:DatabaseMetadata.obj
 0003:000000b4       ?__LINE__Var@?0???0Name@cldb@@QEAA@XZ@4JA 000000018006f0b4     clReflectCore:DatabaseMetadata.obj
 0003:000000b8       ?__LINE__Var@?0???0Qualifier@cldb@@QEAA@XZ@4JA 000000018006f0b8     clReflectCore:DatabaseMetadata.obj
 0003:000000bc       ?__LINE__Var@?0???0Primitive@cldb@@QEAA@XZ@4JA 000000018006f0bc     clReflectCore:DatabaseMetadata.obj
 0003:000000c0       ?__LINE__Var@?0???0Primitive@cldb@@QEAA@W4Kind@12@@Z@4JA 000000018006f0c0     clReflectCore:DatabaseMetadata.obj
 0003:000000c4       ?__LINE__Var@?0???1Name@cldb@@QEAA@XZ@4JA 000000018006f0c4     clReflectCore:DatabaseMetadata.obj
 0003:000000c8       ?__LINE__Var@?0???0Attribute@cldb@@QEAA@W4Kind@Primitive@2@@Z@4JA 000000018006f0c8     clReflectCore:DatabaseMetadata.obj
 0003:000000cc       ?__LINE__Var@?0???1Attribute@cldb@@UEAA@XZ@4JA 000000018006f0cc     clReflectCore:DatabaseMetadata.obj
 0003:000000d0       ?__LINE__Var@?0???_GAttribute@cldb@@UEAAPEAXI@Z@4JA 000000018006f0d0     clReflectCore:DatabaseMetadata.obj
 0003:000000d4       ?__LINE__Var@?0???1Primitive@cldb@@QEAA@XZ@4JA 000000018006f0d4     clReflectCore:DatabaseMetadata.obj
 0003:000000d8       ?__LINE__Var@?0???0IntAttribute@cldb@@QEAA@XZ@4JA 000000018006f0d8     clReflectCore:DatabaseMetadata.obj
 0003:000000dc       ?__LINE__Var@?0???1IntAttribute@cldb@@UEAA@XZ@4JA 000000018006f0dc     clReflectCore:DatabaseMetadata.obj
 0003:000000e0       ?__LINE__Var@?0???_GIntAttribute@cldb@@UEAAPEAXI@Z@4JA 000000018006f0e0     clReflectCore:DatabaseMetadata.obj
 0003:000000e4       ?__LINE__Var@?0???0FloatAttribute@cldb@@QEAA@XZ@4JA 000000018006f0e4     clReflectCore:DatabaseMetadata.obj
 0003:000000e8       ?__LINE__Var@?0???1FloatAttribute@cldb@@UEAA@XZ@4JA 000000018006f0e8     clReflectCore:DatabaseMetadata.obj
 0003:000000ec       ?__LINE__Var@?0???_GFloatAttribute@cldb@@UEAAPEAXI@Z@4JA 000000018006f0ec     clReflectCore:DatabaseMetadata.obj
 0003:000000f0       ?__LINE__Var@?0???0PrimitiveAttribute@cldb@@QEAA@XZ@4JA 000000018006f0f0     clReflectCore:DatabaseMetadata.obj
 0003:000000f4       ?__LINE__Var@?0???1PrimitiveAttribute@cldb@@UEAA@XZ@4JA 000000018006f0f4     clReflectCore:DatabaseMetadata.obj
 0003:000000f8       ?__LINE__Var@?0???_GPrimitiveAttribute@cldb@@UEAAPEAXI@Z@4JA 000000018006f0f8     clReflectCore:DatabaseMetadata.obj
 0003:000000fc       ?__LINE__Var@?0???0TextAttribute@cldb@@QEAA@XZ@4JA 000000018006f0fc     clReflectCore:DatabaseMetadata.obj
 0003:00000100       ?__LINE__Var@?0???1TextAttribute@cldb@@UEAA@XZ@4JA 000000018006f100     clReflectCore:DatabaseMetadata.obj
 0003:00000104       ?__LINE__Var@?0???_GTextAttribute@cldb@@UEAAPEAXI@Z@4JA 000000018006f104     clReflectCore:DatabaseMetadata.obj
 0003:00000108       ?__LINE__Var@?0???0Type@cldb@@QEAA@XZ@4JA 000000018006f108     clReflectCore:DatabaseMetadata.obj
 0003:0000010c       ?__LINE__Var@?0???0Type@cldb@@QEAA@W4Kind@Primitive@2@@Z@4JA 000000018006f10c     clReflectCore:DatabaseMetadata.obj
 0003:00000110       ?__LINE__Var@?0???0EnumConstant@cldb@@QEAA@XZ@4JA 000000018006f110     clReflectCore:DatabaseMetadata.obj
 0003:00000114       ?__LINE__Var@?0???0Enum@cldb@@QEAA@XZ@4JA 000000018006f114     clReflectCore:DatabaseMetadata.obj
 0003:00000118       ?__LINE__Var@?0???1Type@cldb@@QEAA@XZ@4JA 000000018006f118     clReflectCore:DatabaseMetadata.obj
 0003:0000011c       ?__LINE__Var@?0???0Field@cldb@@QEAA@XZ@4JA 000000018006f11c     clReflectCore:DatabaseMetadata.obj
 0003:00000120       ?__LINE__Var@?0???0Function@cldb@@QEAA@XZ@4JA 000000018006f120     clReflectCore:DatabaseMetadata.obj
 0003:00000124       ?__LINE__Var@?0???0TemplateType@cldb@@QEAA@XZ@4JA 000000018006f124     clReflectCore:DatabaseMetadata.obj
 0003:00000128       ?__LINE__Var@?0???0Class@cldb@@QEAA@XZ@4JA 000000018006f128     clReflectCore:DatabaseMetadata.obj
 0003:0000012c       ?__LINE__Var@?0???0ContainerInfo@cldb@@QEAA@XZ@4JA 000000018006f12c     clReflectCore:DatabaseMetadata.obj
 0003:00000130       ?__LINE__Var@?0???0TypeInheritance@cldb@@QEAA@XZ@4JA 000000018006f130     clReflectCore:DatabaseMetadata.obj
 0003:00000134       ?__LINE__Var@?0???1?$basic_string@DU?$char_traits@D@std@@V?$allocator@D@2@@std@@QEAA@XZ@4JA 000000018006f134     clReflectCore:DatabaseMetadata.obj
 0003:00000138       ?__LINE__Var@?0???0?$basic_string@DU?$char_traits@D@std@@V?$allocator@D@2@@std@@QEAA@XZ@4JA 000000018006f138     clReflectCore:DatabaseMetadata.obj
 0003:0000013c       ?__LINE__Var@?0???1?$_String_alloc@U?$_String_base_types@DV?$allocator@D@std@@@std@@@std@@QEAA@XZ@4JA 000000018006f13c     clReflectCore:DatabaseMetadata.obj
 0003:00000140       ?__LINE__Var@?0???1?$_Compressed_pair@V?$allocator@D@std@@V?$_String_val@U?$_Simple_types@D@std@@@2@$00@std@@QEAA@XZ@4JA 000000018006f140     clReflectCore:DatabaseMetadata.obj
 0003:00000144       ?__LINE__Var@?0???1?$_String_val@U?$_Simple_types@D@std@@@std@@QEAA@XZ@4JA 000000018006f144     clReflectCore:DatabaseMetadata.obj
 0003:00000148       ?__LINE__Var@?0???1_Bxty@?$_String_val@U?$_Simple_types@D@std@@@std@@QEAA@XZ@4JA 000000018006f148     clReflectCore:DatabaseMetadata.obj
 0003:0000014c       ?__LINE__Var@?0??_Large_string_engaged@?$_String_val@U?$_Simple_types@D@std@@@std@@QEBA_NXZ@4JA 000000018006f14c     clReflectCore:DatabaseMetadata.obj
 0003:00000150       ?__LINE__Var@?0??_Get_data@?$_String_alloc@U?$_String_base_types@DV?$allocator@D@std@@@std@@@std@@QEAAAEAV?$_String_val@U?$_Simple_types@D@std@@@3@XZ@4JA 000000018006f150     clReflectCore:DatabaseMetadata.obj
 0003:00000154       ?__LINE__Var@?0??_Getal@?$_String_alloc@U?$_String_base_types@DV?$allocator@D@std@@@std@@@std@@QEAAAEAV?$allocator@D@3@XZ@4JA 000000018006f154     clReflectCore:DatabaseMetadata.obj
 0003:00000158       ?__LINE__Var@?0??_Orphan_all@?$_String_alloc@U?$_String_base_types@DV?$allocator@D@std@@@std@@@std@@QEAAXXZ@4JA 000000018006f158     clReflectCore:DatabaseMetadata.obj
 0003:0000015c       ?__LINE__Var@?0???0?$_String_alloc@U?$_String_base_types@DV?$allocator@D@std@@@std@@@std@@QEAA@XZ@4JA 000000018006f15c     clReflectCore:DatabaseMetadata.obj
 0003:00000160       ?__LINE__Var@?0??_Tidy_deallocate@?$basic_string@DU?$char_traits@D@std@@V?$allocator@D@2@@std@@QEAAXXZ@4JA 000000018006f160     clReflectCore:DatabaseMetadata.obj
 0003:00000164       ?__LINE__Var@?0??_Tidy_init@?$basic_string@DU?$char_traits@D@std@@V?$allocator@D@2@@std@@QEAAXXZ@4JA 000000018006f164     clReflectCore:DatabaseMetadata.obj
 0003:00000168       ?__LINE__Var@?0??deallocate@?$allocator@D@std@@QEAAXQEAD_K@Z@4JA 000000018006f168     clReflectCore:DatabaseMetadata.obj
 0003:0000016c       ?__LINE__Var@?0??_Get_second@?$_Compressed_pair@V?$allocator@D@std@@V?$_String_val@U?$_Simple_types@D@std@@@2@$00@std@@QEAAAEAV?$_String_val@U?$_Simple_types@D@std@@@3@XZ@4JA 000000018006f16c     clReflectCore:DatabaseMetadata.obj
 0003:00000170       ?__LINE__Var@?0??_Get_first@?$_Compressed_pair@V?$allocator@D@std@@V?$_String_val@U?$_Simple_types@D@std@@@2@$00@std@@QEAAAEAV?$allocator@D@3@XZ@4JA 000000018006f170     clReflectCore:DatabaseMetadata.obj
 0003:00000174       ?__LINE__Var@?0???$?0$$V@?$_Compressed_pair@V?$allocator@D@std@@V?$_String_val@U?$_Simple_types@D@std@@@2@$00@std@@QEAA@U_Zero_then_variadic_args_t@2@@Z@4JA 000000018006f174     clReflectCore:DatabaseMetadata.obj
 0003:00000178       ?__LINE__Var@?0???$addressof@PEAD@std@@YAPEAPEADAEAPEAD@Z@4JA 000000018006f178     clReflectCore:DatabaseMetadata.obj
 0003:0000017c       ?__LINE__Var@?0???$destroy@PEAD@?$_Default_allocator_traits@V?$allocator@D@std@@@std@@SAXAEAV?$allocator@D@2@QEAPEAD@Z@4JA 000000018006f17c     clReflectCore:DatabaseMetadata.obj
 0003:00000180       ?__LINE__Var@?0???0?$_String_val@U?$_Simple_types@D@std@@@std@@QEAA@XZ@4JA 000000018006f180     clReflectCore:DatabaseMetadata.obj
 0003:00000184       ?__LINE__Var@?0???0?$allocator@D@std@@QEAA@XZ@4JA 000000018006f184     clReflectCore:DatabaseMetadata.obj
 0003:00000188       ?__LINE__Var@?0???0_Bxty@?$_String_val@U?$_Simple_types@D@std@@@std@@QEAA@XZ@4JA 000000018006f188     clReflectCore:DatabaseMetadata.obj
 0003:0000018c       ?__LINE__Var@?0???1Enum@cldb@@QEAA@XZ@4JA 000000018006f18c     clReflectCore:DatabaseMetadata.obj
 0003:00000190       ?__LINE__Var@?0???1EnumConstant@cldb@@QEAA@XZ@4JA 000000018006f190     clReflectCore:DatabaseMetadata.obj
 0003:00000194       ?__LINE__Var@?0???1Field@cldb@@QEAA@XZ@4JA 000000018006f194     clReflectCore:DatabaseMetadata.obj
 0003:00000198       ?__LINE__Var@?0???1Function@cldb@@QEAA@XZ@4JA 000000018006f198     clReflectCore:DatabaseMetadata.obj
 0003:0000019c       ?__LINE__Var@?0???1TemplateType@cldb@@QEAA@XZ@4JA 000000018006f19c     clReflectCore:DatabaseMetadata.obj
 0003:000001a0       ?__LINE__Var@?0???1Class@cldb@@QEAA@XZ@4JA 000000018006f1a0     clReflectCore:DatabaseMetadata.obj
 0003:000001a4       ?__LINE__Var@?0???1ContainerInfo@cldb@@QEAA@XZ@4JA 000000018006f1a4     clReflectCore:DatabaseMetadata.obj
 0003:000001a8       ?__LINE__Var@?0???1TypeInheritance@cldb@@QEAA@XZ@4JA 000000018006f1a8     clReflectCore:DatabaseMetadata.obj
 0003:000001b0       __security_cookie_complement 000000018006f1b0     MSVCRT:gs_cookie.obj
 0003:000001b8       __security_cookie          000000018006f1b8     MSVCRT:gs_cookie.obj
 0003:000001c0       _fltused                   000000018006f1c0     MSVCRT:fltused.obj
 0003:000001c4       __scrt_native_dllmain_reason 000000018006f1c4     MSVCRT:utility.obj
 0003:000001c8       __isa_available            000000018006f1c8     MSVCRT:cpu_disp.obj
 0003:000001cc       __isa_enabled              000000018006f1cc     MSVCRT:cpu_disp.obj
 0003:000001d0       __memcpy_nt_iters          000000018006f1d0     MSVCRT:cpu_disp.obj
 0003:000001e0       __scrt_ucrt_dll_is_in_use  000000018006f1e0     MSVCRT:ucrt_stubs.obj
 0003:000001e8       ??_R0?AUIAllocator@clcpp@@@8 000000018006f1e8     CppExport.obj
 0003:00000240       ??_R0?AUAttribute@cldb@@@8 000000018006f240     Main.obj
 0003:00000268       ??_R0?AUPrimitive@cldb@@@8 000000018006f268     Main.obj
 0003:00000290       ??_R0?AUPrimitiveAttribute@cldb@@@8 000000018006f290     Main.obj
 0003:000002c0       ??_R0?AUTextAttribute@cldb@@@8 000000018006f2c0     Main.obj
 0003:00000380       ??_R0?AUFlagAttribute@cldb@@@8 000000018006f380     clReflectCore:DatabaseBinarySerialiser.obj
 0003:000003b0       ??_R0?AUIntAttribute@cldb@@@8 000000018006f3b0     clReflectCore:DatabaseBinarySerialiser.obj
 0003:000003d8       ??_R0?AUFloatAttribute@cldb@@@8 000000018006f3d8     clReflectCore:DatabaseBinarySerialiser.obj
 0003:00000408       ??_R0?AVtype_info@@@8      000000018006f408     MSVCRT:std_type_info_static.obj
 0003:00000428       ??_R0?AVbad_alloc@std@@@8  000000018006f428     MSVCRT:throw_bad_alloc.obj
 0003:00000450       ??_R0?AVexception@std@@@8  000000018006f450     MSVCRT:throw_bad_alloc.obj
 0003:00000478       ??_R0?AVbad_array_new_length@std@@@8 000000018006f478     MSVCRT:throw_bad_alloc.obj
 0003:000004b0       ?_OptionsStorage@?1??__local_stdio_printf_options@@9@4_KA 000000018006f4b0     clReflectCore:Logging.obj
 0003:000004b8       ?g_TextAttributeMap@?A0xfa3cade9@@3V?$map@IV?$basic_string@DU?$char_traits@D@std@@V?$allocator@D@2@@std@@U?$less@I@2@V?$allocator@U?$pair@$$CBIV?$basic_string@DU?$char_traits@D@std@@V?$allocator@D@2@@std@@@std@@@2@@std@@A 000000018006f4b8     clReflectCore:DatabaseBinarySerialiser.obj
 0003:000004c8       ?_OptionsStorage@?1??__local_stdio_scanf_options@@9@4_KA 000000018006f4c8     clReflectCore:DatabaseTextSerialiser.obj
 0003:000004d0       _tls_index                 000000018006f4d0     MSVCRT:tlssup.obj
 0003:00000a58       __scrt_current_native_startup_state 000000018006fa58     MSVCRT:utility.obj
 0003:00000a60       __scrt_native_startup_lock 000000018006fa60     MSVCRT:utility.obj
 0003:00000aa0       ?__type_info_root_node@@3U__type_info_node@@A 000000018006faa0     MSVCRT:tncleanup.obj
 0003:00000ab0       __scrt_debugger_hook_flag  000000018006fab0     MSVCRT:utility_desktop.obj
 0003:00000ab4       __favor                    000000018006fab4     MSVCRT:cpu_disp.obj

 entry point at        0001:0004aa94

 Static symbols

 0002:fffad000       $unwind$?clear@?$_Tree@V?$_Tmap_traits@IUFlagAttribute@cldb@@U?$less@I@std@@V?$allocator@U?$pair@$$CBIUFlagAttribute@cldb@@@std@@@4@$00@std@@@std@@QEAAXXZ 0000000180000000     clReflectCore:Database.obj
 0002:fffad000       $unwind$??_G?$pair@$$CBIUName@cldb@@@std@@QEAAPEAXI@Z 0000000180000000     clReflectCore:DatabaseBinarySerialiser.obj
 0004:fff90000       $pdata$?deallocate@?$allocator@U?$_Tree_node@U?$pair@$$CBIUTextAttribute@cldb@@@std@@PEAX@std@@@std@@QEAAXQEAU?$_Tree_node@U?$pair@$$CBIUTextAttribute@cldb@@@std@@PEAX@2@_K@Z 0000000180000000     clReflectCore:DatabaseBinarySerialiser.obj
 0002:fffad000       $unwind$?deallocate@?$allocator@U?$_Tree_node@U?$pair@$$CBIUTextAttribute@cldb@@@std@@PEAX@std@@@std@@QEAAXQEAU?$_Tree_node@U?$pair@$$CBIUTextAttribute@cldb@@@std@@PEAX@2@_K@Z 0000000180000000     clReflectCore:DatabaseBinarySerialiser.obj
 0004:fff90000       $pdata$?deallocate@?$allocator@U?$_Tree_node@U?$pair@$$CBIUPrimitiveAttribute@cldb@@@std@@PEAX@std@@@std@@QEAAXQEAU?$_Tree_node@U?$pair@$$CBIUPrimitiveAttribute@cldb@@@std@@PEAX@2@_K@Z 0000000180000000     clReflectCore:DatabaseBinarySerialiser.obj
 0002:fffad000       $unwind$?deallocate@?$allocator@U?$_Tree_node@U?$pair@$$CBIUPrimitiveAttribute@cldb@@@std@@PEAX@std@@@std@@QEAAXQEAU?$_Tree_node@U?$pair@$$CBIUPrimitiveAttribute@cldb@@@std@@PEAX@2@_K@Z 0000000180000000     clReflectCore:DatabaseBinarySerialiser.obj
 0000:fff89000       .debug$S                   0000000180000000     clReflectExport.exp
 0004:fff90000       $pdata$?deallocate@?$allocator@U?$_Tree_node@U?$pair@$$CBIUFloatAttribute@cldb@@@std@@PEAX@std@@@std@@QEAAXQEAU?$_Tree_node@U?$pair@$$CBIUFloatAttribute@cldb@@@std@@PEAX@2@_K@Z 0000000180000000     clReflectCore:DatabaseBinarySerialiser.obj
 0000:fff89000       .debug$S                   0000000180000000     kernel32:KERNEL32.dll
 0000:fff89000       .debug$S                   0000000180000000     kernel32:KERNEL32.dll
 0000:fff89000       .debug$S                   0000000180000000     kernel32:KERNEL32.dll
 0000:fff89000       .debug$S                   0000000180000000     kernel32:KERNEL32.dll
 0000:fff89000       .debug$S                   0000000180000000     kernel32:KERNEL32.dll
 0000:fff89000       .debug$S                   0000000180000000     kernel32:KERNEL32.dll
 0000:fff89000       .debug$S                   0000000180000000     kernel32:KERNEL32.dll
 0000:fff89000       .debug$S                   0000000180000000     kernel32:KERNEL32.dll
 0000:fff89000       .debug$S                   0000000180000000     kernel32:KERNEL32.dll
 0000:fff89000       .debug$S                   0000000180000000     kernel32:KERNEL32.dll
 0000:fff89000       .debug$S                   0000000180000000     kernel32:KERNEL32.dll
 0000:fff89000       .debug$S                   0000000180000000     kernel32:KERNEL32.dll
 0000:fff89000       .debug$S                   0000000180000000     kernel32:KERNEL32.dll
 0000:fff89000       .debug$S                   0000000180000000     kernel32:KERNEL32.dll
 0000:fff89000       .debug$S                   0000000180000000     kernel32:KERNEL32.dll
 0000:fff89000       .debug$S                   0000000180000000     kernel32:KERNEL32.dll
 0002:fffad000       $unwind$?deallocate@?$allocator@U?$_Tree_node@U?$pair@$$CBIUFloatAttribute@cldb@@@std@@PEAX@std@@@std@@QEAAXQEAU?$_Tree_node@U?$pair@$$CBIUFloatAttribute@cldb@@@std@@PEAX@2@_K@Z 0000000180000000     clReflectCore:DatabaseBinarySerialiser.obj
 0004:fff90000       $pdata$?deallocate@?$allocator@U?$_Tree_node@U?$pair@$$CBIUIntAttribute@cldb@@@std@@PEAX@std@@@std@@QEAAXQEAU?$_Tree_node@U?$pair@$$CBIUIntAttribute@cldb@@@std@@PEAX@2@_K@Z 0000000180000000     clReflectCore:DatabaseBinarySerialiser.obj
 0002:fffad000       $unwind$?deallocate@?$allocator@U?$_Tree_node@U?$pair@$$CBIUIntAttribute@cldb@@@std@@PEAX@std@@@std@@QEAAXQEAU?$_Tree_node@U?$pair@$$CBIUIntAttribute@cldb@@@std@@PEAX@2@_K@Z 0000000180000000     clReflectCore:DatabaseBinarySerialiser.obj
 0004:fff90000       $pdata$?deallocate@?$allocator@U?$_Tree_node@U?$pair@$$CBIUFlagAttribute@cldb@@@std@@PEAX@std@@@std@@QEAAXQEAU?$_Tree_node@U?$pair@$$CBIUFlagAttribute@cldb@@@std@@PEAX@2@_K@Z 0000000180000000     clReflectCore:DatabaseBinarySerialiser.obj
 0002:fffad000       $unwind$?deallocate@?$allocator@U?$_Tree_node@U?$pair@$$CBIUFlagAttribute@cldb@@@std@@PEAX@std@@@std@@QEAAXQEAU?$_Tree_node@U?$pair@$$CBIUFlagAttribute@cldb@@@std@@PEAX@2@_K@Z 0000000180000000     clReflectCore:DatabaseBinarySerialiser.obj
 0000:fff89000       .debug$S                   0000000180000000     ucrt:api-ms-win-crt-runtime-l1-1-0.dll
 0000:fff89000       .debug$S                   0000000180000000     ucrt:api-ms-win-crt-runtime-l1-1-0.dll
 0000:fff89000       .debug$S                   0000000180000000     ucrt:api-ms-win-crt-runtime-l1-1-0.dll
 0000:fff89000       .debug$S                   0000000180000000     ucrt:api-ms-win-crt-runtime-l1-1-0.dll
 0000:fff89000       .debug$S                   0000000180000000     ucrt:api-ms-win-crt-runtime-l1-1-0.dll
 0000:fff89000       .debug$S                   0000000180000000     ucrt:api-ms-win-crt-runtime-l1-1-0.dll
 0000:fff89000       .debug$S                   0000000180000000     ucrt:api-ms-win-crt-runtime-l1-1-0.dll
 0000:fff89000       .debug$S                   0000000180000000     ucrt:api-ms-win-crt-runtime-l1-1-0.dll
 0000:fff89000       .debug$S                   0000000180000000     ucrt:api-ms-win-crt-runtime-l1-1-0.dll
 0000:fff89000       .debug$S                   0000000180000000     ucrt:api-ms-win-crt-runtime-l1-1-0.dll
 0000:fff89000       .debug$S                   0000000180000000     ucrt:api-ms-win-crt-runtime-l1-1-0.dll
 0000:fff89000       .debug$S                   0000000180000000     ucrt:api-ms-win-crt-runtime-l1-1-0.dll
 0000:fff89000       .debug$S                   0000000180000000     ucrt:api-ms-win-crt-heap-l1-1-0.dll
 0000:fff89000       .debug$S                   0000000180000000     ucrt:api-ms-win-crt-string-l1-1-0.dll
 0000:fff89000       .debug$S                   0000000180000000     ucrt:api-ms-win-crt-stdio-l1-1-0.dll
 0000:fff89000       .debug$S                   0000000180000000     ucrt:api-ms-win-crt-stdio-l1-1-0.dll
 0000:fff89000       .debug$S                   0000000180000000     ucrt:api-ms-win-crt-convert-l1-1-0.dll
 0000:fff89000       .debug$S                   0000000180000000     ucrt:api-ms-win-crt-stdio-l1-1-0.dll
 0000:fff89000       .debug$S                   0000000180000000     ucrt:api-ms-win-crt-stdio-l1-1-0.dll
 0000:fff89000       .debug$S                   0000000180000000     ucrt:api-ms-win-crt-stdio-l1-1-0.dll
 0000:fff89000       .debug$S                   0000000180000000     ucrt:api-ms-win-crt-stdio-l1-1-0.dll
 0000:fff89000       .debug$S                   0000000180000000     ucrt:api-ms-win-crt-string-l1-1-0.dll
 0000:fff89000       .debug$S                   0000000180000000     ucrt:api-ms-win-crt-convert-l1-1-0.dll
 0000:fff89000       .debug$S                   0000000180000000     ucrt:api-ms-win-crt-stdio-l1-1-0.dll
 0000:fff89000       .debug$S                   0000000180000000     ucrt:api-ms-win-crt-string-l1-1-0.dll
 0000:fff89000       .debug$S                   0000000180000000     ucrt:api-ms-win-crt-string-l1-1-0.dll
 0000:fff89000       .debug$S                   0000000180000000     ucrt:api-ms-win-crt-string-l1-1-0.dll
 0000:fff89000       .debug$S                   0000000180000000     ucrt:api-ms-win-crt-string-l1-1-0.dll
 0000:fff89000       .debug$S                   0000000180000000     ucrt:api-ms-win-crt-string-l1-1-0.dll
 0000:fff89000       .debug$S                   0000000180000000     ucrt:api-ms-win-crt-string-l1-1-0.dll
 0000:fff89000       .debug$S                   0000000180000000     ucrt:api-ms-win-crt-stdio-l1-1-0.dll
 0000:fff89000       .debug$S                   0000000180000000     ucrt:api-ms-win-crt-stdio-l1-1-0.dll
 0000:fff89000       .debug$S                   0000000180000000     ucrt:api-ms-win-crt-stdio-l1-1-0.dll
 0000:fff89000       .debug$S                   0000000180000000     ucrt:api-ms-win-crt-stdio-l1-1-0.dll
 0000:fff89000       .debug$S                   0000000180000000     ucrt:api-ms-win-crt-heap-l1-1-0.dll
 0000:fff89000       .debug$S                   0000000180000000     ucrt:api-ms-win-crt-heap-l1-1-0.dll
 0000:fff89000       .debug$S                   0000000180000000     ucrt:api-ms-win-crt-runtime-l1-1-0.dll
 0004:fff90000       $pdata$?catch$0@?0??_Buynode0@?$_Tree_comp_alloc@V?$_Tmap_traits@IUField@cldb@@U?$less@I@std@@V?$allocator@U?$pair@$$CBIUField@cldb@@@std@@@4@$00@std@@@std@@QEAAPEAU?$_Tree_node@U?$pair@$$CBIUField@cldb@@@std@@PEAX@2@XZ@4HA 0000000180000000     clReflectCore:DatabaseBinarySerialiser.obj
 0000:fff89000       .debug$S                   0000000180000000     vcruntime:VCRUNTIME140.dll
 0000:fff89000       .debug$S                   0000000180000000     vcruntime:VCRUNTIME140.dll
 0000:fff89000       .debug$S                   0000000180000000     vcruntime:VCRUNTIME140.dll
 0000:fff89000       .debug$S                   0000000180000000     vcruntime:VCRUNTIME140.dll
 0000:fff89000       .debug$S                   0000000180000000     vcruntime:VCRUNTIME140.dll
 0000:fff89000       .debug$S                   0000000180000000     vcruntime:VCRUNTIME140.dll
 0000:fff89000       .debug$S                   0000000180000000     vcruntime:VCRUNTIME140.dll
 0000:fff89000       .debug$S                   0000000180000000     vcruntime:VCRUNTIME140.dll
 0000:fff89000       .debug$S                   0000000180000000     vcruntime:VCRUNTIME140.dll
 0000:fff89000       .debug$S                   0000000180000000     vcruntime:VCRUNTIME140.dll
 0000:fff89000       .debug$S                   0000000180000000     vcruntime:VCRUNTIME140.dll
 0000:fff89000       .debug$S                   0000000180000000     vcruntime:VCRUNTIME140.dll
 0000:fff89000       .debug$S                   0000000180000000     vcruntime:VCRUNTIME140.dll
 0000:fff89000       .debug$S                   0000000180000000     vcruntime:VCRUNTIME140.dll
 0002:fffad000       $unwind$?catch$0@?0??_Buynode0@?$_Tree_comp_alloc@V?$_Tmap_traits@IUField@cldb@@U?$less@I@std@@V?$allocator@U?$pair@$$CBIUField@cldb@@@std@@@4@$00@std@@@std@@QEAAPEAU?$_Tree_node@U?$pair@$$CBIUField@cldb@@@std@@PEAX@2@XZ@4HA 0000000180000000     clReflectCore:DatabaseBinarySerialiser.obj
 0002:fffad000       $ip2state$?_Buynode0@?$_Tree_comp_alloc@V?$_Tmap_traits@IUField@cldb@@U?$less@I@std@@V?$allocator@U?$pair@$$CBIUField@cldb@@@std@@@4@$00@std@@@std@@QEAAPEAU?$_Tree_node@U?$pair@$$CBIUField@cldb@@@std@@PEAX@2@XZ 0000000180000000     clReflectCore:DatabaseBinarySerialiser.obj
 0002:fffad000       $handlerMap$0$?_Buynode0@?$_Tree_comp_alloc@V?$_Tmap_traits@IUField@cldb@@U?$less@I@std@@V?$allocator@U?$pair@$$CBIUField@cldb@@@std@@@4@$00@std@@@std@@QEAAPEAU?$_Tree_node@U?$pair@$$CBIUField@cldb@@@std@@PEAX@2@XZ 0000000180000000     clReflectCore:DatabaseBinarySerialiser.obj
 0002:fffad000       $tryMap$?_Buynode0@?$_Tree_comp_alloc@V?$_Tmap_traits@IUField@cldb@@U?$less@I@std@@V?$allocator@U?$pair@$$CBIUField@cldb@@@std@@@4@$00@std@@@std@@QEAAPEAU?$_Tree_node@U?$pair@$$CBIUField@cldb@@@std@@PEAX@2@XZ 0000000180000000     clReflectCore:DatabaseBinarySerialiser.obj
 0002:fffad000       $stateUnwindMap$?_Buynode0@?$_Tree_comp_alloc@V?$_Tmap_traits@IUField@cldb@@U?$less@I@std@@V?$allocator@U?$pair@$$CBIUField@cldb@@@std@@@4@$00@std@@@std@@QEAAPEAU?$_Tree_node@U?$pair@$$CBIUField@cldb@@@std@@PEAX@2@XZ 0000000180000000     clReflectCore:DatabaseBinarySerialiser.obj
 0002:fffad000       $cppxdata$?_Buynode0@?$_Tree_comp_alloc@V?$_Tmap_traits@IUField@cldb@@U?$less@I@std@@V?$allocator@U?$pair@$$CBIUField@cldb@@@std@@@4@$00@std@@@std@@QEAAPEAU?$_Tree_node@U?$pair@$$CBIUField@cldb@@@std@@PEAX@2@XZ 0000000180000000     clReflectCore:DatabaseBinarySerialiser.obj
 0004:fff90000       $pdata$?_Buynode0@?$_Tree_comp_alloc@V?$_Tmap_traits@IUField@cldb@@U?$less@I@std@@V?$allocator@U?$pair@$$CBIUField@cldb@@@std@@@4@$00@std@@@std@@QEAAPEAU?$_Tree_node@U?$pair@$$CBIUField@cldb@@@std@@PEAX@2@XZ 0000000180000000     clReflectCore:DatabaseBinarySerialiser.obj
 0002:fffad000       $unwind$?_Buynode0@?$_Tree_comp_alloc@V?$_Tmap_traits@IUField@cldb@@U?$less@I@std@@V?$allocator@U?$pair@$$CBIUField@cldb@@@std@@@4@$00@std@@@std@@QEAAPEAU?$_Tree_node@U?$pair@$$CBIUField@cldb@@@std@@PEAX@2@XZ 0000000180000000     clReflectCore:DatabaseBinarySerialiser.obj
 0004:fff90000       $pdata$?deallocate@?$allocator@U?$_Tree_node@U?$pair@$$CBIUField@cldb@@@std@@PEAX@std@@@std@@QEAAXQEAU?$_Tree_node@U?$pair@$$CBIUField@cldb@@@std@@PEAX@2@_K@Z 0000000180000000     clReflectCore:DatabaseBinarySerialiser.obj
 0002:fffad000       $unwind$?deallocate@?$allocator@U?$_Tree_node@U?$pair@$$CBIUField@cldb@@@std@@PEAX@std@@@std@@QEAAXQEAU?$_Tree_node@U?$pair@$$CBIUField@cldb@@@std@@PEAX@2@_K@Z 0000000180000000     clReflectCore:DatabaseBinarySerialiser.obj
 0004:fff90000       $pdata$?catch$0@?0??_Buynode0@?$_Tree_comp_alloc@V?$_Tmap_traits@IUFunction@cldb@@U?$less@I@std@@V?$allocator@U?$pair@$$CBIUFunction@cldb@@@std@@@4@$00@std@@@std@@QEAAPEAU?$_Tree_node@U?$pair@$$CBIUFunction@cldb@@@std@@PEAX@2@XZ@4HA 0000000180000000     clReflectCore:DatabaseBinarySerialiser.obj
 0002:fffad000       $unwind$?catch$0@?0??_Buynode0@?$_Tree_comp_alloc@V?$_Tmap_traits@IUFunction@cldb@@U?$less@I@std@@V?$allocator@U?$pair@$$CBIUFunction@cldb@@@std@@@4@$00@std@@@std@@QEAAPEAU?$_Tree_node@U?$pair@$$CBIUFunction@cldb@@@std@@PEAX@2@XZ@4HA 0000000180000000     clReflectCore:DatabaseBinarySerialiser.obj
 0002:fffad000       __guard_fids___scrt_set_unhandled_exception_filter 0000000180000000     MSVCRT:utility_desktop.obj
 0002:fffad000       $ip2state$?_Buynode0@?$_Tree_comp_alloc@V?$_Tmap_traits@IUFunction@cldb@@U?$less@I@std@@V?$allocator@U?$pair@$$CBIUFunction@cldb@@@std@@@4@$00@std@@@std@@QEAAPEAU?$_Tree_node@U?$pair@$$CBIUFunction@cldb@@@std@@PEAX@2@XZ 0000000180000000     clReflectCore:DatabaseBinarySerialiser.obj
 0002:fffad000       $handlerMap$0$?_Buynode0@?$_Tree_comp_alloc@V?$_Tmap_traits@IUFunction@cldb@@U?$less@I@std@@V?$allocator@U?$pair@$$CBIUFunction@cldb@@@std@@@4@$00@std@@@std@@QEAAPEAU?$_Tree_node@U?$pair@$$CBIUFunction@cldb@@@std@@PEAX@2@XZ 0000000180000000     clReflectCore:DatabaseBinarySerialiser.obj
 0002:fffad000       $tryMap$?_Buynode0@?$_Tree_comp_alloc@V?$_Tmap_traits@IUFunction@cldb@@U?$less@I@std@@V?$allocator@U?$pair@$$CBIUFunction@cldb@@@std@@@4@$00@std@@@std@@QEAAPEAU?$_Tree_node@U?$pair@$$CBIUFunction@cldb@@@std@@PEAX@2@XZ 0000000180000000     clReflectCore:DatabaseBinarySerialiser.obj
 0002:fffad000       $stateUnwindMap$?_Buynode0@?$_Tree_comp_alloc@V?$_Tmap_traits@IUFunction@cldb@@U?$less@I@std@@V?$allocator@U?$pair@$$CBIUFunction@cldb@@@std@@@4@$00@std@@@std@@QEAAPEAU?$_Tree_node@U?$pair@$$CBIUFunction@cldb@@@std@@PEAX@2@XZ 0000000180000000     clReflectCore:DatabaseBinarySerialiser.obj
 0002:fffad000       $cppxdata$?_Buynode0@?$_Tree_comp_alloc@V?$_Tmap_traits@IUFunction@cldb@@U?$less@I@std@@V?$allocator@U?$pair@$$CBIUFunction@cldb@@@std@@@4@$00@std@@@std@@QEAAPEAU?$_Tree_node@U?$pair@$$CBIUFunction@cldb@@@std@@PEAX@2@XZ 0000000180000000     clReflectCore:DatabaseBinarySerialiser.obj
 0004:fff90000       $pdata$?_Buynode0@?$_Tree_comp_alloc@V?$_Tmap_traits@IUFunction@cldb@@U?$less@I@std@@V?$allocator@U?$pair@$$CBIUFunction@cldb@@@std@@@4@$00@std@@@std@@QEAAPEAU?$_Tree_node@U?$pair@$$CBIUFunction@cldb@@@std@@PEAX@2@XZ 0000000180000000     clReflectCore:DatabaseBinarySerialiser.obj
 0002:fffad000       $unwind$?_Buynode0@?$_Tree_comp_alloc@V?$_Tmap_traits@IUFunction@cldb@@U?$less@I@std@@V?$allocator@U?$pair@$$CBIUFunction@cldb@@@std@@@4@$00@std@@@std@@QEAAPEAU?$_Tree_node@U?$pair@$$CBIUFunction@cldb@@@std@@PEAX@2@XZ 0000000180000000     clReflectCore:DatabaseBinarySerialiser.obj
 0004:fff90000       $pdata$?deallocate@?$allocator@U?$_Tree_node@U?$pair@$$CBIUFunction@cldb@@@std@@PEAX@std@@@std@@QEAAXQEAU?$_Tree_node@U?$pair@$$CBIUFunction@cldb@@@std@@PEAX@2@_K@Z 0000000180000000     clReflectCore:DatabaseBinarySerialiser.obj
 0002:fffad000       $unwind$?deallocate@?$allocator@U?$_Tree_node@U?$pair@$$CBIUFunction@cldb@@@std@@PEAX@std@@@std@@QEAAXQEAU?$_Tree_node@U?$pair@$$CBIUFunction@cldb@@@std@@PEAX@2@_K@Z 0000000180000000     clReflectCore:DatabaseBinarySerialiser.obj
 0004:fff90000       $pdata$?deallocate@?$allocator@U?$_Tree_node@U?$pair@$$CBIUEnumConstant@cldb@@@std@@PEAX@std@@@std@@QEAAXQEAU?$_Tree_node@U?$pair@$$CBIUEnumConstant@cldb@@@std@@PEAX@2@_K@Z 0000000180000000     clReflectCore:DatabaseBinarySerialiser.obj
 0002:fffad000       $unwind$?deallocate@?$allocator@U?$_Tree_node@U?$pair@$$CBIUEnumConstant@cldb@@@std@@PEAX@std@@@std@@QEAAXQEAU?$_Tree_node@U?$pair@$$CBIUEnumConstant@cldb@@@std@@PEAX@2@_K@Z 0000000180000000     clReflectCore:DatabaseBinarySerialiser.obj
 0004:fff90000       $pdata$?deallocate@?$allocator@U?$_Tree_node@U?$pair@$$CBIUEnum@cldb@@@std@@PEAX@std@@@std@@QEAAXQEAU?$_Tree_node@U?$pair@$$CBIUEnum@cldb@@@std@@PEAX@2@_K@Z 0000000180000000     clReflectCore:DatabaseBinarySerialiser.obj
 0002:fffad000       $unwind$?deallocate@?$allocator@U?$_Tree_node@U?$pair@$$CBIUEnum@cldb@@@std@@PEAX@std@@@std@@QEAAXQEAU?$_Tree_node@U?$pair@$$CBIUEnum@cldb@@@std@@PEAX@2@_K@Z 0000000180000000     clReflectCore:DatabaseBinarySerialiser.obj
 0002:fffad000       __guard_fids__guard_icall_checks_enforced 0000000180000000     MSVCRT:guard_support.obj
 0002:fffad000       __guard_fids__             0000000180000000     MSVCRT:guard_support.obj
 0002:fffad000       __guard_fids__             0000000180000000     MSVCRT:throw_bad_alloc.obj
 0002:fffad000       __guard_fids__             0000000180000000     MSVCRT:throw_bad_alloc.obj
 0002:fffad000       __guard_fids__             0000000180000000     MSVCRT:throw_bad_alloc.obj
 0004:fff90000       $pdata$?deallocate@?$allocator@U?$_Tree_node@U?$pair@$$CBIUClass@cldb@@@std@@PEAX@std@@@std@@QEAAXQEAU?$_Tree_node@U?$pair@$$CBIUClass@cldb@@@std@@PEAX@2@_K@Z 0000000180000000     clReflectCore:DatabaseBinarySerialiser.obj
 0002:fffad000       $unwind$?deallocate@?$allocator@U?$_Tree_node@U?$pair@$$CBIUClass@cldb@@@std@@PEAX@std@@@std@@QEAAXQEAU?$_Tree_node@U?$pair@$$CBIUClass@cldb@@@std@@PEAX@2@_K@Z 0000000180000000     clReflectCore:DatabaseBinarySerialiser.obj
 0004:fff90000       $pdata$?deallocate@?$allocator@U?$_Tree_node@U?$pair@$$CBIUTemplateType@cldb@@@std@@PEAX@std@@@std@@QEAAXQEAU?$_Tree_node@U?$pair@$$CBIUTemplateType@cldb@@@std@@PEAX@2@_K@Z 0000000180000000     clReflectCore:DatabaseBinarySerialiser.obj
 0002:fffad000       $unwind$?deallocate@?$allocator@U?$_Tree_node@U?$pair@$$CBIUTemplateType@cldb@@@std@@PEAX@std@@@std@@QEAAXQEAU?$_Tree_node@U?$pair@$$CBIUTemplateType@cldb@@@std@@PEAX@2@_K@Z 0000000180000000     clReflectCore:DatabaseBinarySerialiser.obj
 0004:fff90000       $pdata$?deallocate@?$allocator@U?$_Tree_node@U?$pair@$$CBIUTemplate@cldb@@@std@@PEAX@std@@@std@@QEAAXQEAU?$_Tree_node@U?$pair@$$CBIUTemplate@cldb@@@std@@PEAX@2@_K@Z 0000000180000000     clReflectCore:DatabaseBinarySerialiser.obj
 0002:fffad000       $unwind$?deallocate@?$allocator@U?$_Tree_node@U?$pair@$$CBIUTemplate@cldb@@@std@@PEAX@std@@@std@@QEAAXQEAU?$_Tree_node@U?$pair@$$CBIUTemplate@cldb@@@std@@PEAX@2@_K@Z 0000000180000000     clReflectCore:DatabaseBinarySerialiser.obj
 0002:fffad000       $unwind$??$_Reallocate_for@V<lambda_66f57f934f28d61049862f64df852ff0>@@PEBD@?$basic_string@DU?$char_traits@D@std@@V?$allocator@D@2@@std@@QEAAAEAV01@_KV<lambda_66f57f934f28d61049862f64df852ff0>@@PEBD@Z 0000000180000000     clReflectCore:DatabaseBinarySerialiser.obj
 0004:fff90000       $pdata$??$_Reallocate_for@V<lambda_66f57f934f28d61049862f64df852ff0>@@PEBD@?$basic_string@DU?$char_traits@D@std@@V?$allocator@D@2@@std@@QEAAAEAV01@_KV<lambda_66f57f934f28d61049862f64df852ff0>@@PEBD@Z 0000000180000000     clReflectCore:DatabaseBinarySerialiser.obj
 0004:fff90000       $pdata$?catch$0@?0??_Buynode0@?$_Tree_comp_alloc@V?$_Tmap_traits@IUType@cldb@@U?$less@I@std@@V?$allocator@U?$pair@$$CBIUType@cldb@@@std@@@4@$00@std@@@std@@QEAAPEAU?$_Tree_node@U?$pair@$$CBIUType@cldb@@@std@@PEAX@2@XZ@4HA 0000000180000000     clReflectCore:DatabaseBinarySerialiser.obj
 0002:fffad000       $unwind$?catch$0@?0??_Buynode0@?$_Tree_comp_alloc@V?$_Tmap_traits@IUType@cldb@@U?$less@I@std@@V?$allocator@U?$pair@$$CBIUType@cldb@@@std@@@4@$00@std@@@std@@QEAAPEAU?$_Tree_node@U?$pair@$$CBIUType@cldb@@@std@@PEAX@2@XZ@4HA 0000000180000000     clReflectCore:DatabaseBinarySerialiser.obj
 0002:fffad000       $ip2state$?_Buynode0@?$_Tree_comp_alloc@V?$_Tmap_traits@IUType@cldb@@U?$less@I@std@@V?$allocator@U?$pair@$$CBIUType@cldb@@@std@@@4@$00@std@@@std@@QEAAPEAU?$_Tree_node@U?$pair@$$CBIUType@cldb@@@std@@PEAX@2@XZ 0000000180000000     clReflectCore:DatabaseBinarySerialiser.obj
 0002:fffad000       $handlerMap$0$?_Buynode0@?$_Tree_comp_alloc@V?$_Tmap_traits@IUType@cldb@@U?$less@I@std@@V?$allocator@U?$pair@$$CBIUType@cldb@@@std@@@4@$00@std@@@std@@QEAAPEAU?$_Tree_node@U?$pair@$$CBIUType@cldb@@@std@@PEAX@2@XZ 0000000180000000     clReflectCore:DatabaseBinarySerialiser.obj
 0002:fffad000       $tryMap$?_Buynode0@?$_Tree_comp_alloc@V?$_Tmap_traits@IUType@cldb@@U?$less@I@std@@V?$allocator@U?$pair@$$CBIUType@cldb@@@std@@@4@$00@std@@@std@@QEAAPEAU?$_Tree_node@U?$pair@$$CBIUType@cldb@@@std@@PEAX@2@XZ 0000000180000000     clReflectCore:DatabaseBinarySerialiser.obj
 0002:fffad000       $stateUnwindMap$?_Buynode0@?$_Tree_comp_alloc@V?$_Tmap_traits@IUType@cldb@@U?$less@I@std@@V?$allocator@U?$pair@$$CBIUType@cldb@@@std@@@4@$00@std@@@std@@QEAAPEAU?$_Tree_node@U?$pair@$$CBIUType@cldb@@@std@@PEAX@2@XZ 0000000180000000     clReflectCore:DatabaseBinarySerialiser.obj
 0002:fffad000       $cppxdata$?_Buynode0@?$_Tree_comp_alloc@V?$_Tmap_traits@IUType@cldb@@U?$less@I@std@@V?$allocator@U?$pair@$$CBIUType@cldb@@@std@@@4@$00@std@@@std@@QEAAPEAU?$_Tree_node@U?$pair@$$CBIUType@cldb@@@std@@PEAX@2@XZ 0000000180000000     clReflectCore:DatabaseBinarySerialiser.obj
 0004:fff90000       $pdata$?_Buynode0@?$_Tree_comp_alloc@V?$_Tmap_traits@IUType@cldb@@U?$less@I@std@@V?$allocator@U?$pair@$$CBIUType@cldb@@@std@@@4@$00@std@@@std@@QEAAPEAU?$_Tree_node@U?$pair@$$CBIUType@cldb@@@std@@PEAX@2@XZ 0000000180000000     clReflectCore:DatabaseBinarySerialiser.obj
 0002:fffad000       $unwind$?_Buynode0@?$_Tree_comp_alloc@V?$_Tmap_traits@IUType@cldb@@U?$less@I@std@@V?$allocator@U?$pair@$$CBIUType@cldb@@@std@@@4@$00@std@@@std@@QEAAPEAU?$_Tree_node@U?$pair@$$CBIUType@cldb@@@std@@PEAX@2@XZ 0000000180000000     clReflectCore:DatabaseBinarySerialiser.obj
 0004:fff90000       $pdata$?deallocate@?$allocator@U?$_Tree_node@U?$pair@$$CBIUType@cldb@@@std@@PEAX@std@@@std@@QEAAXQEAU?$_Tree_node@U?$pair@$$CBIUType@cldb@@@std@@PEAX@2@_K@Z 0000000180000000     clReflectCore:DatabaseBinarySerialiser.obj
 0002:fffad000       $unwind$?deallocate@?$allocator@U?$_Tree_node@U?$pair@$$CBIUType@cldb@@@std@@PEAX@std@@@std@@QEAAXQEAU?$_Tree_node@U?$pair@$$CBIUType@cldb@@@std@@PEAX@2@_K@Z 0000000180000000     clReflectCore:DatabaseBinarySerialiser.obj
 0004:fff90000       $pdata$?deallocate@?$allocator@U?$_Tree_node@U?$pair@$$CBIUNamespace@cldb@@@std@@PEAX@std@@@std@@QEAAXQEAU?$_Tree_node@U?$pair@$$CBIUNamespace@cldb@@@std@@PEAX@2@_K@Z 0000000180000000     clReflectCore:DatabaseBinarySerialiser.obj
 0002:fffad000       $unwind$?deallocate@?$allocator@U?$_Tree_node@U?$pair@$$CBIUNamespace@cldb@@@std@@PEAX@std@@@std@@QEAAXQEAU?$_Tree_node@U?$pair@$$CBIUNamespace@cldb@@@std@@PEAX@2@_K@Z 0000000180000000     clReflectCore:DatabaseBinarySerialiser.obj
 0004:fff90000       $pdata$?catch$0@?0??_Buynode0@?$_Tree_comp_alloc@V?$_Tmap_traits@IUName@cldb@@U?$less@I@std@@V?$allocator@U?$pair@$$CBIUName@cldb@@@std@@@4@$0A@@std@@@std@@QEAAPEAU?$_Tree_node@U?$pair@$$CBIUName@cldb@@@std@@PEAX@2@XZ@4HA 0000000180000000     clReflectCore:DatabaseBinarySerialiser.obj
 0002:fffad000       $unwind$?catch$0@?0??_Buynode0@?$_Tree_comp_alloc@V?$_Tmap_traits@IUName@cldb@@U?$less@I@std@@V?$allocator@U?$pair@$$CBIUName@cldb@@@std@@@4@$0A@@std@@@std@@QEAAPEAU?$_Tree_node@U?$pair@$$CBIUName@cldb@@@std@@PEAX@2@XZ@4HA 0000000180000000     clReflectCore:DatabaseBinarySerialiser.obj
 0002:fffad000       $ip2state$?_Buynode0@?$_Tree_comp_alloc@V?$_Tmap_traits@IUName@cldb@@U?$less@I@std@@V?$allocator@U?$pair@$$CBIUName@cldb@@@std@@@4@$0A@@std@@@std@@QEAAPEAU?$_Tree_node@U?$pair@$$CBIUName@cldb@@@std@@PEAX@2@XZ 0000000180000000     clReflectCore:DatabaseBinarySerialiser.obj
 0002:fffad000       $handlerMap$0$?_Buynode0@?$_Tree_comp_alloc@V?$_Tmap_traits@IUName@cldb@@U?$less@I@std@@V?$allocator@U?$pair@$$CBIUName@cldb@@@std@@@4@$0A@@std@@@std@@QEAAPEAU?$_Tree_node@U?$pair@$$CBIUName@cldb@@@std@@PEAX@2@XZ 0000000180000000     clReflectCore:DatabaseBinarySerialiser.obj
 0002:fffad000       $tryMap$?_Buynode0@?$_Tree_comp_alloc@V?$_Tmap_traits@IUName@cldb@@U?$less@I@std@@V?$allocator@U?$pair@$$CBIUName@cldb@@@std@@@4@$0A@@std@@@std@@QEAAPEAU?$_Tree_node@U?$pair@$$CBIUName@cldb@@@std@@PEAX@2@XZ 0000000180000000     clReflectCore:DatabaseBinarySerialiser.obj
 0002:fffad000       $stateUnwindMap$?_Buynode0@?$_Tree_comp_alloc@V?$_Tmap_traits@IUName@cldb@@U?$less@I@std@@V?$allocator@U?$pair@$$CBIUName@cldb@@@std@@@4@$0A@@std@@@std@@QEAAPEAU?$_Tree_node@U?$pair@$$CBIUName@cldb@@@std@@PEAX@2@XZ 0000000180000000     clReflectCore:DatabaseBinarySerialiser.obj
 0002:fffad000       $cppxdata$?_Buynode0@?$_Tree_comp_alloc@V?$_Tmap_traits@IUName@cldb@@U?$less@I@std@@V?$allocator@U?$pair@$$CBIUName@cldb@@@std@@@4@$0A@@std@@@std@@QEAAPEAU?$_Tree_node@U?$pair@$$CBIUName@cldb@@@std@@PEAX@2@XZ 0000000180000000     clReflectCore:DatabaseBinarySerialiser.obj
 0004:fff90000       $pdata$?_Buynode0@?$_Tree_comp_alloc@V?$_Tmap_traits@IUName@cldb@@U?$less@I@std@@V?$allocator@U?$pair@$$CBIUName@cldb@@@std@@@4@$0A@@std@@@std@@QEAAPEAU?$_Tree_node@U?$pair@$$CBIUName@cldb@@@std@@PEAX@2@XZ 0000000180000000     clReflectCore:DatabaseBinarySerialiser.obj
 0002:fffad000       $unwind$?_Buynode0@?$_Tree_comp_alloc@V?$_Tmap_traits@IUName@cldb@@U?$less@I@std@@V?$allocator@U?$pair@$$CBIUName@cldb@@@std@@@4@$0A@@std@@@std@@QEAAPEAU?$_Tree_node@U?$pair@$$CBIUName@cldb@@@std@@PEAX@2@XZ 0000000180000000     clReflectCore:DatabaseBinarySerialiser.obj
 0004:fff90000       $pdata$?deallocate@?$allocator@U?$_Tree_node@U?$pair@$$CBIUName@cldb@@@std@@PEAX@std@@@std@@QEAAXQEAU?$_Tree_node@U?$pair@$$CBIUName@cldb@@@std@@PEAX@2@_K@Z 0000000180000000     clReflectCore:DatabaseBinarySerialiser.obj
 0002:fffad000       $unwind$?deallocate@?$allocator@U?$_Tree_node@U?$pair@$$CBIUName@cldb@@@std@@PEAX@std@@@std@@QEAAXQEAU?$_Tree_node@U?$pair@$$CBIUName@cldb@@@std@@PEAX@2@_K@Z 0000000180000000     clReflectCore:DatabaseBinarySerialiser.obj
 0004:fff90000       $pdata$?catch$0@?0??_Buynode0@?$_Tree_comp_alloc@V?$_Tmap_traits@IUTypeInheritance@cldb@@U?$less@I@std@@V?$allocator@U?$pair@$$CBIUTypeInheritance@cldb@@@std@@@4@$0A@@std@@@std@@QEAAPEAU?$_Tree_node@U?$pair@$$CBIUTypeInheritance@cldb@@@std@@PEAX@2@XZ@4HA 0000000180000000     clReflectCore:DatabaseBinarySerialiser.obj
 0002:fffad000       $unwind$?catch$0@?0??_Buynode0@?$_Tree_comp_alloc@V?$_Tmap_traits@IUTypeInheritance@cldb@@U?$less@I@std@@V?$allocator@U?$pair@$$CBIUTypeInheritance@cldb@@@std@@@4@$0A@@std@@@std@@QEAAPEAU?$_Tree_node@U?$pair@$$CBIUTypeInheritance@cldb@@@std@@PEAX@2@XZ@4HA 0000000180000000     clReflectCore:DatabaseBinarySerialiser.obj
 0002:fffad000       $ip2state$?_Buynode0@?$_Tree_comp_alloc@V?$_Tmap_traits@IUTypeInheritance@cldb@@U?$less@I@std@@V?$allocator@U?$pair@$$CBIUTypeInheritance@cldb@@@std@@@4@$0A@@std@@@std@@QEAAPEAU?$_Tree_node@U?$pair@$$CBIUTypeInheritance@cldb@@@std@@PEAX@2@XZ 0000000180000000     clReflectCore:DatabaseBinarySerialiser.obj
 0002:fffad000       $handlerMap$0$?_Buynode0@?$_Tree_comp_alloc@V?$_Tmap_traits@IUTypeInheritance@cldb@@U?$less@I@std@@V?$allocator@U?$pair@$$CBIUTypeInheritance@cldb@@@std@@@4@$0A@@std@@@std@@QEAAPEAU?$_Tree_node@U?$pair@$$CBIUTypeInheritance@cldb@@@std@@PEAX@2@XZ 0000000180000000     clReflectCore:DatabaseBinarySerialiser.obj
 0002:fffad000       $tryMap$?_Buynode0@?$_Tree_comp_alloc@V?$_Tmap_traits@IUTypeInheritance@cldb@@U?$less@I@std@@V?$allocator@U?$pair@$$CBIUTypeInheritance@cldb@@@std@@@4@$0A@@std@@@std@@QEAAPEAU?$_Tree_node@U?$pair@$$CBIUTypeInheritance@cldb@@@std@@PEAX@2@XZ 0000000180000000     clReflectCore:DatabaseBinarySerialiser.obj
 0002:fffad000       __guard_fids__             0000000180000000     MSVCRT:tlsdtor.obj
 0002:fffad000       $stateUnwindMap$?_Buynode0@?$_Tree_comp_alloc@V?$_Tmap_traits@IUTypeInheritance@cldb@@U?$less@I@std@@V?$allocator@U?$pair@$$CBIUTypeInheritance@cldb@@@std@@@4@$0A@@std@@@std@@QEAAPEAU?$_Tree_node@U?$pair@$$CBIUTypeInheritance@cldb@@@std@@PEAX@2@XZ 0000000180000000     clReflectCore:DatabaseBinarySerialiser.obj
 0002:fffad000       $cppxdata$?_Buynode0@?$_Tree_comp_alloc@V?$_Tmap_traits@IUTypeInheritance@cldb@@U?$less@I@std@@V?$allocator@U?$pair@$$CBIUTypeInheritance@cldb@@@std@@@4@$0A@@std@@@std@@QEAAPEAU?$_Tree_node@U?$pair@$$CBIUTypeInheritance@cldb@@@std@@PEAX@2@XZ 0000000180000000     clReflectCore:DatabaseBinarySerialiser.obj
 0004:fff90000       $pdata$?_Buynode0@?$_Tree_comp_alloc@V?$_Tmap_traits@IUTypeInheritance@cldb@@U?$less@I@std@@V?$allocator@U?$pair@$$CBIUTypeInheritance@cldb@@@std@@@4@$0A@@std@@@std@@QEAAPEAU?$_Tree_node@U?$pair@$$CBIUTypeInheritance@cldb@@@std@@PEAX@2@XZ 0000000180000000     clReflectCore:DatabaseBinarySerialiser.obj
 0002:fffad000       $unwind$?_Buynode0@?$_Tree_comp_alloc@V?$_Tmap_traits@IUTypeInheritance@cldb@@U?$less@I@std@@V?$allocator@U?$pair@$$CBIUTypeInheritance@cldb@@@std@@@4@$0A@@std@@@std@@QEAAPEAU?$_Tree_node@U?$pair@$$CBIUTypeInheritance@cldb@@@std@@PEAX@2@XZ 0000000180000000     clReflectCore:DatabaseBinarySerialiser.obj
 0004:fff90000       $pdata$?deallocate@?$allocator@U?$_Tree_node@U?$pair@$$CBIUTypeInheritance@cldb@@@std@@PEAX@std@@@std@@QEAAXQEAU?$_Tree_node@U?$pair@$$CBIUTypeInheritance@cldb@@@std@@PEAX@2@_K@Z 0000000180000000     clReflectCore:DatabaseBinarySerialiser.obj
 0002:fffad000       $unwind$?deallocate@?$allocator@U?$_Tree_node@U?$pair@$$CBIUTypeInheritance@cldb@@@std@@PEAX@std@@@std@@QEAAXQEAU?$_Tree_node@U?$pair@$$CBIUTypeInheritance@cldb@@@std@@PEAX@2@_K@Z 0000000180000000     clReflectCore:DatabaseBinarySerialiser.obj
 0004:fff90000       $pdata$?catch$0@?0??_Buynode0@?$_Tree_comp_alloc@V?$_Tmap_traits@IUContainerInfo@cldb@@U?$less@I@std@@V?$allocator@U?$pair@$$CBIUContainerInfo@cldb@@@std@@@4@$0A@@std@@@std@@QEAAPEAU?$_Tree_node@U?$pair@$$CBIUContainerInfo@cldb@@@std@@PEAX@2@XZ@4HA 0000000180000000     clReflectCore:DatabaseBinarySerialiser.obj
 0002:fffad000       $unwind$?catch$0@?0??_Buynode0@?$_Tree_comp_alloc@V?$_Tmap_traits@IUContainerInfo@cldb@@U?$less@I@std@@V?$allocator@U?$pair@$$CBIUContainerInfo@cldb@@@std@@@4@$0A@@std@@@std@@QEAAPEAU?$_Tree_node@U?$pair@$$CBIUContainerInfo@cldb@@@std@@PEAX@2@XZ@4HA 0000000180000000     clReflectCore:DatabaseBinarySerialiser.obj
 0002:fffad000       $ip2state$?_Buynode0@?$_Tree_comp_alloc@V?$_Tmap_traits@IUContainerInfo@cldb@@U?$less@I@std@@V?$allocator@U?$pair@$$CBIUContainerInfo@cldb@@@std@@@4@$0A@@std@@@std@@QEAAPEAU?$_Tree_node@U?$pair@$$CBIUContainerInfo@cldb@@@std@@PEAX@2@XZ 0000000180000000     clReflectCore:DatabaseBinarySerialiser.obj
 0002:fffad000       $handlerMap$0$?_Buynode0@?$_Tree_comp_alloc@V?$_Tmap_traits@IUContainerInfo@cldb@@U?$less@I@std@@V?$allocator@U?$pair@$$CBIUContainerInfo@cldb@@@std@@@4@$0A@@std@@@std@@QEAAPEAU?$_Tree_node@U?$pair@$$CBIUContainerInfo@cldb@@@std@@PEAX@2@XZ 0000000180000000     clReflectCore:DatabaseBinarySerialiser.obj
 0002:fffad000       $tryMap$?_Buynode0@?$_Tree_comp_alloc@V?$_Tmap_traits@IUContainerInfo@cldb@@U?$less@I@std@@V?$allocator@U?$pair@$$CBIUContainerInfo@cldb@@@std@@@4@$0A@@std@@@std@@QEAAPEAU?$_Tree_node@U?$pair@$$CBIUContainerInfo@cldb@@@std@@PEAX@2@XZ 0000000180000000     clReflectCore:DatabaseBinarySerialiser.obj
 0002:fffad000       $stateUnwindMap$?_Buynode0@?$_Tree_comp_alloc@V?$_Tmap_traits@IUContainerInfo@cldb@@U?$less@I@std@@V?$allocator@U?$pair@$$CBIUContainerInfo@cldb@@@std@@@4@$0A@@std@@@std@@QEAAPEAU?$_Tree_node@U?$pair@$$CBIUContainerInfo@cldb@@@std@@PEAX@2@XZ 0000000180000000     clReflectCore:DatabaseBinarySerialiser.obj
 0002:fffad000       $cppxdata$?_Buynode0@?$_Tree_comp_alloc@V?$_Tmap_traits@IUContainerInfo@cldb@@U?$less@I@std@@V?$allocator@U?$pair@$$CBIUContainerInfo@cldb@@@std@@@4@$0A@@std@@@std@@QEAAPEAU?$_Tree_node@U?$pair@$$CBIUContainerInfo@cldb@@@std@@PEAX@2@XZ 0000000180000000     clReflectCore:DatabaseBinarySerialiser.obj
 0004:fff90000       $pdata$?_Buynode0@?$_Tree_comp_alloc@V?$_Tmap_traits@IUContainerInfo@cldb@@U?$less@I@std@@V?$allocator@U?$pair@$$CBIUContainerInfo@cldb@@@std@@@4@$0A@@std@@@std@@QEAAPEAU?$_Tree_node@U?$pair@$$CBIUContainerInfo@cldb@@@std@@PEAX@2@XZ 0000000180000000     clReflectCore:DatabaseBinarySerialiser.obj
 0002:fffad000       $unwind$?_Buynode0@?$_Tree_comp_alloc@V?$_Tmap_traits@IUContainerInfo@cldb@@U?$less@I@std@@V?$allocator@U?$pair@$$CBIUContainerInfo@cldb@@@std@@@4@$0A@@std@@@std@@QEAAPEAU?$_Tree_node@U?$pair@$$CBIUContainerInfo@cldb@@@std@@PEAX@2@XZ 0000000180000000     clReflectCore:DatabaseBinarySerialiser.obj
 0004:fff90000       $pdata$?deallocate@?$allocator@U?$_Tree_node@U?$pair@$$CBIUContainerInfo@cldb@@@std@@PEAX@std@@@std@@QEAAXQEAU?$_Tree_node@U?$pair@$$CBIUContainerInfo@cldb@@@std@@PEAX@2@_K@Z 0000000180000000     clReflectCore:DatabaseBinarySerialiser.obj
 0002:fffad000       $unwind$?deallocate@?$allocator@U?$_Tree_node@U?$pair@$$CBIUContainerInfo@cldb@@@std@@PEAX@std@@@std@@QEAAXQEAU?$_Tree_node@U?$pair@$$CBIUContainerInfo@cldb@@@std@@PEAX@2@_K@Z 0000000180000000     clReflectCore:DatabaseBinarySerialiser.obj
 0004:fff90000       $pdata$??1TypeInheritance@cldb@@QEAA@XZ 0000000180000000     clReflectCore:DatabaseBinarySerialiser.obj
 0002:fffad000       $unwind$??1TypeInheritance@cldb@@QEAA@XZ 0000000180000000     clReflectCore:DatabaseBinarySerialiser.obj
 0004:fff90000       $pdata$??1ContainerInfo@cldb@@QEAA@XZ 0000000180000000     clReflectCore:DatabaseBinarySerialiser.obj
 0002:fffad000       $unwind$??1ContainerInfo@cldb@@QEAA@XZ 0000000180000000     clReflectCore:DatabaseBinarySerialiser.obj
 0004:fff90000       $pdata$??0Field@cldb@@QEAA@$$QEAU01@@Z 0000000180000000     clReflectCore:DatabaseBinarySerialiser.obj
 0002:fffad000       $unwind$??0Field@cldb@@QEAA@$$QEAU01@@Z 0000000180000000     clReflectCore:DatabaseBinarySerialiser.obj
 0002:fffad000       $ip2state$??0Field@cldb@@QEAA@AEBU01@@Z 0000000180000000     clReflectCore:DatabaseBinarySerialiser.obj
 0002:fffad000       $stateUnwindMap$??0Field@cldb@@QEAA@AEBU01@@Z 0000000180000000     clReflectCore:DatabaseBinarySerialiser.obj
 0002:fffad000       $cppxdata$??0Field@cldb@@QEAA@AEBU01@@Z 0000000180000000     clReflectCore:DatabaseBinarySerialiser.obj
 0004:fff90000       $pdata$??0Field@cldb@@QEAA@AEBU01@@Z 0000000180000000     clReflectCore:DatabaseBinarySerialiser.obj
 0002:fffad000       $unwind$??0Field@cldb@@QEAA@AEBU01@@Z 0000000180000000     clReflectCore:DatabaseBinarySerialiser.obj
 0004:fff90000       $pdata$??1Field@cldb@@QEAA@XZ 0000000180000000     clReflectCore:DatabaseBinarySerialiser.obj
 0002:fffad000       $unwind$??1Field@cldb@@QEAA@XZ 0000000180000000     clReflectCore:DatabaseBinarySerialiser.obj
 0004:fff90000       $pdata$??_GTextAttribute@cldb@@UEAAPEAXI@Z 0000000180000000     clReflectCore:DatabaseBinarySerialiser.obj
 0002:fffad000       $unwind$??_GTextAttribute@cldb@@UEAAPEAXI@Z 0000000180000000     clReflectCore:DatabaseBinarySerialiser.obj
 0004:fff90000       $pdata$??1TextAttribute@cldb@@UEAA@XZ 0000000180000000     clReflectCore:DatabaseBinarySerialiser.obj
 0002:fffad000       $unwind$??1TextAttribute@cldb@@UEAA@XZ 0000000180000000     clReflectCore:DatabaseBinarySerialiser.obj
 0004:fff90000       $pdata$??_GPrimitiveAttribute@cldb@@UEAAPEAXI@Z 0000000180000000     clReflectCore:DatabaseBinarySerialiser.obj
 0002:fffad000       $unwind$??_GPrimitiveAttribute@cldb@@UEAAPEAXI@Z 0000000180000000     clReflectCore:DatabaseBinarySerialiser.obj
 0004:fff90000       $pdata$??1PrimitiveAttribute@cldb@@UEAA@XZ 0000000180000000     clReflectCore:DatabaseBinarySerialiser.obj
 0002:fffad000       $unwind$??1PrimitiveAttribute@cldb@@UEAA@XZ 0000000180000000     clReflectCore:DatabaseBinarySerialiser.obj
 0004:fff90000       $pdata$??_GAttribute@cldb@@UEAAPEAXI@Z 0000000180000000     clReflectCore:DatabaseBinarySerialiser.obj
 0002:fffad000       $unwind$??_GAttribute@cldb@@UEAAPEAXI@Z 0000000180000000     clReflectCore:DatabaseBinarySerialiser.obj
 0004:fff90000       $pdata$??0Primitive@cldb@@QEAA@$$QEAU01@@Z 0000000180000000     clReflectCore:DatabaseBinarySerialiser.obj
 0002:fffad000       $unwind$??0Primitive@cldb@@QEAA@$$QEAU01@@Z 0000000180000000     clReflectCore:DatabaseBinarySerialiser.obj
 0002:fffad000       $ip2state$??0Primitive@cldb@@QEAA@AEBU01@@Z 0000000180000000     clReflectCore:DatabaseBinarySerialiser.obj
 0002:fffad000       $stateUnwindMap$??0Primitive@cldb@@QEAA@AEBU01@@Z 0000000180000000     clReflectCore:DatabaseBinarySerialiser.obj
 0002:fffad000       $cppxdata$??0Primitive@cldb@@QEAA@AEBU01@@Z 0000000180000000     clReflectCore:DatabaseBinarySerialiser.obj
 0004:fff90000       $pdata$??0Primitive@cldb@@QEAA@AEBU01@@Z 0000000180000000     clReflectCore:DatabaseBinarySerialiser.obj
 0002:fffad000       $unwind$?deallocate@?$allocator@UField@cldb@@@std@@QEAAXQEAUField@cldb@@_K@Z 0000000180000000     clReflectCore:DatabaseBinarySerialiser.obj
 0004:fff90000       $pdata$?deallocate@?$allocator@UField@cldb@@@std@@QEAAXQEAUField@cldb@@_K@Z 0000000180000000     clReflectCore:DatabaseBinarySerialiser.obj
 0002:fffad000       $unwind$?allocate@?$allocator@UField@cldb@@@std@@QEAAPEAUField@cldb@@_K@Z 0000000180000000     clReflectCore:DatabaseBinarySerialiser.obj
 0004:fff90000       $pdata$?allocate@?$allocator@UField@cldb@@@std@@QEAAPEAUField@cldb@@_K@Z 0000000180000000     clReflectCore:DatabaseBinarySerialiser.obj
 0002:fffad000       __guard_fids_?dllmain_dispatch@@YAHQEAUHINSTANCE__@@KQEAX@Z 0000000180000000     MSVCRT:dll_dllmain.obj
 0002:fffad000       $unwind$??0Primitive@cldb@@QEAA@AEBU01@@Z 0000000180000000     clReflectCore:DatabaseBinarySerialiser.obj
 0004:fff90000       $pdata$??1Primitive@cldb@@QEAA@XZ 0000000180000000     clReflectCore:DatabaseBinarySerialiser.obj
 0002:fffad000       $unwind$??1Primitive@cldb@@QEAA@XZ 0000000180000000     clReflectCore:DatabaseBinarySerialiser.obj
 0004:fff90000       $pdata$??1Name@cldb@@QEAA@XZ 0000000180000000     clReflectCore:DatabaseBinarySerialiser.obj
 0002:fffad000       $unwind$??1Name@cldb@@QEAA@XZ 0000000180000000     clReflectCore:DatabaseBinarySerialiser.obj
 0004:fff90000       $pdata$?_Xlen@?$basic_string@DU?$char_traits@D@std@@V?$allocator@D@2@@std@@SAXXZ 0000000180000000     clReflectCore:DatabaseBinarySerialiser.obj
 0002:fffad000       $unwind$?_Xlen@?$basic_string@DU?$char_traits@D@std@@V?$allocator@D@2@@std@@SAXXZ 0000000180000000     clReflectCore:DatabaseBinarySerialiser.obj
 0004:fff90000       $pdata$?assign@?$basic_string@DU?$char_traits@D@std@@V?$allocator@D@2@@std@@QEAAAEAV12@QEBD@Z 0000000180000000     clReflectCore:DatabaseBinarySerialiser.obj
 0002:fffad000       $unwind$?assign@?$basic_string@DU?$char_traits@D@std@@V?$allocator@D@2@@std@@QEAAAEAV12@QEBD@Z 0000000180000000     clReflectCore:DatabaseBinarySerialiser.obj
 0002:fffad000       $unwind$?_Destroy@?$vector@UField@cldb@@V?$allocator@UField@cldb@@@std@@@std@@AEAAXPEAUField@cldb@@0@Z 0000000180000000     clReflectCore:DatabaseBinarySerialiser.obj
 0004:fff90000       $pdata$?_Destroy@?$vector@UField@cldb@@V?$allocator@UField@cldb@@@std@@@std@@AEAAXPEAUField@cldb@@0@Z 0000000180000000     clReflectCore:DatabaseBinarySerialiser.obj
 0002:fffad000       $unwind$?_Change_array@?$vector@UField@cldb@@V?$allocator@UField@cldb@@@std@@@std@@AEAAXQEAUField@cldb@@_K1@Z 0000000180000000     clReflectCore:DatabaseBinarySerialiser.obj
 0004:fff90000       $pdata$?_Change_array@?$vector@UField@cldb@@V?$allocator@UField@cldb@@@std@@@std@@AEAAXQEAUField@cldb@@_K1@Z 0000000180000000     clReflectCore:DatabaseBinarySerialiser.obj
 0002:fffad000       $unwind$?_Tidy@?$vector@UField@cldb@@V?$allocator@UField@cldb@@@std@@@std@@AEAAXXZ 0000000180000000     clReflectCore:DatabaseBinarySerialiser.obj
 0004:fff90000       $pdata$?_Tidy@?$vector@UField@cldb@@V?$allocator@UField@cldb@@@std@@@std@@AEAAXXZ 0000000180000000     clReflectCore:DatabaseBinarySerialiser.obj
 0002:fffad000       $unwind$?_Xlength@?$vector@UField@cldb@@V?$allocator@UField@cldb@@@std@@@std@@CAXXZ 0000000180000000     clReflectCore:DatabaseBinarySerialiser.obj
 0004:fff90000       $pdata$?_Xlength@?$vector@UField@cldb@@V?$allocator@UField@cldb@@@std@@@std@@CAXXZ 0000000180000000     clReflectCore:DatabaseBinarySerialiser.obj
 0004:fff90000       $pdata$??4?$basic_string@DU?$char_traits@D@std@@V?$allocator@D@2@@std@@QEAAAEAV01@AEBV01@@Z 0000000180000000     clReflectCore:DatabaseBinarySerialiser.obj
 0002:fffad000       $unwind$??4?$basic_string@DU?$char_traits@D@std@@V?$allocator@D@2@@std@@QEAAAEAV01@AEBV01@@Z 0000000180000000     clReflectCore:DatabaseBinarySerialiser.obj
 0004:fff90000       $pdata$??1?$basic_string@DU?$char_traits@D@std@@V?$allocator@D@2@@std@@QEAA@XZ 0000000180000000     clReflectCore:DatabaseBinarySerialiser.obj
 0002:fffad000       $unwind$??1?$basic_string@DU?$char_traits@D@std@@V?$allocator@D@2@@std@@QEAA@XZ 0000000180000000     clReflectCore:DatabaseBinarySerialiser.obj
 0004:fff90000       $pdata$?_Construct_lv_contents@?$basic_string@DU?$char_traits@D@std@@V?$allocator@D@2@@std@@QEAAXAEBV12@@Z 0000000180000000     clReflectCore:DatabaseBinarySerialiser.obj
 0002:fffad000       $unwind$?_Construct_lv_contents@?$basic_string@DU?$char_traits@D@std@@V?$allocator@D@2@@std@@QEAAXAEBV12@@Z 0000000180000000     clReflectCore:DatabaseBinarySerialiser.obj
 0004:fff90000       $pdata$??4?$basic_string@DU?$char_traits@D@std@@V?$allocator@D@2@@std@@QEAAAEAV01@$$QEAV01@@Z 0000000180000000     clReflectCore:DatabaseBinarySerialiser.obj
 0002:fffad000       $unwind$??4?$basic_string@DU?$char_traits@D@std@@V?$allocator@D@2@@std@@QEAAAEAV01@$$QEAV01@@Z 0000000180000000     clReflectCore:DatabaseBinarySerialiser.obj
 0001:fffff000       ?dtor$0@?0???0Primitive@cldb@@QEAA@AEBU01@@Z@4HA 0000000180000000 f   clReflectCore:DatabaseBinarySerialiser.obj
 0001:fffff000       ?dtor$0@?0???0Field@cldb@@QEAA@AEBU01@@Z@4HA 0000000180000000 f   clReflectCore:DatabaseBinarySerialiser.obj
 0001:fffff000       ?dtor$0@?0???$Add@UType@cldb@@@Database@cldb@@QEAAXAEBUName@1@AEBUType@1@@Z@4HA 0000000180000000 f   clReflectCore:DatabaseBinarySerialiser.obj
 0001:fffff000       ?dtor$0@?0???$Add@UFunction@cldb@@@Database@cldb@@QEAAXAEBUName@1@AEBUFunction@1@@Z@4HA 0000000180000000 f   clReflectCore:DatabaseBinarySerialiser.obj
 0001:fffff000       ?dtor$0@?0???$Add@UField@cldb@@@Database@cldb@@QEAAXAEBUName@1@AEBUField@1@@Z@4HA 0000000180000000 f   clReflectCore:DatabaseBinarySerialiser.obj
 0001:fffff000       ?catch$2@?0???$_Buynode@U?$pair@$$CBIUType@cldb@@@std@@@?$_Tree_comp_alloc@V?$_Tmap_traits@IUType@cldb@@U?$less@I@std@@V?$allocator@U?$pair@$$CBIUType@cldb@@@std@@@4@$00@std@@@std@@QEAAPEAU?$_Tree_node@U?$pair@$$CBIUType@cldb@@@std@@PEAX@1@$$QEAU?$pair@$$CBIUType@cldb@@@1@@Z@4HA 0000000180000000 f   clReflectCore:DatabaseBinarySerialiser.obj
 0001:fffff000       ?catch$2@?0???$_Buynode@U?$pair@$$CBIUFunction@cldb@@@std@@@?$_Tree_comp_alloc@V?$_Tmap_traits@IUFunction@cldb@@U?$less@I@std@@V?$allocator@U?$pair@$$CBIUFunction@cldb@@@std@@@4@$00@std@@@std@@QEAAPEAU?$_Tree_node@U?$pair@$$CBIUFunction@cldb@@@std@@PEAX@1@$$QEAU?$pair@$$CBIUFunction@cldb@@@1@@Z@4HA 0000000180000000 f   clReflectCore:DatabaseBinarySerialiser.obj
 0001:fffff000       ?catch$1@?0???$_Buynode@U?$pair@$$CBIUField@cldb@@@std@@@?$_Tree_comp_alloc@V?$_Tmap_traits@IUField@cldb@@U?$less@I@std@@V?$allocator@U?$pair@$$CBIUField@cldb@@@std@@@4@$00@std@@@std@@QEAAPEAU?$_Tree_node@U?$pair@$$CBIUField@cldb@@@std@@PEAX@1@$$QEAU?$pair@$$CBIUField@cldb@@@1@@Z@4HA 0000000180000000 f   clReflectCore:DatabaseBinarySerialiser.obj
 0001:fffff000       ?catch$0@?0??_Buynode0@?$_Tree_comp_alloc@V?$_Tmap_traits@IUTypeInheritance@cldb@@U?$less@I@std@@V?$allocator@U?$pair@$$CBIUTypeInheritance@cldb@@@std@@@4@$0A@@std@@@std@@QEAAPEAU?$_Tree_node@U?$pair@$$CBIUTypeInheritance@cldb@@@std@@PEAX@2@XZ@4HA 0000000180000000 f   clReflectCore:DatabaseBinarySerialiser.obj
 0001:fffff000       ?catch$0@?0??_Buynode0@?$_Tree_comp_alloc@V?$_Tmap_traits@IUType@cldb@@U?$less@I@std@@V?$allocator@U?$pair@$$CBIUType@cldb@@@std@@@4@$00@std@@@std@@QEAAPEAU?$_Tree_node@U?$pair@$$CBIUType@cldb@@@std@@PEAX@2@XZ@4HA 0000000180000000 f   clReflectCore:DatabaseBinarySerialiser.obj
 0001:fffff000       ?catch$0@?0??_Buynode0@?$_Tree_comp_alloc@V?$_Tmap_traits@IUName@cldb@@U?$less@I@std@@V?$allocator@U?$pair@$$CBIUName@cldb@@@std@@@4@$0A@@std@@@std@@QEAAPEAU?$_Tree_node@U?$pair@$$CBIUName@cldb@@@std@@PEAX@2@XZ@4HA 0000000180000000 f   clReflectCore:DatabaseBinarySerialiser.obj
 0001:fffff000       ?catch$0@?0??_Buynode0@?$_Tree_comp_alloc@V?$_Tmap_traits@IUFunction@cldb@@U?$less@I@std@@V?$allocator@U?$pair@$$CBIUFunction@cldb@@@std@@@4@$00@std@@@std@@QEAAPEAU?$_Tree_node@U?$pair@$$CBIUFunction@cldb@@@std@@PEAX@2@XZ@4HA 0000000180000000 f   clReflectCore:DatabaseBinarySerialiser.obj
 0001:fffff000       ?catch$0@?0??_Buynode0@?$_Tree_comp_alloc@V?$_Tmap_traits@IUField@cldb@@U?$less@I@std@@V?$allocator@U?$pair@$$CBIUField@cldb@@@std@@@4@$00@std@@@std@@QEAAPEAU?$_Tree_node@U?$pair@$$CBIUField@cldb@@@std@@PEAX@2@XZ@4HA 0000000180000000 f   clReflectCore:DatabaseBinarySerialiser.obj
 0001:fffff000       ?catch$0@?0??_Buynode0@?$_Tree_comp_alloc@V?$_Tmap_traits@IUContainerInfo@cldb@@U?$less@I@std@@V?$allocator@U?$pair@$$CBIUContainerInfo@cldb@@@std@@@4@$0A@@std@@@std@@QEAAPEAU?$_Tree_node@U?$pair@$$CBIUContainerInfo@cldb@@@std@@PEAX@2@XZ@4HA 0000000180000000 f   clReflectCore:DatabaseBinarySerialiser.obj
 0001:fffff000       ?catch$0@?0???$_Insert_nohint@U?$pair@$$CBIUType@cldb@@@std@@U_Not_a_node_tag@2@@?$_Tree@V?$_Tmap_traits@IUType@cldb@@U?$less@I@std@@V?$allocator@U?$pair@$$CBIUType@cldb@@@std@@@4@$00@std@@@std@@IEAA?AU?$pair@V?$_Tree_iterator@V?$_Tree_val@U?$_Tree_simple_types@U?$pair@$$CBIUType@cldb@@@std@@@std@@@std@@@std@@_N@1@_N$$QEAU?$pair@$$CBIUType@cldb@@@1@U_Not_a_node_tag@1@@Z@4HA 0000000180000000 f   clReflectCore:DatabaseBinarySerialiser.obj
 0001:fffff000       ?catch$0@?0???$_Insert_nohint@U?$pair@$$CBIUFunction@cldb@@@std@@U_Not_a_node_tag@2@@?$_Tree@V?$_Tmap_traits@IUFunction@cldb@@U?$less@I@std@@V?$allocator@U?$pair@$$CBIUFunction@cldb@@@std@@@4@$00@std@@@std@@IEAA?AU?$pair@V?$_Tree_iterator@V?$_Tree_val@U?$_Tree_simple_types@U?$pair@$$CBIUFunction@cldb@@@std@@@std@@@std@@@std@@_N@1@_N$$QEAU?$pair@$$CBIUFunction@cldb@@@1@U_Not_a_node_tag@1@@Z@4HA 0000000180000000 f   clReflectCore:DatabaseBinarySerialiser.obj
 0001:fffff000       ?catch$0@?0???$_Insert_nohint@U?$pair@$$CBIUField@cldb@@@std@@U_Not_a_node_tag@2@@?$_Tree@V?$_Tmap_traits@IUField@cldb@@U?$less@I@std@@V?$allocator@U?$pair@$$CBIUField@cldb@@@std@@@4@$00@std@@@std@@IEAA?AU?$pair@V?$_Tree_iterator@V?$_Tree_val@U?$_Tree_simple_types@U?$pair@$$CBIUField@cldb@@@std@@@std@@@std@@@std@@_N@1@_N$$QEAU?$pair@$$CBIUField@cldb@@@1@U_Not_a_node_tag@1@@Z@4HA 0000000180000000 f   clReflectCore:DatabaseBinarySerialiser.obj
 0002:fffad000       $unwind$??$Add@UType@cldb@@@Database@cldb@@QEAAXAEBUName@1@AEBUType@1@@Z 0000000180000000     clReflectCore:DatabaseBinarySerialiser.obj
 0004:fff90000       $pdata$??$Add@UType@cldb@@@Database@cldb@@QEAAXAEBUName@1@AEBUType@1@@Z 0000000180000000     clReflectCore:DatabaseBinarySerialiser.obj
 0002:fffad000       $cppxdata$??$Add@UType@cldb@@@Database@cldb@@QEAAXAEBUName@1@AEBUType@1@@Z 0000000180000000     clReflectCore:DatabaseBinarySerialiser.obj
 0002:fffad000       $stateUnwindMap$??$Add@UType@cldb@@@Database@cldb@@QEAAXAEBUName@1@AEBUType@1@@Z 0000000180000000     clReflectCore:DatabaseBinarySerialiser.obj
 0002:fffad000       $ip2state$??$Add@UType@cldb@@@Database@cldb@@QEAAXAEBUName@1@AEBUType@1@@Z 0000000180000000     clReflectCore:DatabaseBinarySerialiser.obj
 0002:fffad000       $unwind$??$Add@UField@cldb@@@Database@cldb@@QEAAXAEBUName@1@AEBUField@1@@Z 0000000180000000     clReflectCore:DatabaseBinarySerialiser.obj
 0004:fff90000       $pdata$??$Add@UField@cldb@@@Database@cldb@@QEAAXAEBUName@1@AEBUField@1@@Z 0000000180000000     clReflectCore:DatabaseBinarySerialiser.obj
 0002:fffad000       $cppxdata$??$Add@UField@cldb@@@Database@cldb@@QEAAXAEBUName@1@AEBUField@1@@Z 0000000180000000     clReflectCore:DatabaseBinarySerialiser.obj
 0002:fffad000       $stateUnwindMap$??$Add@UField@cldb@@@Database@cldb@@QEAAXAEBUName@1@AEBUField@1@@Z 0000000180000000     clReflectCore:DatabaseBinarySerialiser.obj
 0002:fffad000       $ip2state$??$Add@UField@cldb@@@Database@cldb@@QEAAXAEBUName@1@AEBUField@1@@Z 0000000180000000     clReflectCore:DatabaseBinarySerialiser.obj
 0002:fffad000       $unwind$??$Add@UFunction@cldb@@@Database@cldb@@QEAAXAEBUName@1@AEBUFunction@1@@Z 0000000180000000     clReflectCore:DatabaseBinarySerialiser.obj
 0004:fff90000       $pdata$??$Add@UFunction@cldb@@@Database@cldb@@QEAAXAEBUName@1@AEBUFunction@1@@Z 0000000180000000     clReflectCore:DatabaseBinarySerialiser.obj
 0002:fffad000       $cppxdata$??$Add@UFunction@cldb@@@Database@cldb@@QEAAXAEBUName@1@AEBUFunction@1@@Z 0000000180000000     clReflectCore:DatabaseBinarySerialiser.obj
 0002:fffad000       $stateUnwindMap$??$Add@UFunction@cldb@@@Database@cldb@@QEAAXAEBUName@1@AEBUFunction@1@@Z 0000000180000000     clReflectCore:DatabaseBinarySerialiser.obj
 0002:fffad000       $ip2state$??$Add@UFunction@cldb@@@Database@cldb@@QEAAXAEBUName@1@AEBUFunction@1@@Z 0000000180000000     clReflectCore:DatabaseBinarySerialiser.obj
 0004:fff90000       $pdata$??$_Reallocate_grow_by@V<lambda_9013ee9e23efe4882b67eff5b0ecf103>@@$$V@?$basic_string@DU?$char_traits@D@std@@V?$allocator@D@2@@std@@QEAAAEAV01@_KV<lambda_9013ee9e23efe4882b67eff5b0ecf103>@@@Z 0000000180000000     clReflectCore:Database.obj
 0002:fffad000       $unwind$??$_Reallocate_grow_by@V<lambda_9013ee9e23efe4882b67eff5b0ecf103>@@$$V@?$basic_string@DU?$char_traits@D@std@@V?$allocator@D@2@@std@@QEAAAEAV01@_KV<lambda_9013ee9e23efe4882b67eff5b0ecf103>@@@Z 0000000180000000     clReflectCore:Database.obj
 0004:fff90000       $pdata$??$_Reallocate_grow_by@V<lambda_65e615be2a453ca0576c979606f46740>@@PEBD_K@?$basic_string@DU?$char_traits@D@std@@V?$allocator@D@2@@std@@QEAAAEAV01@_KV<lambda_65e615be2a453ca0576c979606f46740>@@PEBD_K@Z 0000000180000000     clReflectCore:Database.obj
 0002:fffad000       $unwind$??$_Reallocate_grow_by@V<lambda_65e615be2a453ca0576c979606f46740>@@PEBD_K@?$basic_string@DU?$char_traits@D@std@@V?$allocator@D@2@@std@@QEAAAEAV01@_KV<lambda_65e615be2a453ca0576c979606f46740>@@PEBD_K@Z 0000000180000000     clReflectCore:Database.obj
 0002:fffad000       __guard_fids__             0000000180000000     MSVCRT:tlsdyn.obj
 0004:fff90000       $pdata$??$_Reallocate_for@V<lambda_66f57f934f28d61049862f64df852ff0>@@PEBD@?$basic_string@DU?$char_traits@D@std@@V?$allocator@D@2@@std@@QEAAAEAV01@_KV<lambda_66f57f934f28d61049862f64df852ff0>@@PEBD@Z 0000000180000000     clReflectCore:Database.obj
 0002:fffad000       $unwind$??$_Reallocate_for@V<lambda_66f57f934f28d61049862f64df852ff0>@@PEBD@?$basic_string@DU?$char_traits@D@std@@V?$allocator@D@2@@std@@QEAAAEAV01@_KV<lambda_66f57f934f28d61049862f64df852ff0>@@PEBD@Z 0000000180000000     clReflectCore:Database.obj
 0004:fff90000       $pdata$??_G?$pair@$$CBIUName@cldb@@@std@@QEAAPEAXI@Z 0000000180000000     clReflectCore:Database.obj
 0002:fffad000       __guard_fids__             0000000180000000     MSVCRT:std_type_info_static.obj
 0002:fffad000       $unwind$??_G?$pair@$$CBIUName@cldb@@@std@@QEAAPEAXI@Z 0000000180000000     clReflectCore:Database.obj
 0004:fff90000       $pdata$?dtor$0@?0???$?HDU?$char_traits@D@std@@V?$allocator@D@1@@std@@YA?AV?$basic_string@DU?$char_traits@D@std@@V?$allocator@D@2@@0@AEBV10@QEBD@Z@4HA 0000000180000000     clReflectCore:Database.obj
 0002:fffad000       $unwind$?dtor$0@?0???$?HDU?$char_traits@D@std@@V?$allocator@D@1@@std@@YA?AV?$basic_string@DU?$char_traits@D@std@@V?$allocator@D@2@@0@AEBV10@QEBD@Z@4HA 0000000180000000     clReflectCore:Database.obj
 0002:fffad000       $ip2state$??$?HDU?$char_traits@D@std@@V?$allocator@D@1@@std@@YA?AV?$basic_string@DU?$char_traits@D@std@@V?$allocator@D@2@@0@AEBV10@QEBD@Z 0000000180000000     clReflectCore:Database.obj
 0002:fffad000       $stateUnwindMap$??$?HDU?$char_traits@D@std@@V?$allocator@D@1@@std@@YA?AV?$basic_string@DU?$char_traits@D@std@@V?$allocator@D@2@@0@AEBV10@QEBD@Z 0000000180000000     clReflectCore:Database.obj
 0002:fffad000       $cppxdata$??$?HDU?$char_traits@D@std@@V?$allocator@D@1@@std@@YA?AV?$basic_string@DU?$char_traits@D@std@@V?$allocator@D@2@@0@AEBV10@QEBD@Z 0000000180000000     clReflectCore:Database.obj
 0004:fff90000       $pdata$??$?HDU?$char_traits@D@std@@V?$allocator@D@1@@std@@YA?AV?$basic_string@DU?$char_traits@D@std@@V?$allocator@D@2@@0@AEBV10@QEBD@Z 0000000180000000     clReflectCore:Database.obj
 0002:fffad000       $unwind$??$?HDU?$char_traits@D@std@@V?$allocator@D@1@@std@@YA?AV?$basic_string@DU?$char_traits@D@std@@V?$allocator@D@2@@0@AEBV10@QEBD@Z 0000000180000000     clReflectCore:Database.obj
 0004:fff90000       $pdata$?_Erase@?$_Tree@V?$_Tmap_traits@IUGetTypeFunctions@cldb@@U?$less@I@std@@V?$allocator@U?$pair@$$CBIUGetTypeFunctions@cldb@@@std@@@4@$0A@@std@@@std@@IEAAXPEAU?$_Tree_node@U?$pair@$$CBIUGetTypeFunctions@cldb@@@std@@PEAX@2@@Z 0000000180000000     clReflectCore:Database.obj
 0000:fff89000       .debug$S                   0000000180000000     msvcprt:MSVCP140.dll
 0000:fff89000       .debug$S                   0000000180000000     msvcprt:MSVCP140.dll
 0002:fffad000       $unwind$?_Erase@?$_Tree@V?$_Tmap_traits@IUGetTypeFunctions@cldb@@U?$less@I@std@@V?$allocator@U?$pair@$$CBIUGetTypeFunctions@cldb@@@std@@@4@$0A@@std@@@std@@IEAAXPEAU?$_Tree_node@U?$pair@$$CBIUGetTypeFunctions@cldb@@@std@@PEAX@2@@Z 0000000180000000     clReflectCore:Database.obj
 0000:fff89000       .debug$S                   0000000180000000     kernel32:KERNEL32.dll
 0000:fff89000       .debug$S                   0000000180000000     kernel32:KERNEL32.dll
 0000:fff89000       .debug$S                   0000000180000000     kernel32:KERNEL32.dll
 0004:fff90000       $pdata$?deallocate@?$allocator@U?$_Tree_node@U?$pair@$$CBIUGetTypeFunctions@cldb@@@std@@PEAX@std@@@std@@QEAAXQEAU?$_Tree_node@U?$pair@$$CBIUGetTypeFunctions@cldb@@@std@@PEAX@2@_K@Z 0000000180000000     clReflectCore:Database.obj
 0000:fff89000       .debug$S                   0000000180000000     dbghelp:dbghelp.dll
 0000:fff89000       .debug$S                   0000000180000000     dbghelp:dbghelp.dll
 0000:fff89000       .debug$S                   0000000180000000     dbghelp:dbghelp.dll
 0000:fff89000       .debug$S                   0000000180000000     dbghelp:dbghelp.dll
 0002:fffad000       $unwind$?deallocate@?$allocator@U?$_Tree_node@U?$pair@$$CBIUGetTypeFunctions@cldb@@@std@@PEAX@std@@@std@@QEAAXQEAU?$_Tree_node@U?$pair@$$CBIUGetTypeFunctions@cldb@@@std@@PEAX@2@_K@Z 0000000180000000     clReflectCore:Database.obj
 0004:fff90000       $pdata$?_Erase@?$_Tree@V?$_Tmap_traits@IUTextAttribute@cldb@@U?$less@I@std@@V?$allocator@U?$pair@$$CBIUTextAttribute@cldb@@@std@@@4@$00@std@@@std@@IEAAXPEAU?$_Tree_node@U?$pair@$$CBIUTextAttribute@cldb@@@std@@PEAX@2@@Z 0000000180000000     clReflectCore:Database.obj
 0002:fffad000       $unwind$?_Erase@?$_Tree@V?$_Tmap_traits@IUTextAttribute@cldb@@U?$less@I@std@@V?$allocator@U?$pair@$$CBIUTextAttribute@cldb@@@std@@@4@$00@std@@@std@@IEAAXPEAU?$_Tree_node@U?$pair@$$CBIUTextAttribute@cldb@@@std@@PEAX@2@@Z 0000000180000000     clReflectCore:Database.obj
 0002:fffad000       $ip2state$?clear@?$_Tree@V?$_Tmap_traits@IUTextAttribute@cldb@@U?$less@I@std@@V?$allocator@U?$pair@$$CBIUTextAttribute@cldb@@@std@@@4@$00@std@@@std@@QEAAXXZ 0000000180000000     clReflectCore:Database.obj
 0002:fffad000       $cppxdata$?clear@?$_Tree@V?$_Tmap_traits@IUTextAttribute@cldb@@U?$less@I@std@@V?$allocator@U?$pair@$$CBIUTextAttribute@cldb@@@std@@@4@$00@std@@@std@@QEAAXXZ 0000000180000000     clReflectCore:Database.obj
 0004:fff90000       $pdata$?clear@?$_Tree@V?$_Tmap_traits@IUTextAttribute@cldb@@U?$less@I@std@@V?$allocator@U?$pair@$$CBIUTextAttribute@cldb@@@std@@@4@$00@std@@@std@@QEAAXXZ 0000000180000000     clReflectCore:Database.obj
 0002:fffad000       $unwind$?clear@?$_Tree@V?$_Tmap_traits@IUTextAttribute@cldb@@U?$less@I@std@@V?$allocator@U?$pair@$$CBIUTextAttribute@cldb@@@std@@@4@$00@std@@@std@@QEAAXXZ 0000000180000000     clReflectCore:Database.obj
 0004:fff90000       $pdata$?erase@?$_Tree@V?$_Tmap_traits@IUTextAttribute@cldb@@U?$less@I@std@@V?$allocator@U?$pair@$$CBIUTextAttribute@cldb@@@std@@@4@$00@std@@@std@@QEAA?AV?$_Tree_iterator@V?$_Tree_val@U?$_Tree_simple_types@U?$pair@$$CBIUTextAttribute@cldb@@@std@@@std@@@std@@@2@V?$_Tree_const_iterator@V?$_Tree_val@U?$_Tree_simple_types@U?$pair@$$CBIUTextAttribute@cldb@@@std@@@std@@@std@@@2@0@Z 0000000180000000     clReflectCore:Database.obj
 0002:fffad000       $unwind$?erase@?$_Tree@V?$_Tmap_traits@IUTextAttribute@cldb@@U?$less@I@std@@V?$allocator@U?$pair@$$CBIUTextAttribute@cldb@@@std@@@4@$00@std@@@std@@QEAA?AV?$_Tree_iterator@V?$_Tree_val@U?$_Tree_simple_types@U?$pair@$$CBIUTextAttribute@cldb@@@std@@@std@@@std@@@2@V?$_Tree_const_iterator@V?$_Tree_val@U?$_Tree_simple_types@U?$pair@$$CBIUTextAttribute@cldb@@@std@@@std@@@std@@@2@0@Z 0000000180000000     clReflectCore:Database.obj
 0004:fff90000       $pdata$?erase@?$_Tree@V?$_Tmap_traits@IUTextAttribute@cldb@@U?$less@I@std@@V?$allocator@U?$pair@$$CBIUTextAttribute@cldb@@@std@@@4@$00@std@@@std@@QEAA?AV?$_Tree_iterator@V?$_Tree_val@U?$_Tree_simple_types@U?$pair@$$CBIUTextAttribute@cldb@@@std@@@std@@@std@@@2@V?$_Tree_const_iterator@V?$_Tree_val@U?$_Tree_simple_types@U?$pair@$$CBIUTextAttribute@cldb@@@std@@@std@@@std@@@2@@Z 0000000180000000     clReflectCore:Database.obj
 0002:fffad000       $unwind$?erase@?$_Tree@V?$_Tmap_traits@IUTextAttribute@cldb@@U?$less@I@std@@V?$allocator@U?$pair@$$CBIUTextAttribute@cldb@@@std@@@4@$00@std@@@std@@QEAA?AV?$_Tree_iterator@V?$_Tree_val@U?$_Tree_simple_types@U?$pair@$$CBIUTextAttribute@cldb@@@std@@@std@@@std@@@2@V?$_Tree_const_iterator@V?$_Tree_val@U?$_Tree_simple_types@U?$pair@$$CBIUTextAttribute@cldb@@@std@@@std@@@std@@@2@@Z 0000000180000000     clReflectCore:Database.obj
 0004:fff90000       $pdata$?_Extract@?$_Tree_val@U?$_Tree_simple_types@U?$pair@$$CBIUTextAttribute@cldb@@@std@@@std@@@std@@QEAAPEAU?$_Tree_node@U?$pair@$$CBIUTextAttribute@cldb@@@std@@PEAX@2@V?$_Tree_const_iterator@V?$_Tree_val@U?$_Tree_simple_types@U?$pair@$$CBIUTextAttribute@cldb@@@std@@@std@@@std@@@2@@Z 0000000180000000     clReflectCore:Database.obj
 0002:fffad000       $unwind$?_Extract@?$_Tree_val@U?$_Tree_simple_types@U?$pair@$$CBIUTextAttribute@cldb@@@std@@@std@@@std@@QEAAPEAU?$_Tree_node@U?$pair@$$CBIUTextAttribute@cldb@@@std@@PEAX@2@V?$_Tree_const_iterator@V?$_Tree_val@U?$_Tree_simple_types@U?$pair@$$CBIUTextAttribute@cldb@@@std@@@std@@@std@@@2@@Z 0000000180000000     clReflectCore:Database.obj
 0004:fff90000       $pdata$?_Erase@?$_Tree@V?$_Tmap_traits@IUPrimitiveAttribute@cldb@@U?$less@I@std@@V?$allocator@U?$pair@$$CBIUPrimitiveAttribute@cldb@@@std@@@4@$00@std@@@std@@IEAAXPEAU?$_Tree_node@U?$pair@$$CBIUPrimitiveAttribute@cldb@@@std@@PEAX@2@@Z 0000000180000000     clReflectCore:Database.obj
 0002:fffad000       $unwind$?_Erase@?$_Tree@V?$_Tmap_traits@IUPrimitiveAttribute@cldb@@U?$less@I@std@@V?$allocator@U?$pair@$$CBIUPrimitiveAttribute@cldb@@@std@@@4@$00@std@@@std@@IEAAXPEAU?$_Tree_node@U?$pair@$$CBIUPrimitiveAttribute@cldb@@@std@@PEAX@2@@Z 0000000180000000     clReflectCore:Database.obj
 0002:fffad000       $ip2state$?clear@?$_Tree@V?$_Tmap_traits@IUPrimitiveAttribute@cldb@@U?$less@I@std@@V?$allocator@U?$pair@$$CBIUPrimitiveAttribute@cldb@@@std@@@4@$00@std@@@std@@QEAAXXZ 0000000180000000     clReflectCore:Database.obj
 0002:fffad000       $cppxdata$?clear@?$_Tree@V?$_Tmap_traits@IUPrimitiveAttribute@cldb@@U?$less@I@std@@V?$allocator@U?$pair@$$CBIUPrimitiveAttribute@cldb@@@std@@@4@$00@std@@@std@@QEAAXXZ 0000000180000000     clReflectCore:Database.obj
 0004:fff90000       $pdata$?clear@?$_Tree@V?$_Tmap_traits@IUPrimitiveAttribute@cldb@@U?$less@I@std@@V?$allocator@U?$pair@$$CBIUPrimitiveAttribute@cldb@@@std@@@4@$00@std@@@std@@QEAAXXZ 0000000180000000     clReflectCore:Database.obj
 0002:fffad000       $unwind$?clear@?$_Tree@V?$_Tmap_traits@IUPrimitiveAttribute@cldb@@U?$less@I@std@@V?$allocator@U?$pair@$$CBIUPrimitiveAttribute@cldb@@@std@@@4@$00@std@@@std@@QEAAXXZ 0000000180000000     clReflectCore:Database.obj
 0004:fff90000       $pdata$?erase@?$_Tree@V?$_Tmap_traits@IUPrimitiveAttribute@cldb@@U?$less@I@std@@V?$allocator@U?$pair@$$CBIUPrimitiveAttribute@cldb@@@std@@@4@$00@std@@@std@@QEAA?AV?$_Tree_iterator@V?$_Tree_val@U?$_Tree_simple_types@U?$pair@$$CBIUPrimitiveAttribute@cldb@@@std@@@std@@@std@@@2@V?$_Tree_const_iterator@V?$_Tree_val@U?$_Tree_simple_types@U?$pair@$$CBIUPrimitiveAttribute@cldb@@@std@@@std@@@std@@@2@0@Z 0000000180000000     clReflectCore:Database.obj
 0002:fffad000       $unwind$?erase@?$_Tree@V?$_Tmap_traits@IUPrimitiveAttribute@cldb@@U?$less@I@std@@V?$allocator@U?$pair@$$CBIUPrimitiveAttribute@cldb@@@std@@@4@$00@std@@@std@@QEAA?AV?$_Tree_iterator@V?$_Tree_val@U?$_Tree_simple_types@U?$pair@$$CBIUPrimitiveAttribute@cldb@@@std@@@std@@@std@@@2@V?$_Tree_const_iterator@V?$_Tree_val@U?$_Tree_simple_types@U?$pair@$$CBIUPrimitiveAttribute@cldb@@@std@@@std@@@std@@@2@0@Z 0000000180000000     clReflectCore:Database.obj
 0004:fff90000       $pdata$?erase@?$_Tree@V?$_Tmap_traits@IUPrimitiveAttribute@cldb@@U?$less@I@std@@V?$allocator@U?$pair@$$CBIUPrimitiveAttribute@cldb@@@std@@@4@$00@std@@@std@@QEAA?AV?$_Tree_iterator@V?$_Tree_val@U?$_Tree_simple_types@U?$pair@$$CBIUPrimitiveAttribute@cldb@@@std@@@std@@@std@@@2@V?$_Tree_const_iterator@V?$_Tree_val@U?$_Tree_simple_types@U?$pair@$$CBIUPrimitiveAttribute@cldb@@@std@@@std@@@std@@@2@@Z 0000000180000000     clReflectCore:Database.obj
 0002:fffad000       $unwind$?erase@?$_Tree@V?$_Tmap_traits@IUPrimitiveAttribute@cldb@@U?$less@I@std@@V?$allocator@U?$pair@$$CBIUPrimitiveAttribute@cldb@@@std@@@4@$00@std@@@std@@QEAA?AV?$_Tree_iterator@V?$_Tree_val@U?$_Tree_simple_types@U?$pair@$$CBIUPrimitiveAttribute@cldb@@@std@@@std@@@std@@@2@V?$_Tree_const_iterator@V?$_Tree_val@U?$_Tree_simple_types@U?$pair@$$CBIUPrimitiveAttribute@cldb@@@std@@@std@@@std@@@2@@Z 0000000180000000     clReflectCore:Database.obj
 0004:fff90000       $pdata$?_Extract@?$_Tree_val@U?$_Tree_simple_types@U?$pair@$$CBIUPrimitiveAttribute@cldb@@@std@@@std@@@std@@QEAAPEAU?$_Tree_node@U?$pair@$$CBIUPrimitiveAttribute@cldb@@@std@@PEAX@2@V?$_Tree_const_iterator@V?$_Tree_val@U?$_Tree_simple_types@U?$pair@$$CBIUPrimitiveAttribute@cldb@@@std@@@std@@@std@@@2@@Z 0000000180000000     clReflectCore:Database.obj
 0002:fffad000       $unwind$?_Extract@?$_Tree_val@U?$_Tree_simple_types@U?$pair@$$CBIUPrimitiveAttribute@cldb@@@std@@@std@@@std@@QEAAPEAU?$_Tree_node@U?$pair@$$CBIUPrimitiveAttribute@cldb@@@std@@PEAX@2@V?$_Tree_const_iterator@V?$_Tree_val@U?$_Tree_simple_types@U?$pair@$$CBIUPrimitiveAttribute@cldb@@@std@@@std@@@std@@@2@@Z 0000000180000000     clReflectCore:Database.obj
 0004:fff90000       $pdata$?_Erase@?$_Tree@V?$_Tmap_traits@IUFloatAttribute@cldb@@U?$less@I@std@@V?$allocator@U?$pair@$$CBIUFloatAttribute@cldb@@@std@@@4@$00@std@@@std@@IEAAXPEAU?$_Tree_node@U?$pair@$$CBIUFloatAttribute@cldb@@@std@@PEAX@2@@Z 0000000180000000     clReflectCore:Database.obj
 0002:fffad000       $unwind$?_Erase@?$_Tree@V?$_Tmap_traits@IUFloatAttribute@cldb@@U?$less@I@std@@V?$allocator@U?$pair@$$CBIUFloatAttribute@cldb@@@std@@@4@$00@std@@@std@@IEAAXPEAU?$_Tree_node@U?$pair@$$CBIUFloatAttribute@cldb@@@std@@PEAX@2@@Z 0000000180000000     clReflectCore:Database.obj
 0002:fffad000       $ip2state$?clear@?$_Tree@V?$_Tmap_traits@IUFloatAttribute@cldb@@U?$less@I@std@@V?$allocator@U?$pair@$$CBIUFloatAttribute@cldb@@@std@@@4@$00@std@@@std@@QEAAXXZ 0000000180000000     clReflectCore:Database.obj
 0002:fffad000       $cppxdata$?clear@?$_Tree@V?$_Tmap_traits@IUFloatAttribute@cldb@@U?$less@I@std@@V?$allocator@U?$pair@$$CBIUFloatAttribute@cldb@@@std@@@4@$00@std@@@std@@QEAAXXZ 0000000180000000     clReflectCore:Database.obj
 0004:fff90000       $pdata$?clear@?$_Tree@V?$_Tmap_traits@IUFloatAttribute@cldb@@U?$less@I@std@@V?$allocator@U?$pair@$$CBIUFloatAttribute@cldb@@@std@@@4@$00@std@@@std@@QEAAXXZ 0000000180000000     clReflectCore:Database.obj
 0002:fffad000       $unwind$?clear@?$_Tree@V?$_Tmap_traits@IUFloatAttribute@cldb@@U?$less@I@std@@V?$allocator@U?$pair@$$CBIUFloatAttribute@cldb@@@std@@@4@$00@std@@@std@@QEAAXXZ 0000000180000000     clReflectCore:Database.obj
 0004:fff90000       $pdata$?erase@?$_Tree@V?$_Tmap_traits@IUFloatAttribute@cldb@@U?$less@I@std@@V?$allocator@U?$pair@$$CBIUFloatAttribute@cldb@@@std@@@4@$00@std@@@std@@QEAA?AV?$_Tree_iterator@V?$_Tree_val@U?$_Tree_simple_types@U?$pair@$$CBIUFloatAttribute@cldb@@@std@@@std@@@std@@@2@V?$_Tree_const_iterator@V?$_Tree_val@U?$_Tree_simple_types@U?$pair@$$CBIUFloatAttribute@cldb@@@std@@@std@@@std@@@2@0@Z 0000000180000000     clReflectCore:Database.obj
 0002:fffad000       $unwind$?erase@?$_Tree@V?$_Tmap_traits@IUFloatAttribute@cldb@@U?$less@I@std@@V?$allocator@U?$pair@$$CBIUFloatAttribute@cldb@@@std@@@4@$00@std@@@std@@QEAA?AV?$_Tree_iterator@V?$_Tree_val@U?$_Tree_simple_types@U?$pair@$$CBIUFloatAttribute@cldb@@@std@@@std@@@std@@@2@V?$_Tree_const_iterator@V?$_Tree_val@U?$_Tree_simple_types@U?$pair@$$CBIUFloatAttribute@cldb@@@std@@@std@@@std@@@2@0@Z 0000000180000000     clReflectCore:Database.obj
 0004:fff90000       $pdata$?erase@?$_Tree@V?$_Tmap_traits@IUFloatAttribute@cldb@@U?$less@I@std@@V?$allocator@U?$pair@$$CBIUFloatAttribute@cldb@@@std@@@4@$00@std@@@std@@QEAA?AV?$_Tree_iterator@V?$_Tree_val@U?$_Tree_simple_types@U?$pair@$$CBIUFloatAttribute@cldb@@@std@@@std@@@std@@@2@V?$_Tree_const_iterator@V?$_Tree_val@U?$_Tree_simple_types@U?$pair@$$CBIUFloatAttribute@cldb@@@std@@@std@@@std@@@2@@Z 0000000180000000     clReflectCore:Database.obj
 0002:fffad000       $unwind$?erase@?$_Tree@V?$_Tmap_traits@IUFloatAttribute@cldb@@U?$less@I@std@@V?$allocator@U?$pair@$$CBIUFloatAttribute@cldb@@@std@@@4@$00@std@@@std@@QEAA?AV?$_Tree_iterator@V?$_Tree_val@U?$_Tree_simple_types@U?$pair@$$CBIUFloatAttribute@cldb@@@std@@@std@@@std@@@2@V?$_Tree_const_iterator@V?$_Tree_val@U?$_Tree_simple_types@U?$pair@$$CBIUFloatAttribute@cldb@@@std@@@std@@@std@@@2@@Z 0000000180000000     clReflectCore:Database.obj
 0004:fff90000       $pdata$?_Extract@?$_Tree_val@U?$_Tree_simple_types@U?$pair@$$CBIUFloatAttribute@cldb@@@std@@@std@@@std@@QEAAPEAU?$_Tree_node@U?$pair@$$CBIUFloatAttribute@cldb@@@std@@PEAX@2@V?$_Tree_const_iterator@V?$_Tree_val@U?$_Tree_simple_types@U?$pair@$$CBIUFloatAttribute@cldb@@@std@@@std@@@std@@@2@@Z 0000000180000000     clReflectCore:Database.obj
 0002:fffad000       $unwind$?_Extract@?$_Tree_val@U?$_Tree_simple_types@U?$pair@$$CBIUFloatAttribute@cldb@@@std@@@std@@@std@@QEAAPEAU?$_Tree_node@U?$pair@$$CBIUFloatAttribute@cldb@@@std@@PEAX@2@V?$_Tree_const_iterator@V?$_Tree_val@U?$_Tree_simple_types@U?$pair@$$CBIUFloatAttribute@cldb@@@std@@@std@@@std@@@2@@Z 0000000180000000     clReflectCore:Database.obj
 0004:fff90000       $pdata$?_Erase@?$_Tree@V?$_Tmap_traits@IUIntAttribute@cldb@@U?$less@I@std@@V?$allocator@U?$pair@$$CBIUIntAttribute@cldb@@@std@@@4@$00@std@@@std@@IEAAXPEAU?$_Tree_node@U?$pair@$$CBIUIntAttribute@cldb@@@std@@PEAX@2@@Z 0000000180000000     clReflectCore:Database.obj
 0002:fffad000       $unwind$?_Erase@?$_Tree@V?$_Tmap_traits@IUIntAttribute@cldb@@U?$less@I@std@@V?$allocator@U?$pair@$$CBIUIntAttribute@cldb@@@std@@@4@$00@std@@@std@@IEAAXPEAU?$_Tree_node@U?$pair@$$CBIUIntAttribute@cldb@@@std@@PEAX@2@@Z 0000000180000000     clReflectCore:Database.obj
 0002:fffad000       $ip2state$?clear@?$_Tree@V?$_Tmap_traits@IUIntAttribute@cldb@@U?$less@I@std@@V?$allocator@U?$pair@$$CBIUIntAttribute@cldb@@@std@@@4@$00@std@@@std@@QEAAXXZ 0000000180000000     clReflectCore:Database.obj
 0002:fffad000       $cppxdata$?clear@?$_Tree@V?$_Tmap_traits@IUIntAttribute@cldb@@U?$less@I@std@@V?$allocator@U?$pair@$$CBIUIntAttribute@cldb@@@std@@@4@$00@std@@@std@@QEAAXXZ 0000000180000000     clReflectCore:Database.obj
 0004:fff90000       $pdata$?clear@?$_Tree@V?$_Tmap_traits@IUIntAttribute@cldb@@U?$less@I@std@@V?$allocator@U?$pair@$$CBIUIntAttribute@cldb@@@std@@@4@$00@std@@@std@@QEAAXXZ 0000000180000000     clReflectCore:Database.obj
 0002:fffad000       $unwind$?clear@?$_Tree@V?$_Tmap_traits@IUIntAttribute@cldb@@U?$less@I@std@@V?$allocator@U?$pair@$$CBIUIntAttribute@cldb@@@std@@@4@$00@std@@@std@@QEAAXXZ 0000000180000000     clReflectCore:Database.obj
 0004:fff90000       $pdata$?erase@?$_Tree@V?$_Tmap_traits@IUIntAttribute@cldb@@U?$less@I@std@@V?$allocator@U?$pair@$$CBIUIntAttribute@cldb@@@std@@@4@$00@std@@@std@@QEAA?AV?$_Tree_iterator@V?$_Tree_val@U?$_Tree_simple_types@U?$pair@$$CBIUIntAttribute@cldb@@@std@@@std@@@std@@@2@V?$_Tree_const_iterator@V?$_Tree_val@U?$_Tree_simple_types@U?$pair@$$CBIUIntAttribute@cldb@@@std@@@std@@@std@@@2@0@Z 0000000180000000     clReflectCore:Database.obj
 0002:fffad000       $unwind$?erase@?$_Tree@V?$_Tmap_traits@IUIntAttribute@cldb@@U?$less@I@std@@V?$allocator@U?$pair@$$CBIUIntAttribute@cldb@@@std@@@4@$00@std@@@std@@QEAA?AV?$_Tree_iterator@V?$_Tree_val@U?$_Tree_simple_types@U?$pair@$$CBIUIntAttribute@cldb@@@std@@@std@@@std@@@2@V?$_Tree_const_iterator@V?$_Tree_val@U?$_Tree_simple_types@U?$pair@$$CBIUIntAttribute@cldb@@@std@@@std@@@std@@@2@0@Z 0000000180000000     clReflectCore:Database.obj
 0004:fff90000       $pdata$?erase@?$_Tree@V?$_Tmap_traits@IUIntAttribute@cldb@@U?$less@I@std@@V?$allocator@U?$pair@$$CBIUIntAttribute@cldb@@@std@@@4@$00@std@@@std@@QEAA?AV?$_Tree_iterator@V?$_Tree_val@U?$_Tree_simple_types@U?$pair@$$CBIUIntAttribute@cldb@@@std@@@std@@@std@@@2@V?$_Tree_const_iterator@V?$_Tree_val@U?$_Tree_simple_types@U?$pair@$$CBIUIntAttribute@cldb@@@std@@@std@@@std@@@2@@Z 0000000180000000     clReflectCore:Database.obj
 0002:fffad000       $unwind$?erase@?$_Tree@V?$_Tmap_traits@IUIntAttribute@cldb@@U?$less@I@std@@V?$allocator@U?$pair@$$CBIUIntAttribute@cldb@@@std@@@4@$00@std@@@std@@QEAA?AV?$_Tree_iterator@V?$_Tree_val@U?$_Tree_simple_types@U?$pair@$$CBIUIntAttribute@cldb@@@std@@@std@@@std@@@2@V?$_Tree_const_iterator@V?$_Tree_val@U?$_Tree_simple_types@U?$pair@$$CBIUIntAttribute@cldb@@@std@@@std@@@std@@@2@@Z 0000000180000000     clReflectCore:Database.obj
 0004:fff90000       $pdata$?_Extract@?$_Tree_val@U?$_Tree_simple_types@U?$pair@$$CBIUIntAttribute@cldb@@@std@@@std@@@std@@QEAAPEAU?$_Tree_node@U?$pair@$$CBIUIntAttribute@cldb@@@std@@PEAX@2@V?$_Tree_const_iterator@V?$_Tree_val@U?$_Tree_simple_types@U?$pair@$$CBIUIntAttribute@cldb@@@std@@@std@@@std@@@2@@Z 0000000180000000     clReflectCore:Database.obj
 0002:fffad000       $unwind$?_Extract@?$_Tree_val@U?$_Tree_simple_types@U?$pair@$$CBIUIntAttribute@cldb@@@std@@@std@@@std@@QEAAPEAU?$_Tree_node@U?$pair@$$CBIUIntAttribute@cldb@@@std@@PEAX@2@V?$_Tree_const_iterator@V?$_Tree_val@U?$_Tree_simple_types@U?$pair@$$CBIUIntAttribute@cldb@@@std@@@std@@@std@@@2@@Z 0000000180000000     clReflectCore:Database.obj
 0004:fff90000       $pdata$?_Erase@?$_Tree@V?$_Tmap_traits@IUFlagAttribute@cldb@@U?$less@I@std@@V?$allocator@U?$pair@$$CBIUFlagAttribute@cldb@@@std@@@4@$00@std@@@std@@IEAAXPEAU?$_Tree_node@U?$pair@$$CBIUFlagAttribute@cldb@@@std@@PEAX@2@@Z 0000000180000000     clReflectCore:Database.obj
 0002:fffad000       $unwind$?_Erase@?$_Tree@V?$_Tmap_traits@IUFlagAttribute@cldb@@U?$less@I@std@@V?$allocator@U?$pair@$$CBIUFlagAttribute@cldb@@@std@@@4@$00@std@@@std@@IEAAXPEAU?$_Tree_node@U?$pair@$$CBIUFlagAttribute@cldb@@@std@@PEAX@2@@Z 0000000180000000     clReflectCore:Database.obj
 0002:fffad000       $ip2state$?clear@?$_Tree@V?$_Tmap_traits@IUFlagAttribute@cldb@@U?$less@I@std@@V?$allocator@U?$pair@$$CBIUFlagAttribute@cldb@@@std@@@4@$00@std@@@std@@QEAAXXZ 0000000180000000     clReflectCore:Database.obj
 0002:fffad000       $cppxdata$?clear@?$_Tree@V?$_Tmap_traits@IUFlagAttribute@cldb@@U?$less@I@std@@V?$allocator@U?$pair@$$CBIUFlagAttribute@cldb@@@std@@@4@$00@std@@@std@@QEAAXXZ 0000000180000000     clReflectCore:Database.obj
 0004:fff90000       $pdata$?clear@?$_Tree@V?$_Tmap_traits@IUFlagAttribute@cldb@@U?$less@I@std@@V?$allocator@U?$pair@$$CBIUFlagAttribute@cldb@@@std@@@4@$00@std@@@std@@QEAAXXZ 0000000180000000     clReflectCore:Database.obj
 0004:fff90000       $pdata$?erase@?$_Tree@V?$_Tmap_traits@IUFlagAttribute@cldb@@U?$less@I@std@@V?$allocator@U?$pair@$$CBIUFlagAttribute@cldb@@@std@@@4@$00@std@@@std@@QEAA?AV?$_Tree_iterator@V?$_Tree_val@U?$_Tree_simple_types@U?$pair@$$CBIUFlagAttribute@cldb@@@std@@@std@@@std@@@2@V?$_Tree_const_iterator@V?$_Tree_val@U?$_Tree_simple_types@U?$pair@$$CBIUFlagAttribute@cldb@@@std@@@std@@@std@@@2@0@Z 0000000180000000     clReflectCore:Database.obj
 0002:fffad000       $unwind$?erase@?$_Tree@V?$_Tmap_traits@IUFlagAttribute@cldb@@U?$less@I@std@@V?$allocator@U?$pair@$$CBIUFlagAttribute@cldb@@@std@@@4@$00@std@@@std@@QEAA?AV?$_Tree_iterator@V?$_Tree_val@U?$_Tree_simple_types@U?$pair@$$CBIUFlagAttribute@cldb@@@std@@@std@@@std@@@2@V?$_Tree_const_iterator@V?$_Tree_val@U?$_Tree_simple_types@U?$pair@$$CBIUFlagAttribute@cldb@@@std@@@std@@@std@@@2@0@Z 0000000180000000     clReflectCore:Database.obj
 0004:fff90000       $pdata$?erase@?$_Tree@V?$_Tmap_traits@IUFlagAttribute@cldb@@U?$less@I@std@@V?$allocator@U?$pair@$$CBIUFlagAttribute@cldb@@@std@@@4@$00@std@@@std@@QEAA?AV?$_Tree_iterator@V?$_Tree_val@U?$_Tree_simple_types@U?$pair@$$CBIUFlagAttribute@cldb@@@std@@@std@@@std@@@2@V?$_Tree_const_iterator@V?$_Tree_val@U?$_Tree_simple_types@U?$pair@$$CBIUFlagAttribute@cldb@@@std@@@std@@@std@@@2@@Z 0000000180000000     clReflectCore:Database.obj
 0002:fffad000       $unwind$?erase@?$_Tree@V?$_Tmap_traits@IUFlagAttribute@cldb@@U?$less@I@std@@V?$allocator@U?$pair@$$CBIUFlagAttribute@cldb@@@std@@@4@$00@std@@@std@@QEAA?AV?$_Tree_iterator@V?$_Tree_val@U?$_Tree_simple_types@U?$pair@$$CBIUFlagAttribute@cldb@@@std@@@std@@@std@@@2@V?$_Tree_const_iterator@V?$_Tree_val@U?$_Tree_simple_types@U?$pair@$$CBIUFlagAttribute@cldb@@@std@@@std@@@std@@@2@@Z 0000000180000000     clReflectCore:Database.obj
 0004:fff90000       $pdata$?_Extract@?$_Tree_val@U?$_Tree_simple_types@U?$pair@$$CBIUFlagAttribute@cldb@@@std@@@std@@@std@@QEAAPEAU?$_Tree_node@U?$pair@$$CBIUFlagAttribute@cldb@@@std@@PEAX@2@V?$_Tree_const_iterator@V?$_Tree_val@U?$_Tree_simple_types@U?$pair@$$CBIUFlagAttribute@cldb@@@std@@@std@@@std@@@2@@Z 0000000180000000     clReflectCore:Database.obj
 0002:fffad000       $unwind$?_Extract@?$_Tree_val@U?$_Tree_simple_types@U?$pair@$$CBIUFlagAttribute@cldb@@@std@@@std@@@std@@QEAAPEAU?$_Tree_node@U?$pair@$$CBIUFlagAttribute@cldb@@@std@@PEAX@2@V?$_Tree_const_iterator@V?$_Tree_val@U?$_Tree_simple_types@U?$pair@$$CBIUFlagAttribute@cldb@@@std@@@std@@@std@@@2@@Z 0000000180000000     clReflectCore:Database.obj
 0004:fff90000       $pdata$?_Erase@?$_Tree@V?$_Tmap_traits@IUField@cldb@@U?$less@I@std@@V?$allocator@U?$pair@$$CBIUField@cldb@@@std@@@4@$00@std@@@std@@IEAAXPEAU?$_Tree_node@U?$pair@$$CBIUField@cldb@@@std@@PEAX@2@@Z 0000000180000000     clReflectCore:Database.obj
 0002:fffad000       $unwind$?_Erase@?$_Tree@V?$_Tmap_traits@IUField@cldb@@U?$less@I@std@@V?$allocator@U?$pair@$$CBIUField@cldb@@@std@@@4@$00@std@@@std@@IEAAXPEAU?$_Tree_node@U?$pair@$$CBIUField@cldb@@@std@@PEAX@2@@Z 0000000180000000     clReflectCore:Database.obj
 0002:fffad000       $ip2state$?clear@?$_Tree@V?$_Tmap_traits@IUField@cldb@@U?$less@I@std@@V?$allocator@U?$pair@$$CBIUField@cldb@@@std@@@4@$00@std@@@std@@QEAAXXZ 0000000180000000     clReflectCore:Database.obj
 0002:fffad000       $cppxdata$?clear@?$_Tree@V?$_Tmap_traits@IUField@cldb@@U?$less@I@std@@V?$allocator@U?$pair@$$CBIUField@cldb@@@std@@@4@$00@std@@@std@@QEAAXXZ 0000000180000000     clReflectCore:Database.obj
 0004:fff90000       $pdata$?clear@?$_Tree@V?$_Tmap_traits@IUField@cldb@@U?$less@I@std@@V?$allocator@U?$pair@$$CBIUField@cldb@@@std@@@4@$00@std@@@std@@QEAAXXZ 0000000180000000     clReflectCore:Database.obj
 0002:fffad000       $unwind$?clear@?$_Tree@V?$_Tmap_traits@IUField@cldb@@U?$less@I@std@@V?$allocator@U?$pair@$$CBIUField@cldb@@@std@@@4@$00@std@@@std@@QEAAXXZ 0000000180000000     clReflectCore:Database.obj
 0004:fff90000       $pdata$?erase@?$_Tree@V?$_Tmap_traits@IUField@cldb@@U?$less@I@std@@V?$allocator@U?$pair@$$CBIUField@cldb@@@std@@@4@$00@std@@@std@@QEAA?AV?$_Tree_iterator@V?$_Tree_val@U?$_Tree_simple_types@U?$pair@$$CBIUField@cldb@@@std@@@std@@@std@@@2@V?$_Tree_const_iterator@V?$_Tree_val@U?$_Tree_simple_types@U?$pair@$$CBIUField@cldb@@@std@@@std@@@std@@@2@0@Z 0000000180000000     clReflectCore:Database.obj
 0002:fffad000       $unwind$?erase@?$_Tree@V?$_Tmap_traits@IUField@cldb@@U?$less@I@std@@V?$allocator@U?$pair@$$CBIUField@cldb@@@std@@@4@$00@std@@@std@@QEAA?AV?$_Tree_iterator@V?$_Tree_val@U?$_Tree_simple_types@U?$pair@$$CBIUField@cldb@@@std@@@std@@@std@@@2@V?$_Tree_const_iterator@V?$_Tree_val@U?$_Tree_simple_types@U?$pair@$$CBIUField@cldb@@@std@@@std@@@std@@@2@0@Z 0000000180000000     clReflectCore:Database.obj
 0004:fff90000       $pdata$?erase@?$_Tree@V?$_Tmap_traits@IUField@cldb@@U?$less@I@std@@V?$allocator@U?$pair@$$CBIUField@cldb@@@std@@@4@$00@std@@@std@@QEAA?AV?$_Tree_iterator@V?$_Tree_val@U?$_Tree_simple_types@U?$pair@$$CBIUField@cldb@@@std@@@std@@@std@@@2@V?$_Tree_const_iterator@V?$_Tree_val@U?$_Tree_simple_types@U?$pair@$$CBIUField@cldb@@@std@@@std@@@std@@@2@@Z 0000000180000000     clReflectCore:Database.obj
 0002:fffad000       $unwind$?erase@?$_Tree@V?$_Tmap_traits@IUField@cldb@@U?$less@I@std@@V?$allocator@U?$pair@$$CBIUField@cldb@@@std@@@4@$00@std@@@std@@QEAA?AV?$_Tree_iterator@V?$_Tree_val@U?$_Tree_simple_types@U?$pair@$$CBIUField@cldb@@@std@@@std@@@std@@@2@V?$_Tree_const_iterator@V?$_Tree_val@U?$_Tree_simple_types@U?$pair@$$CBIUField@cldb@@@std@@@std@@@std@@@2@@Z 0000000180000000     clReflectCore:Database.obj
 0004:fff90000       $pdata$?_Extract@?$_Tree_val@U?$_Tree_simple_types@U?$pair@$$CBIUField@cldb@@@std@@@std@@@std@@QEAAPEAU?$_Tree_node@U?$pair@$$CBIUField@cldb@@@std@@PEAX@2@V?$_Tree_const_iterator@V?$_Tree_val@U?$_Tree_simple_types@U?$pair@$$CBIUField@cldb@@@std@@@std@@@std@@@2@@Z 0000000180000000     clReflectCore:Database.obj
 0002:fffad000       $unwind$?_Extract@?$_Tree_val@U?$_Tree_simple_types@U?$pair@$$CBIUField@cldb@@@std@@@std@@@std@@QEAAPEAU?$_Tree_node@U?$pair@$$CBIUField@cldb@@@std@@PEAX@2@V?$_Tree_const_iterator@V?$_Tree_val@U?$_Tree_simple_types@U?$pair@$$CBIUField@cldb@@@std@@@std@@@std@@@2@@Z 0000000180000000     clReflectCore:Database.obj
 0004:fff90000       $pdata$?deallocate@?$allocator@U?$_Tree_node@U?$pair@$$CBIUField@cldb@@@std@@PEAX@std@@@std@@QEAAXQEAU?$_Tree_node@U?$pair@$$CBIUField@cldb@@@std@@PEAX@2@_K@Z 0000000180000000     clReflectCore:Database.obj
 0002:fffad000       $unwind$?deallocate@?$allocator@U?$_Tree_node@U?$pair@$$CBIUField@cldb@@@std@@PEAX@std@@@std@@QEAAXQEAU?$_Tree_node@U?$pair@$$CBIUField@cldb@@@std@@PEAX@2@_K@Z 0000000180000000     clReflectCore:Database.obj
 0004:fff90000       $pdata$?_Erase@?$_Tree@V?$_Tmap_traits@IUFunction@cldb@@U?$less@I@std@@V?$allocator@U?$pair@$$CBIUFunction@cldb@@@std@@@4@$00@std@@@std@@IEAAXPEAU?$_Tree_node@U?$pair@$$CBIUFunction@cldb@@@std@@PEAX@2@@Z 0000000180000000     clReflectCore:Database.obj
 0002:fffad000       $unwind$?_Erase@?$_Tree@V?$_Tmap_traits@IUFunction@cldb@@U?$less@I@std@@V?$allocator@U?$pair@$$CBIUFunction@cldb@@@std@@@4@$00@std@@@std@@IEAAXPEAU?$_Tree_node@U?$pair@$$CBIUFunction@cldb@@@std@@PEAX@2@@Z 0000000180000000     clReflectCore:Database.obj
 0002:fffad000       $ip2state$?clear@?$_Tree@V?$_Tmap_traits@IUFunction@cldb@@U?$less@I@std@@V?$allocator@U?$pair@$$CBIUFunction@cldb@@@std@@@4@$00@std@@@std@@QEAAXXZ 0000000180000000     clReflectCore:Database.obj
 0002:fffad000       $cppxdata$?clear@?$_Tree@V?$_Tmap_traits@IUFunction@cldb@@U?$less@I@std@@V?$allocator@U?$pair@$$CBIUFunction@cldb@@@std@@@4@$00@std@@@std@@QEAAXXZ 0000000180000000     clReflectCore:Database.obj
 0004:fff90000       $pdata$?clear@?$_Tree@V?$_Tmap_traits@IUFunction@cldb@@U?$less@I@std@@V?$allocator@U?$pair@$$CBIUFunction@cldb@@@std@@@4@$00@std@@@std@@QEAAXXZ 0000000180000000     clReflectCore:Database.obj
 0002:fffad000       $unwind$?clear@?$_Tree@V?$_Tmap_traits@IUFunction@cldb@@U?$less@I@std@@V?$allocator@U?$pair@$$CBIUFunction@cldb@@@std@@@4@$00@std@@@std@@QEAAXXZ 0000000180000000     clReflectCore:Database.obj
 0004:fff90000       $pdata$?erase@?$_Tree@V?$_Tmap_traits@IUFunction@cldb@@U?$less@I@std@@V?$allocator@U?$pair@$$CBIUFunction@cldb@@@std@@@4@$00@std@@@std@@QEAA?AV?$_Tree_iterator@V?$_Tree_val@U?$_Tree_simple_types@U?$pair@$$CBIUFunction@cldb@@@std@@@std@@@std@@@2@V?$_Tree_const_iterator@V?$_Tree_val@U?$_Tree_simple_types@U?$pair@$$CBIUFunction@cldb@@@std@@@std@@@std@@@2@0@Z 0000000180000000     clReflectCore:Database.obj
 0002:fffad000       $unwind$?erase@?$_Tree@V?$_Tmap_traits@IUFunction@cldb@@U?$less@I@std@@V?$allocator@U?$pair@$$CBIUFunction@cldb@@@std@@@4@$00@std@@@std@@QEAA?AV?$_Tree_iterator@V?$_Tree_val@U?$_Tree_simple_types@U?$pair@$$CBIUFunction@cldb@@@std@@@std@@@std@@@2@V?$_Tree_const_iterator@V?$_Tree_val@U?$_Tree_simple_types@U?$pair@$$CBIUFunction@cldb@@@std@@@std@@@std@@@2@0@Z 0000000180000000     clReflectCore:Database.obj
 0004:fff90000       $pdata$?erase@?$_Tree@V?$_Tmap_traits@IUFunction@cldb@@U?$less@I@std@@V?$allocator@U?$pair@$$CBIUFunction@cldb@@@std@@@4@$00@std@@@std@@QEAA?AV?$_Tree_iterator@V?$_Tree_val@U?$_Tree_simple_types@U?$pair@$$CBIUFunction@cldb@@@std@@@std@@@std@@@2@V?$_Tree_const_iterator@V?$_Tree_val@U?$_Tree_simple_types@U?$pair@$$CBIUFunction@cldb@@@std@@@std@@@std@@@2@@Z 0000000180000000     clReflectCore:Database.obj
 0002:fffad000       $unwind$?erase@?$_Tree@V?$_Tmap_traits@IUFunction@cldb@@U?$less@I@std@@V?$allocator@U?$pair@$$CBIUFunction@cldb@@@std@@@4@$00@std@@@std@@QEAA?AV?$_Tree_iterator@V?$_Tree_val@U?$_Tree_simple_types@U?$pair@$$CBIUFunction@cldb@@@std@@@std@@@std@@@2@V?$_Tree_const_iterator@V?$_Tree_val@U?$_Tree_simple_types@U?$pair@$$CBIUFunction@cldb@@@std@@@std@@@std@@@2@@Z 0000000180000000     clReflectCore:Database.obj
 0004:fff90000       $pdata$?_Extract@?$_Tree_val@U?$_Tree_simple_types@U?$pair@$$CBIUFunction@cldb@@@std@@@std@@@std@@QEAAPEAU?$_Tree_node@U?$pair@$$CBIUFunction@cldb@@@std@@PEAX@2@V?$_Tree_const_iterator@V?$_Tree_val@U?$_Tree_simple_types@U?$pair@$$CBIUFunction@cldb@@@std@@@std@@@std@@@2@@Z 0000000180000000     clReflectCore:Database.obj
 0002:fffad000       $unwind$?_Extract@?$_Tree_val@U?$_Tree_simple_types@U?$pair@$$CBIUFunction@cldb@@@std@@@std@@@std@@QEAAPEAU?$_Tree_node@U?$pair@$$CBIUFunction@cldb@@@std@@PEAX@2@V?$_Tree_const_iterator@V?$_Tree_val@U?$_Tree_simple_types@U?$pair@$$CBIUFunction@cldb@@@std@@@std@@@std@@@2@@Z 0000000180000000     clReflectCore:Database.obj
 0004:fff90000       $pdata$?deallocate@?$allocator@U?$_Tree_node@U?$pair@$$CBIUFunction@cldb@@@std@@PEAX@std@@@std@@QEAAXQEAU?$_Tree_node@U?$pair@$$CBIUFunction@cldb@@@std@@PEAX@2@_K@Z 0000000180000000     clReflectCore:Database.obj
 0002:fffad000       $unwind$?deallocate@?$allocator@U?$_Tree_node@U?$pair@$$CBIUFunction@cldb@@@std@@PEAX@std@@@std@@QEAAXQEAU?$_Tree_node@U?$pair@$$CBIUFunction@cldb@@@std@@PEAX@2@_K@Z 0000000180000000     clReflectCore:Database.obj
 0004:fff90000       $pdata$?_Erase@?$_Tree@V?$_Tmap_traits@IUEnumConstant@cldb@@U?$less@I@std@@V?$allocator@U?$pair@$$CBIUEnumConstant@cldb@@@std@@@4@$00@std@@@std@@IEAAXPEAU?$_Tree_node@U?$pair@$$CBIUEnumConstant@cldb@@@std@@PEAX@2@@Z 0000000180000000     clReflectCore:Database.obj
 0002:fffad000       $unwind$?_Erase@?$_Tree@V?$_Tmap_traits@IUEnumConstant@cldb@@U?$less@I@std@@V?$allocator@U?$pair@$$CBIUEnumConstant@cldb@@@std@@@4@$00@std@@@std@@IEAAXPEAU?$_Tree_node@U?$pair@$$CBIUEnumConstant@cldb@@@std@@PEAX@2@@Z 0000000180000000     clReflectCore:Database.obj
 0002:fffad000       $ip2state$?clear@?$_Tree@V?$_Tmap_traits@IUEnumConstant@cldb@@U?$less@I@std@@V?$allocator@U?$pair@$$CBIUEnumConstant@cldb@@@std@@@4@$00@std@@@std@@QEAAXXZ 0000000180000000     clReflectCore:Database.obj
 0002:fffad000       $cppxdata$?clear@?$_Tree@V?$_Tmap_traits@IUEnumConstant@cldb@@U?$less@I@std@@V?$allocator@U?$pair@$$CBIUEnumConstant@cldb@@@std@@@4@$00@std@@@std@@QEAAXXZ 0000000180000000     clReflectCore:Database.obj
 0004:fff90000       $pdata$?clear@?$_Tree@V?$_Tmap_traits@IUEnumConstant@cldb@@U?$less@I@std@@V?$allocator@U?$pair@$$CBIUEnumConstant@cldb@@@std@@@4@$00@std@@@std@@QEAAXXZ 0000000180000000     clReflectCore:Database.obj
 0002:fffad000       $unwind$?clear@?$_Tree@V?$_Tmap_traits@IUEnumConstant@cldb@@U?$less@I@std@@V?$allocator@U?$pair@$$CBIUEnumConstant@cldb@@@std@@@4@$00@std@@@std@@QEAAXXZ 0000000180000000     clReflectCore:Database.obj
 0004:fff90000       $pdata$?erase@?$_Tree@V?$_Tmap_traits@IUEnumConstant@cldb@@U?$less@I@std@@V?$allocator@U?$pair@$$CBIUEnumConstant@cldb@@@std@@@4@$00@std@@@std@@QEAA?AV?$_Tree_iterator@V?$_Tree_val@U?$_Tree_simple_types@U?$pair@$$CBIUEnumConstant@cldb@@@std@@@std@@@std@@@2@V?$_Tree_const_iterator@V?$_Tree_val@U?$_Tree_simple_types@U?$pair@$$CBIUEnumConstant@cldb@@@std@@@std@@@std@@@2@0@Z 0000000180000000     clReflectCore:Database.obj
 0002:fffad000       $unwind$?erase@?$_Tree@V?$_Tmap_traits@IUEnumConstant@cldb@@U?$less@I@std@@V?$allocator@U?$pair@$$CBIUEnumConstant@cldb@@@std@@@4@$00@std@@@std@@QEAA?AV?$_Tree_iterator@V?$_Tree_val@U?$_Tree_simple_types@U?$pair@$$CBIUEnumConstant@cldb@@@std@@@std@@@std@@@2@V?$_Tree_const_iterator@V?$_Tree_val@U?$_Tree_simple_types@U?$pair@$$CBIUEnumConstant@cldb@@@std@@@std@@@std@@@2@0@Z 0000000180000000     clReflectCore:Database.obj
 0004:fff90000       $pdata$?erase@?$_Tree@V?$_Tmap_traits@IUEnumConstant@cldb@@U?$less@I@std@@V?$allocator@U?$pair@$$CBIUEnumConstant@cldb@@@std@@@4@$00@std@@@std@@QEAA?AV?$_Tree_iterator@V?$_Tree_val@U?$_Tree_simple_types@U?$pair@$$CBIUEnumConstant@cldb@@@std@@@std@@@std@@@2@V?$_Tree_const_iterator@V?$_Tree_val@U?$_Tree_simple_types@U?$pair@$$CBIUEnumConstant@cldb@@@std@@@std@@@std@@@2@@Z 0000000180000000     clReflectCore:Database.obj
 0002:fffad000       $unwind$?erase@?$_Tree@V?$_Tmap_traits@IUEnumConstant@cldb@@U?$less@I@std@@V?$allocator@U?$pair@$$CBIUEnumConstant@cldb@@@std@@@4@$00@std@@@std@@QEAA?AV?$_Tree_iterator@V?$_Tree_val@U?$_Tree_simple_types@U?$pair@$$CBIUEnumConstant@cldb@@@std@@@std@@@std@@@2@V?$_Tree_const_iterator@V?$_Tree_val@U?$_Tree_simple_types@U?$pair@$$CBIUEnumConstant@cldb@@@std@@@std@@@std@@@2@@Z 0000000180000000     clReflectCore:Database.obj
 0004:fff90000       $pdata$?_Extract@?$_Tree_val@U?$_Tree_simple_types@U?$pair@$$CBIUEnumConstant@cldb@@@std@@@std@@@std@@QEAAPEAU?$_Tree_node@U?$pair@$$CBIUEnumConstant@cldb@@@std@@PEAX@2@V?$_Tree_const_iterator@V?$_Tree_val@U?$_Tree_simple_types@U?$pair@$$CBIUEnumConstant@cldb@@@std@@@std@@@std@@@2@@Z 0000000180000000     clReflectCore:Database.obj
 0002:fffad000       $unwind$?_Extract@?$_Tree_val@U?$_Tree_simple_types@U?$pair@$$CBIUEnumConstant@cldb@@@std@@@std@@@std@@QEAAPEAU?$_Tree_node@U?$pair@$$CBIUEnumConstant@cldb@@@std@@PEAX@2@V?$_Tree_const_iterator@V?$_Tree_val@U?$_Tree_simple_types@U?$pair@$$CBIUEnumConstant@cldb@@@std@@@std@@@std@@@2@@Z 0000000180000000     clReflectCore:Database.obj
 0004:fff90000       $pdata$?_Erase@?$_Tree@V?$_Tmap_traits@IUEnum@cldb@@U?$less@I@std@@V?$allocator@U?$pair@$$CBIUEnum@cldb@@@std@@@4@$00@std@@@std@@IEAAXPEAU?$_Tree_node@U?$pair@$$CBIUEnum@cldb@@@std@@PEAX@2@@Z 0000000180000000     clReflectCore:Database.obj
 0002:fffad000       $unwind$?_Erase@?$_Tree@V?$_Tmap_traits@IUEnum@cldb@@U?$less@I@std@@V?$allocator@U?$pair@$$CBIUEnum@cldb@@@std@@@4@$00@std@@@std@@IEAAXPEAU?$_Tree_node@U?$pair@$$CBIUEnum@cldb@@@std@@PEAX@2@@Z 0000000180000000     clReflectCore:Database.obj
 0002:fffad000       $ip2state$?clear@?$_Tree@V?$_Tmap_traits@IUEnum@cldb@@U?$less@I@std@@V?$allocator@U?$pair@$$CBIUEnum@cldb@@@std@@@4@$00@std@@@std@@QEAAXXZ 0000000180000000     clReflectCore:Database.obj
 0002:fffad000       $cppxdata$?clear@?$_Tree@V?$_Tmap_traits@IUEnum@cldb@@U?$less@I@std@@V?$allocator@U?$pair@$$CBIUEnum@cldb@@@std@@@4@$00@std@@@std@@QEAAXXZ 0000000180000000     clReflectCore:Database.obj
 0004:fff90000       $pdata$?clear@?$_Tree@V?$_Tmap_traits@IUEnum@cldb@@U?$less@I@std@@V?$allocator@U?$pair@$$CBIUEnum@cldb@@@std@@@4@$00@std@@@std@@QEAAXXZ 0000000180000000     clReflectCore:Database.obj
 0002:fffad000       $unwind$?clear@?$_Tree@V?$_Tmap_traits@IUEnum@cldb@@U?$less@I@std@@V?$allocator@U?$pair@$$CBIUEnum@cldb@@@std@@@4@$00@std@@@std@@QEAAXXZ 0000000180000000     clReflectCore:Database.obj
 0004:fff90000       $pdata$?erase@?$_Tree@V?$_Tmap_traits@IUEnum@cldb@@U?$less@I@std@@V?$allocator@U?$pair@$$CBIUEnum@cldb@@@std@@@4@$00@std@@@std@@QEAA?AV?$_Tree_iterator@V?$_Tree_val@U?$_Tree_simple_types@U?$pair@$$CBIUEnum@cldb@@@std@@@std@@@std@@@2@V?$_Tree_const_iterator@V?$_Tree_val@U?$_Tree_simple_types@U?$pair@$$CBIUEnum@cldb@@@std@@@std@@@std@@@2@0@Z 0000000180000000     clReflectCore:Database.obj
 0002:fffad000       $unwind$?erase@?$_Tree@V?$_Tmap_traits@IUEnum@cldb@@U?$less@I@std@@V?$allocator@U?$pair@$$CBIUEnum@cldb@@@std@@@4@$00@std@@@std@@QEAA?AV?$_Tree_iterator@V?$_Tree_val@U?$_Tree_simple_types@U?$pair@$$CBIUEnum@cldb@@@std@@@std@@@std@@@2@V?$_Tree_const_iterator@V?$_Tree_val@U?$_Tree_simple_types@U?$pair@$$CBIUEnum@cldb@@@std@@@std@@@std@@@2@0@Z 0000000180000000     clReflectCore:Database.obj
 0004:fff90000       $pdata$?erase@?$_Tree@V?$_Tmap_traits@IUEnum@cldb@@U?$less@I@std@@V?$allocator@U?$pair@$$CBIUEnum@cldb@@@std@@@4@$00@std@@@std@@QEAA?AV?$_Tree_iterator@V?$_Tree_val@U?$_Tree_simple_types@U?$pair@$$CBIUEnum@cldb@@@std@@@std@@@std@@@2@V?$_Tree_const_iterator@V?$_Tree_val@U?$_Tree_simple_types@U?$pair@$$CBIUEnum@cldb@@@std@@@std@@@std@@@2@@Z 0000000180000000     clReflectCore:Database.obj
 0002:fffad000       $unwind$?erase@?$_Tree@V?$_Tmap_traits@IUEnum@cldb@@U?$less@I@std@@V?$allocator@U?$pair@$$CBIUEnum@cldb@@@std@@@4@$00@std@@@std@@QEAA?AV?$_Tree_iterator@V?$_Tree_val@U?$_Tree_simple_types@U?$pair@$$CBIUEnum@cldb@@@std@@@std@@@std@@@2@V?$_Tree_const_iterator@V?$_Tree_val@U?$_Tree_simple_types@U?$pair@$$CBIUEnum@cldb@@@std@@@std@@@std@@@2@@Z 0000000180000000     clReflectCore:Database.obj
 0004:fff90000       $pdata$?_Extract@?$_Tree_val@U?$_Tree_simple_types@U?$pair@$$CBIUEnum@cldb@@@std@@@std@@@std@@QEAAPEAU?$_Tree_node@U?$pair@$$CBIUEnum@cldb@@@std@@PEAX@2@V?$_Tree_const_iterator@V?$_Tree_val@U?$_Tree_simple_types@U?$pair@$$CBIUEnum@cldb@@@std@@@std@@@std@@@2@@Z 0000000180000000     clReflectCore:Database.obj
 0002:fffad000       $unwind$?_Extract@?$_Tree_val@U?$_Tree_simple_types@U?$pair@$$CBIUEnum@cldb@@@std@@@std@@@std@@QEAAPEAU?$_Tree_node@U?$pair@$$CBIUEnum@cldb@@@std@@PEAX@2@V?$_Tree_const_iterator@V?$_Tree_val@U?$_Tree_simple_types@U?$pair@$$CBIUEnum@cldb@@@std@@@std@@@std@@@2@@Z 0000000180000000     clReflectCore:Database.obj
 0004:fff90000       $pdata$?_Erase@?$_Tree@V?$_Tmap_traits@IUClass@cldb@@U?$less@I@std@@V?$allocator@U?$pair@$$CBIUClass@cldb@@@std@@@4@$00@std@@@std@@IEAAXPEAU?$_Tree_node@U?$pair@$$CBIUClass@cldb@@@std@@PEAX@2@@Z 0000000180000000     clReflectCore:Database.obj
 0002:fffad000       $unwind$?_Erase@?$_Tree@V?$_Tmap_traits@IUClass@cldb@@U?$less@I@std@@V?$allocator@U?$pair@$$CBIUClass@cldb@@@std@@@4@$00@std@@@std@@IEAAXPEAU?$_Tree_node@U?$pair@$$CBIUClass@cldb@@@std@@PEAX@2@@Z 0000000180000000     clReflectCore:Database.obj
 0002:fffad000       $ip2state$?clear@?$_Tree@V?$_Tmap_traits@IUClass@cldb@@U?$less@I@std@@V?$allocator@U?$pair@$$CBIUClass@cldb@@@std@@@4@$00@std@@@std@@QEAAXXZ 0000000180000000     clReflectCore:Database.obj
 0002:fffad000       $cppxdata$?clear@?$_Tree@V?$_Tmap_traits@IUClass@cldb@@U?$less@I@std@@V?$allocator@U?$pair@$$CBIUClass@cldb@@@std@@@4@$00@std@@@std@@QEAAXXZ 0000000180000000     clReflectCore:Database.obj
 0004:fff90000       $pdata$?clear@?$_Tree@V?$_Tmap_traits@IUClass@cldb@@U?$less@I@std@@V?$allocator@U?$pair@$$CBIUClass@cldb@@@std@@@4@$00@std@@@std@@QEAAXXZ 0000000180000000     clReflectCore:Database.obj
 0002:fffad000       $unwind$?clear@?$_Tree@V?$_Tmap_traits@IUClass@cldb@@U?$less@I@std@@V?$allocator@U?$pair@$$CBIUClass@cldb@@@std@@@4@$00@std@@@std@@QEAAXXZ 0000000180000000     clReflectCore:Database.obj
 0004:fff90000       $pdata$?erase@?$_Tree@V?$_Tmap_traits@IUClass@cldb@@U?$less@I@std@@V?$allocator@U?$pair@$$CBIUClass@cldb@@@std@@@4@$00@std@@@std@@QEAA?AV?$_Tree_iterator@V?$_Tree_val@U?$_Tree_simple_types@U?$pair@$$CBIUClass@cldb@@@std@@@std@@@std@@@2@V?$_Tree_const_iterator@V?$_Tree_val@U?$_Tree_simple_types@U?$pair@$$CBIUClass@cldb@@@std@@@std@@@std@@@2@0@Z 0000000180000000     clReflectCore:Database.obj
 0002:fffad000       $unwind$?erase@?$_Tree@V?$_Tmap_traits@IUClass@cldb@@U?$less@I@std@@V?$allocator@U?$pair@$$CBIUClass@cldb@@@std@@@4@$00@std@@@std@@QEAA?AV?$_Tree_iterator@V?$_Tree_val@U?$_Tree_simple_types@U?$pair@$$CBIUClass@cldb@@@std@@@std@@@std@@@2@V?$_Tree_const_iterator@V?$_Tree_val@U?$_Tree_simple_types@U?$pair@$$CBIUClass@cldb@@@std@@@std@@@std@@@2@0@Z 0000000180000000     clReflectCore:Database.obj
 0004:fff90000       $pdata$?erase@?$_Tree@V?$_Tmap_traits@IUClass@cldb@@U?$less@I@std@@V?$allocator@U?$pair@$$CBIUClass@cldb@@@std@@@4@$00@std@@@std@@QEAA?AV?$_Tree_iterator@V?$_Tree_val@U?$_Tree_simple_types@U?$pair@$$CBIUClass@cldb@@@std@@@std@@@std@@@2@V?$_Tree_const_iterator@V?$_Tree_val@U?$_Tree_simple_types@U?$pair@$$CBIUClass@cldb@@@std@@@std@@@std@@@2@@Z 0000000180000000     clReflectCore:Database.obj
 0002:fffad000       $unwind$?erase@?$_Tree@V?$_Tmap_traits@IUClass@cldb@@U?$less@I@std@@V?$allocator@U?$pair@$$CBIUClass@cldb@@@std@@@4@$00@std@@@std@@QEAA?AV?$_Tree_iterator@V?$_Tree_val@U?$_Tree_simple_types@U?$pair@$$CBIUClass@cldb@@@std@@@std@@@std@@@2@V?$_Tree_const_iterator@V?$_Tree_val@U?$_Tree_simple_types@U?$pair@$$CBIUClass@cldb@@@std@@@std@@@std@@@2@@Z 0000000180000000     clReflectCore:Database.obj
 0004:fff90000       $pdata$?_Extract@?$_Tree_val@U?$_Tree_simple_types@U?$pair@$$CBIUClass@cldb@@@std@@@std@@@std@@QEAAPEAU?$_Tree_node@U?$pair@$$CBIUClass@cldb@@@std@@PEAX@2@V?$_Tree_const_iterator@V?$_Tree_val@U?$_Tree_simple_types@U?$pair@$$CBIUClass@cldb@@@std@@@std@@@std@@@2@@Z 0000000180000000     clReflectCore:Database.obj
 0002:fffad000       $unwind$?_Extract@?$_Tree_val@U?$_Tree_simple_types@U?$pair@$$CBIUClass@cldb@@@std@@@std@@@std@@QEAAPEAU?$_Tree_node@U?$pair@$$CBIUClass@cldb@@@std@@PEAX@2@V?$_Tree_const_iterator@V?$_Tree_val@U?$_Tree_simple_types@U?$pair@$$CBIUClass@cldb@@@std@@@std@@@std@@@2@@Z 0000000180000000     clReflectCore:Database.obj
 0002:fffad000       $ip2state$?_Erase@?$_Tree@V?$_Tmap_traits@IUTemplateType@cldb@@U?$less@I@std@@V?$allocator@U?$pair@$$CBIUTemplateType@cldb@@@std@@@4@$00@std@@@std@@IEAAXPEAU?$_Tree_node@U?$pair@$$CBIUTemplateType@cldb@@@std@@PEAX@2@@Z 0000000180000000     clReflectCore:Database.obj
 0002:fffad000       $stateUnwindMap$?_Erase@?$_Tree@V?$_Tmap_traits@IUTemplateType@cldb@@U?$less@I@std@@V?$allocator@U?$pair@$$CBIUTemplateType@cldb@@@std@@@4@$00@std@@@std@@IEAAXPEAU?$_Tree_node@U?$pair@$$CBIUTemplateType@cldb@@@std@@PEAX@2@@Z 0000000180000000     clReflectCore:Database.obj
 0002:fffad000       $cppxdata$?_Erase@?$_Tree@V?$_Tmap_traits@IUTemplateType@cldb@@U?$less@I@std@@V?$allocator@U?$pair@$$CBIUTemplateType@cldb@@@std@@@4@$00@std@@@std@@IEAAXPEAU?$_Tree_node@U?$pair@$$CBIUTemplateType@cldb@@@std@@PEAX@2@@Z 0000000180000000     clReflectCore:Database.obj
 0004:fff90000       $pdata$?_Erase@?$_Tree@V?$_Tmap_traits@IUTemplateType@cldb@@U?$less@I@std@@V?$allocator@U?$pair@$$CBIUTemplateType@cldb@@@std@@@4@$00@std@@@std@@IEAAXPEAU?$_Tree_node@U?$pair@$$CBIUTemplateType@cldb@@@std@@PEAX@2@@Z 0000000180000000     clReflectCore:Database.obj
 0002:fffad000       $unwind$?_Erase@?$_Tree@V?$_Tmap_traits@IUTemplateType@cldb@@U?$less@I@std@@V?$allocator@U?$pair@$$CBIUTemplateType@cldb@@@std@@@4@$00@std@@@std@@IEAAXPEAU?$_Tree_node@U?$pair@$$CBIUTemplateType@cldb@@@std@@PEAX@2@@Z 0000000180000000     clReflectCore:Database.obj
 0002:fffad000       $ip2state$?erase@?$_Tree@V?$_Tmap_traits@IUTemplateType@cldb@@U?$less@I@std@@V?$allocator@U?$pair@$$CBIUTemplateType@cldb@@@std@@@4@$00@std@@@std@@QEAA?AV?$_Tree_iterator@V?$_Tree_val@U?$_Tree_simple_types@U?$pair@$$CBIUTemplateType@cldb@@@std@@@std@@@std@@@2@V?$_Tree_const_iterator@V?$_Tree_val@U?$_Tree_simple_types@U?$pair@$$CBIUTemplateType@cldb@@@std@@@std@@@std@@@2@0@Z 0000000180000000     clReflectCore:Database.obj
 0002:fffad000       $stateUnwindMap$?erase@?$_Tree@V?$_Tmap_traits@IUTemplateType@cldb@@U?$less@I@std@@V?$allocator@U?$pair@$$CBIUTemplateType@cldb@@@std@@@4@$00@std@@@std@@QEAA?AV?$_Tree_iterator@V?$_Tree_val@U?$_Tree_simple_types@U?$pair@$$CBIUTemplateType@cldb@@@std@@@std@@@std@@@2@V?$_Tree_const_iterator@V?$_Tree_val@U?$_Tree_simple_types@U?$pair@$$CBIUTemplateType@cldb@@@std@@@std@@@std@@@2@0@Z 0000000180000000     clReflectCore:Database.obj
 0002:fffad000       $cppxdata$?erase@?$_Tree@V?$_Tmap_traits@IUTemplateType@cldb@@U?$less@I@std@@V?$allocator@U?$pair@$$CBIUTemplateType@cldb@@@std@@@4@$00@std@@@std@@QEAA?AV?$_Tree_iterator@V?$_Tree_val@U?$_Tree_simple_types@U?$pair@$$CBIUTemplateType@cldb@@@std@@@std@@@std@@@2@V?$_Tree_const_iterator@V?$_Tree_val@U?$_Tree_simple_types@U?$pair@$$CBIUTemplateType@cldb@@@std@@@std@@@std@@@2@0@Z 0000000180000000     clReflectCore:Database.obj
 0004:fff90000       $pdata$?erase@?$_Tree@V?$_Tmap_traits@IUTemplateType@cldb@@U?$less@I@std@@V?$allocator@U?$pair@$$CBIUTemplateType@cldb@@@std@@@4@$00@std@@@std@@QEAA?AV?$_Tree_iterator@V?$_Tree_val@U?$_Tree_simple_types@U?$pair@$$CBIUTemplateType@cldb@@@std@@@std@@@std@@@2@V?$_Tree_const_iterator@V?$_Tree_val@U?$_Tree_simple_types@U?$pair@$$CBIUTemplateType@cldb@@@std@@@std@@@std@@@2@0@Z 0000000180000000     clReflectCore:Database.obj
 0002:fffad000       $unwind$?erase@?$_Tree@V?$_Tmap_traits@IUTemplateType@cldb@@U?$less@I@std@@V?$allocator@U?$pair@$$CBIUTemplateType@cldb@@@std@@@4@$00@std@@@std@@QEAA?AV?$_Tree_iterator@V?$_Tree_val@U?$_Tree_simple_types@U?$pair@$$CBIUTemplateType@cldb@@@std@@@std@@@std@@@2@V?$_Tree_const_iterator@V?$_Tree_val@U?$_Tree_simple_types@U?$pair@$$CBIUTemplateType@cldb@@@std@@@std@@@std@@@2@0@Z 0000000180000000     clReflectCore:Database.obj
 0002:fffad000       $ip2state$?erase@?$_Tree@V?$_Tmap_traits@IUTemplateType@cldb@@U?$less@I@std@@V?$allocator@U?$pair@$$CBIUTemplateType@cldb@@@std@@@4@$00@std@@@std@@QEAA?AV?$_Tree_iterator@V?$_Tree_val@U?$_Tree_simple_types@U?$pair@$$CBIUTemplateType@cldb@@@std@@@std@@@std@@@2@V?$_Tree_const_iterator@V?$_Tree_val@U?$_Tree_simple_types@U?$pair@$$CBIUTemplateType@cldb@@@std@@@std@@@std@@@2@@Z 0000000180000000     clReflectCore:Database.obj
 0002:fffad000       $stateUnwindMap$?erase@?$_Tree@V?$_Tmap_traits@IUTemplateType@cldb@@U?$less@I@std@@V?$allocator@U?$pair@$$CBIUTemplateType@cldb@@@std@@@4@$00@std@@@std@@QEAA?AV?$_Tree_iterator@V?$_Tree_val@U?$_Tree_simple_types@U?$pair@$$CBIUTemplateType@cldb@@@std@@@std@@@std@@@2@V?$_Tree_const_iterator@V?$_Tree_val@U?$_Tree_simple_types@U?$pair@$$CBIUTemplateType@cldb@@@std@@@std@@@std@@@2@@Z 0000000180000000     clReflectCore:Database.obj
 0002:fffad000       $cppxdata$?erase@?$_Tree@V?$_Tmap_traits@IUTemplateType@cldb@@U?$less@I@std@@V?$allocator@U?$pair@$$CBIUTemplateType@cldb@@@std@@@4@$00@std@@@std@@QEAA?AV?$_Tree_iterator@V?$_Tree_val@U?$_Tree_simple_types@U?$pair@$$CBIUTemplateType@cldb@@@std@@@std@@@std@@@2@V?$_Tree_const_iterator@V?$_Tree_val@U?$_Tree_simple_types@U?$pair@$$CBIUTemplateType@cldb@@@std@@@std@@@std@@@2@@Z 0000000180000000     clReflectCore:Database.obj
 0004:fff90000       $pdata$?erase@?$_Tree@V?$_Tmap_traits@IUTemplateType@cldb@@U?$less@I@std@@V?$allocator@U?$pair@$$CBIUTemplateType@cldb@@@std@@@4@$00@std@@@std@@QEAA?AV?$_Tree_iterator@V?$_Tree_val@U?$_Tree_simple_types@U?$pair@$$CBIUTemplateType@cldb@@@std@@@std@@@std@@@2@V?$_Tree_const_iterator@V?$_Tree_val@U?$_Tree_simple_types@U?$pair@$$CBIUTemplateType@cldb@@@std@@@std@@@std@@@2@@Z 0000000180000000     clReflectCore:Database.obj
 0002:fffad000       $unwind$?erase@?$_Tree@V?$_Tmap_traits@IUTemplateType@cldb@@U?$less@I@std@@V?$allocator@U?$pair@$$CBIUTemplateType@cldb@@@std@@@4@$00@std@@@std@@QEAA?AV?$_Tree_iterator@V?$_Tree_val@U?$_Tree_simple_types@U?$pair@$$CBIUTemplateType@cldb@@@std@@@std@@@std@@@2@V?$_Tree_const_iterator@V?$_Tree_val@U?$_Tree_simple_types@U?$pair@$$CBIUTemplateType@cldb@@@std@@@std@@@std@@@2@@Z 0000000180000000     clReflectCore:Database.obj
 0004:fff90000       $pdata$?_Extract@?$_Tree_val@U?$_Tree_simple_types@U?$pair@$$CBIUTemplateType@cldb@@@std@@@std@@@std@@QEAAPEAU?$_Tree_node@U?$pair@$$CBIUTemplateType@cldb@@@std@@PEAX@2@V?$_Tree_const_iterator@V?$_Tree_val@U?$_Tree_simple_types@U?$pair@$$CBIUTemplateType@cldb@@@std@@@std@@@std@@@2@@Z 0000000180000000     clReflectCore:Database.obj
 0002:fffad000       $unwind$?_Extract@?$_Tree_val@U?$_Tree_simple_types@U?$pair@$$CBIUTemplateType@cldb@@@std@@@std@@@std@@QEAAPEAU?$_Tree_node@U?$pair@$$CBIUTemplateType@cldb@@@std@@PEAX@2@V?$_Tree_const_iterator@V?$_Tree_val@U?$_Tree_simple_types@U?$pair@$$CBIUTemplateType@cldb@@@std@@@std@@@std@@@2@@Z 0000000180000000     clReflectCore:Database.obj
 0004:fff90000       $pdata$?_Erase@?$_Tree@V?$_Tmap_traits@IUTemplate@cldb@@U?$less@I@std@@V?$allocator@U?$pair@$$CBIUTemplate@cldb@@@std@@@4@$00@std@@@std@@IEAAXPEAU?$_Tree_node@U?$pair@$$CBIUTemplate@cldb@@@std@@PEAX@2@@Z 0000000180000000     clReflectCore:Database.obj
 0002:fffad000       $unwind$?_Erase@?$_Tree@V?$_Tmap_traits@IUTemplate@cldb@@U?$less@I@std@@V?$allocator@U?$pair@$$CBIUTemplate@cldb@@@std@@@4@$00@std@@@std@@IEAAXPEAU?$_Tree_node@U?$pair@$$CBIUTemplate@cldb@@@std@@PEAX@2@@Z 0000000180000000     clReflectCore:Database.obj
 0002:fffad000       $ip2state$?clear@?$_Tree@V?$_Tmap_traits@IUTemplate@cldb@@U?$less@I@std@@V?$allocator@U?$pair@$$CBIUTemplate@cldb@@@std@@@4@$00@std@@@std@@QEAAXXZ 0000000180000000     clReflectCore:Database.obj
 0002:fffad000       $cppxdata$?clear@?$_Tree@V?$_Tmap_traits@IUTemplate@cldb@@U?$less@I@std@@V?$allocator@U?$pair@$$CBIUTemplate@cldb@@@std@@@4@$00@std@@@std@@QEAAXXZ 0000000180000000     clReflectCore:Database.obj
 0004:fff90000       $pdata$?clear@?$_Tree@V?$_Tmap_traits@IUTemplate@cldb@@U?$less@I@std@@V?$allocator@U?$pair@$$CBIUTemplate@cldb@@@std@@@4@$00@std@@@std@@QEAAXXZ 0000000180000000     clReflectCore:Database.obj
 0002:fffad000       $unwind$?clear@?$_Tree@V?$_Tmap_traits@IUTemplate@cldb@@U?$less@I@std@@V?$allocator@U?$pair@$$CBIUTemplate@cldb@@@std@@@4@$00@std@@@std@@QEAAXXZ 0000000180000000     clReflectCore:Database.obj
 0004:fff90000       $pdata$?erase@?$_Tree@V?$_Tmap_traits@IUTemplate@cldb@@U?$less@I@std@@V?$allocator@U?$pair@$$CBIUTemplate@cldb@@@std@@@4@$00@std@@@std@@QEAA?AV?$_Tree_iterator@V?$_Tree_val@U?$_Tree_simple_types@U?$pair@$$CBIUTemplate@cldb@@@std@@@std@@@std@@@2@V?$_Tree_const_iterator@V?$_Tree_val@U?$_Tree_simple_types@U?$pair@$$CBIUTemplate@cldb@@@std@@@std@@@std@@@2@0@Z 0000000180000000     clReflectCore:Database.obj
 0002:fffad000       $unwind$?erase@?$_Tree@V?$_Tmap_traits@IUTemplate@cldb@@U?$less@I@std@@V?$allocator@U?$pair@$$CBIUTemplate@cldb@@@std@@@4@$00@std@@@std@@QEAA?AV?$_Tree_iterator@V?$_Tree_val@U?$_Tree_simple_types@U?$pair@$$CBIUTemplate@cldb@@@std@@@std@@@std@@@2@V?$_Tree_const_iterator@V?$_Tree_val@U?$_Tree_simple_types@U?$pair@$$CBIUTemplate@cldb@@@std@@@std@@@std@@@2@0@Z 0000000180000000     clReflectCore:Database.obj
 0004:fff90000       $pdata$?erase@?$_Tree@V?$_Tmap_traits@IUTemplate@cldb@@U?$less@I@std@@V?$allocator@U?$pair@$$CBIUTemplate@cldb@@@std@@@4@$00@std@@@std@@QEAA?AV?$_Tree_iterator@V?$_Tree_val@U?$_Tree_simple_types@U?$pair@$$CBIUTemplate@cldb@@@std@@@std@@@std@@@2@V?$_Tree_const_iterator@V?$_Tree_val@U?$_Tree_simple_types@U?$pair@$$CBIUTemplate@cldb@@@std@@@std@@@std@@@2@@Z 0000000180000000     clReflectCore:Database.obj
 0002:fffad000       $unwind$?erase@?$_Tree@V?$_Tmap_traits@IUTemplate@cldb@@U?$less@I@std@@V?$allocator@U?$pair@$$CBIUTemplate@cldb@@@std@@@4@$00@std@@@std@@QEAA?AV?$_Tree_iterator@V?$_Tree_val@U?$_Tree_simple_types@U?$pair@$$CBIUTemplate@cldb@@@std@@@std@@@std@@@2@V?$_Tree_const_iterator@V?$_Tree_val@U?$_Tree_simple_types@U?$pair@$$CBIUTemplate@cldb@@@std@@@std@@@std@@@2@@Z 0000000180000000     clReflectCore:Database.obj
 0004:fff90000       $pdata$?_Extract@?$_Tree_val@U?$_Tree_simple_types@U?$pair@$$CBIUTemplate@cldb@@@std@@@std@@@std@@QEAAPEAU?$_Tree_node@U?$pair@$$CBIUTemplate@cldb@@@std@@PEAX@2@V?$_Tree_const_iterator@V?$_Tree_val@U?$_Tree_simple_types@U?$pair@$$CBIUTemplate@cldb@@@std@@@std@@@std@@@2@@Z 0000000180000000     clReflectCore:Database.obj
 0002:fffad000       $unwind$?_Extract@?$_Tree_val@U?$_Tree_simple_types@U?$pair@$$CBIUTemplate@cldb@@@std@@@std@@@std@@QEAAPEAU?$_Tree_node@U?$pair@$$CBIUTemplate@cldb@@@std@@PEAX@2@V?$_Tree_const_iterator@V?$_Tree_val@U?$_Tree_simple_types@U?$pair@$$CBIUTemplate@cldb@@@std@@@std@@@std@@@2@@Z 0000000180000000     clReflectCore:Database.obj
 0004:fff90000       $pdata$?_Erase@?$_Tree@V?$_Tmap_traits@IUType@cldb@@U?$less@I@std@@V?$allocator@U?$pair@$$CBIUType@cldb@@@std@@@4@$00@std@@@std@@IEAAXPEAU?$_Tree_node@U?$pair@$$CBIUType@cldb@@@std@@PEAX@2@@Z 0000000180000000     clReflectCore:Database.obj
 0002:fffad000       $unwind$?_Erase@?$_Tree@V?$_Tmap_traits@IUType@cldb@@U?$less@I@std@@V?$allocator@U?$pair@$$CBIUType@cldb@@@std@@@4@$00@std@@@std@@IEAAXPEAU?$_Tree_node@U?$pair@$$CBIUType@cldb@@@std@@PEAX@2@@Z 0000000180000000     clReflectCore:Database.obj
 0002:fffad000       $ip2state$?clear@?$_Tree@V?$_Tmap_traits@IUType@cldb@@U?$less@I@std@@V?$allocator@U?$pair@$$CBIUType@cldb@@@std@@@4@$00@std@@@std@@QEAAXXZ 0000000180000000     clReflectCore:Database.obj
 0002:fffad000       $cppxdata$?clear@?$_Tree@V?$_Tmap_traits@IUType@cldb@@U?$less@I@std@@V?$allocator@U?$pair@$$CBIUType@cldb@@@std@@@4@$00@std@@@std@@QEAAXXZ 0000000180000000     clReflectCore:Database.obj
 0004:fff90000       $pdata$?clear@?$_Tree@V?$_Tmap_traits@IUType@cldb@@U?$less@I@std@@V?$allocator@U?$pair@$$CBIUType@cldb@@@std@@@4@$00@std@@@std@@QEAAXXZ 0000000180000000     clReflectCore:Database.obj
 0002:fffad000       $unwind$?clear@?$_Tree@V?$_Tmap_traits@IUType@cldb@@U?$less@I@std@@V?$allocator@U?$pair@$$CBIUType@cldb@@@std@@@4@$00@std@@@std@@QEAAXXZ 0000000180000000     clReflectCore:Database.obj
 0004:fff90000       $pdata$?erase@?$_Tree@V?$_Tmap_traits@IUType@cldb@@U?$less@I@std@@V?$allocator@U?$pair@$$CBIUType@cldb@@@std@@@4@$00@std@@@std@@QEAA?AV?$_Tree_iterator@V?$_Tree_val@U?$_Tree_simple_types@U?$pair@$$CBIUType@cldb@@@std@@@std@@@std@@@2@V?$_Tree_const_iterator@V?$_Tree_val@U?$_Tree_simple_types@U?$pair@$$CBIUType@cldb@@@std@@@std@@@std@@@2@0@Z 0000000180000000     clReflectCore:Database.obj
 0002:fffad000       $unwind$?erase@?$_Tree@V?$_Tmap_traits@IUType@cldb@@U?$less@I@std@@V?$allocator@U?$pair@$$CBIUType@cldb@@@std@@@4@$00@std@@@std@@QEAA?AV?$_Tree_iterator@V?$_Tree_val@U?$_Tree_simple_types@U?$pair@$$CBIUType@cldb@@@std@@@std@@@std@@@2@V?$_Tree_const_iterator@V?$_Tree_val@U?$_Tree_simple_types@U?$pair@$$CBIUType@cldb@@@std@@@std@@@std@@@2@0@Z 0000000180000000     clReflectCore:Database.obj
 0004:fff90000       $pdata$?erase@?$_Tree@V?$_Tmap_traits@IUType@cldb@@U?$less@I@std@@V?$allocator@U?$pair@$$CBIUType@cldb@@@std@@@4@$00@std@@@std@@QEAA?AV?$_Tree_iterator@V?$_Tree_val@U?$_Tree_simple_types@U?$pair@$$CBIUType@cldb@@@std@@@std@@@std@@@2@V?$_Tree_const_iterator@V?$_Tree_val@U?$_Tree_simple_types@U?$pair@$$CBIUType@cldb@@@std@@@std@@@std@@@2@@Z 0000000180000000     clReflectCore:Database.obj
 0002:fffad000       $unwind$?erase@?$_Tree@V?$_Tmap_traits@IUType@cldb@@U?$less@I@std@@V?$allocator@U?$pair@$$CBIUType@cldb@@@std@@@4@$00@std@@@std@@QEAA?AV?$_Tree_iterator@V?$_Tree_val@U?$_Tree_simple_types@U?$pair@$$CBIUType@cldb@@@std@@@std@@@std@@@2@V?$_Tree_const_iterator@V?$_Tree_val@U?$_Tree_simple_types@U?$pair@$$CBIUType@cldb@@@std@@@std@@@std@@@2@@Z 0000000180000000     clReflectCore:Database.obj
 0004:fff90000       $pdata$?_Extract@?$_Tree_val@U?$_Tree_simple_types@U?$pair@$$CBIUType@cldb@@@std@@@std@@@std@@QEAAPEAU?$_Tree_node@U?$pair@$$CBIUType@cldb@@@std@@PEAX@2@V?$_Tree_const_iterator@V?$_Tree_val@U?$_Tree_simple_types@U?$pair@$$CBIUType@cldb@@@std@@@std@@@std@@@2@@Z 0000000180000000     clReflectCore:Database.obj
 0002:fffad000       $unwind$?_Extract@?$_Tree_val@U?$_Tree_simple_types@U?$pair@$$CBIUType@cldb@@@std@@@std@@@std@@QEAAPEAU?$_Tree_node@U?$pair@$$CBIUType@cldb@@@std@@PEAX@2@V?$_Tree_const_iterator@V?$_Tree_val@U?$_Tree_simple_types@U?$pair@$$CBIUType@cldb@@@std@@@std@@@std@@@2@@Z 0000000180000000     clReflectCore:Database.obj
 0004:fff90000       $pdata$?_Erase@?$_Tree@V?$_Tmap_traits@IUNamespace@cldb@@U?$less@I@std@@V?$allocator@U?$pair@$$CBIUNamespace@cldb@@@std@@@4@$00@std@@@std@@IEAAXPEAU?$_Tree_node@U?$pair@$$CBIUNamespace@cldb@@@std@@PEAX@2@@Z 0000000180000000     clReflectCore:Database.obj
 0002:fffad000       $unwind$?_Erase@?$_Tree@V?$_Tmap_traits@IUNamespace@cldb@@U?$less@I@std@@V?$allocator@U?$pair@$$CBIUNamespace@cldb@@@std@@@4@$00@std@@@std@@IEAAXPEAU?$_Tree_node@U?$pair@$$CBIUNamespace@cldb@@@std@@PEAX@2@@Z 0000000180000000     clReflectCore:Database.obj
 0002:fffad000       $ip2state$?clear@?$_Tree@V?$_Tmap_traits@IUNamespace@cldb@@U?$less@I@std@@V?$allocator@U?$pair@$$CBIUNamespace@cldb@@@std@@@4@$00@std@@@std@@QEAAXXZ 0000000180000000     clReflectCore:Database.obj
 0002:fffad000       $cppxdata$?clear@?$_Tree@V?$_Tmap_traits@IUNamespace@cldb@@U?$less@I@std@@V?$allocator@U?$pair@$$CBIUNamespace@cldb@@@std@@@4@$00@std@@@std@@QEAAXXZ 0000000180000000     clReflectCore:Database.obj
 0004:fff90000       $pdata$?clear@?$_Tree@V?$_Tmap_traits@IUNamespace@cldb@@U?$less@I@std@@V?$allocator@U?$pair@$$CBIUNamespace@cldb@@@std@@@4@$00@std@@@std@@QEAAXXZ 0000000180000000     clReflectCore:Database.obj
 0002:fffad000       $unwind$?clear@?$_Tree@V?$_Tmap_traits@IUNamespace@cldb@@U?$less@I@std@@V?$allocator@U?$pair@$$CBIUNamespace@cldb@@@std@@@4@$00@std@@@std@@QEAAXXZ 0000000180000000     clReflectCore:Database.obj
 0004:fff90000       $pdata$?erase@?$_Tree@V?$_Tmap_traits@IUNamespace@cldb@@U?$less@I@std@@V?$allocator@U?$pair@$$CBIUNamespace@cldb@@@std@@@4@$00@std@@@std@@QEAA?AV?$_Tree_iterator@V?$_Tree_val@U?$_Tree_simple_types@U?$pair@$$CBIUNamespace@cldb@@@std@@@std@@@std@@@2@V?$_Tree_const_iterator@V?$_Tree_val@U?$_Tree_simple_types@U?$pair@$$CBIUNamespace@cldb@@@std@@@std@@@std@@@2@0@Z 0000000180000000     clReflectCore:Database.obj
 0002:fffad000       $unwind$?erase@?$_Tree@V?$_Tmap_traits@IUNamespace@cldb@@U?$less@I@std@@V?$allocator@U?$pair@$$CBIUNamespace@cldb@@@std@@@4@$00@std@@@std@@QEAA?AV?$_Tree_iterator@V?$_Tree_val@U?$_Tree_simple_types@U?$pair@$$CBIUNamespace@cldb@@@std@@@std@@@std@@@2@V?$_Tree_const_iterator@V?$_Tree_val@U?$_Tree_simple_types@U?$pair@$$CBIUNamespace@cldb@@@std@@@std@@@std@@@2@0@Z 0000000180000000     clReflectCore:Database.obj
 0004:fff90000       $pdata$?erase@?$_Tree@V?$_Tmap_traits@IUNamespace@cldb@@U?$less@I@std@@V?$allocator@U?$pair@$$CBIUNamespace@cldb@@@std@@@4@$00@std@@@std@@QEAA?AV?$_Tree_iterator@V?$_Tree_val@U?$_Tree_simple_types@U?$pair@$$CBIUNamespace@cldb@@@std@@@std@@@std@@@2@V?$_Tree_const_iterator@V?$_Tree_val@U?$_Tree_simple_types@U?$pair@$$CBIUNamespace@cldb@@@std@@@std@@@std@@@2@@Z 0000000180000000     clReflectCore:Database.obj
 0002:fffad000       $unwind$?erase@?$_Tree@V?$_Tmap_traits@IUNamespace@cldb@@U?$less@I@std@@V?$allocator@U?$pair@$$CBIUNamespace@cldb@@@std@@@4@$00@std@@@std@@QEAA?AV?$_Tree_iterator@V?$_Tree_val@U?$_Tree_simple_types@U?$pair@$$CBIUNamespace@cldb@@@std@@@std@@@std@@@2@V?$_Tree_const_iterator@V?$_Tree_val@U?$_Tree_simple_types@U?$pair@$$CBIUNamespace@cldb@@@std@@@std@@@std@@@2@@Z 0000000180000000     clReflectCore:Database.obj
 0004:fff90000       $pdata$?_Extract@?$_Tree_val@U?$_Tree_simple_types@U?$pair@$$CBIUNamespace@cldb@@@std@@@std@@@std@@QEAAPEAU?$_Tree_node@U?$pair@$$CBIUNamespace@cldb@@@std@@PEAX@2@V?$_Tree_const_iterator@V?$_Tree_val@U?$_Tree_simple_types@U?$pair@$$CBIUNamespace@cldb@@@std@@@std@@@std@@@2@@Z 0000000180000000     clReflectCore:Database.obj
 0002:fffad000       $unwind$?_Extract@?$_Tree_val@U?$_Tree_simple_types@U?$pair@$$CBIUNamespace@cldb@@@std@@@std@@@std@@QEAAPEAU?$_Tree_node@U?$pair@$$CBIUNamespace@cldb@@@std@@PEAX@2@V?$_Tree_const_iterator@V?$_Tree_val@U?$_Tree_simple_types@U?$pair@$$CBIUNamespace@cldb@@@std@@@std@@@std@@@2@@Z 0000000180000000     clReflectCore:Database.obj
 0004:fff90000       $pdata$?_Erase@?$_Tree@V?$_Tmap_traits@IUName@cldb@@U?$less@I@std@@V?$allocator@U?$pair@$$CBIUName@cldb@@@std@@@4@$0A@@std@@@std@@IEAAXPEAU?$_Tree_node@U?$pair@$$CBIUName@cldb@@@std@@PEAX@2@@Z 0000000180000000     clReflectCore:Database.obj
 0002:fffad000       $unwind$?_Erase@?$_Tree@V?$_Tmap_traits@IUName@cldb@@U?$less@I@std@@V?$allocator@U?$pair@$$CBIUName@cldb@@@std@@@4@$0A@@std@@@std@@IEAAXPEAU?$_Tree_node@U?$pair@$$CBIUName@cldb@@@std@@PEAX@2@@Z 0000000180000000     clReflectCore:Database.obj
 0002:fffad000       $ip2state$?clear@?$_Tree@V?$_Tmap_traits@IUName@cldb@@U?$less@I@std@@V?$allocator@U?$pair@$$CBIUName@cldb@@@std@@@4@$0A@@std@@@std@@QEAAXXZ 0000000180000000     clReflectCore:Database.obj
 0002:fffad000       $cppxdata$?clear@?$_Tree@V?$_Tmap_traits@IUName@cldb@@U?$less@I@std@@V?$allocator@U?$pair@$$CBIUName@cldb@@@std@@@4@$0A@@std@@@std@@QEAAXXZ 0000000180000000     clReflectCore:Database.obj
 0004:fff90000       $pdata$?clear@?$_Tree@V?$_Tmap_traits@IUName@cldb@@U?$less@I@std@@V?$allocator@U?$pair@$$CBIUName@cldb@@@std@@@4@$0A@@std@@@std@@QEAAXXZ 0000000180000000     clReflectCore:Database.obj
 0002:fffad000       $unwind$?clear@?$_Tree@V?$_Tmap_traits@IUName@cldb@@U?$less@I@std@@V?$allocator@U?$pair@$$CBIUName@cldb@@@std@@@4@$0A@@std@@@std@@QEAAXXZ 0000000180000000     clReflectCore:Database.obj
 0004:fff90000       $pdata$?erase@?$_Tree@V?$_Tmap_traits@IUName@cldb@@U?$less@I@std@@V?$allocator@U?$pair@$$CBIUName@cldb@@@std@@@4@$0A@@std@@@std@@QEAA?AV?$_Tree_iterator@V?$_Tree_val@U?$_Tree_simple_types@U?$pair@$$CBIUName@cldb@@@std@@@std@@@std@@@2@V?$_Tree_const_iterator@V?$_Tree_val@U?$_Tree_simple_types@U?$pair@$$CBIUName@cldb@@@std@@@std@@@std@@@2@0@Z 0000000180000000     clReflectCore:Database.obj
 0002:fffad000       $unwind$?erase@?$_Tree@V?$_Tmap_traits@IUName@cldb@@U?$less@I@std@@V?$allocator@U?$pair@$$CBIUName@cldb@@@std@@@4@$0A@@std@@@std@@QEAA?AV?$_Tree_iterator@V?$_Tree_val@U?$_Tree_simple_types@U?$pair@$$CBIUName@cldb@@@std@@@std@@@std@@@2@V?$_Tree_const_iterator@V?$_Tree_val@U?$_Tree_simple_types@U?$pair@$$CBIUName@cldb@@@std@@@std@@@std@@@2@0@Z 0000000180000000     clReflectCore:Database.obj
 0004:fff90000       $pdata$?erase@?$_Tree@V?$_Tmap_traits@IUName@cldb@@U?$less@I@std@@V?$allocator@U?$pair@$$CBIUName@cldb@@@std@@@4@$0A@@std@@@std@@QEAA?AV?$_Tree_iterator@V?$_Tree_val@U?$_Tree_simple_types@U?$pair@$$CBIUName@cldb@@@std@@@std@@@std@@@2@V?$_Tree_const_iterator@V?$_Tree_val@U?$_Tree_simple_types@U?$pair@$$CBIUName@cldb@@@std@@@std@@@std@@@2@@Z 0000000180000000     clReflectCore:Database.obj
 0002:fffad000       $unwind$?erase@?$_Tree@V?$_Tmap_traits@IUName@cldb@@U?$less@I@std@@V?$allocator@U?$pair@$$CBIUName@cldb@@@std@@@4@$0A@@std@@@std@@QEAA?AV?$_Tree_iterator@V?$_Tree_val@U?$_Tree_simple_types@U?$pair@$$CBIUName@cldb@@@std@@@std@@@std@@@2@V?$_Tree_const_iterator@V?$_Tree_val@U?$_Tree_simple_types@U?$pair@$$CBIUName@cldb@@@std@@@std@@@std@@@2@@Z 0000000180000000     clReflectCore:Database.obj
 0004:fff90000       $pdata$?_Extract@?$_Tree_val@U?$_Tree_simple_types@U?$pair@$$CBIUName@cldb@@@std@@@std@@@std@@QEAAPEAU?$_Tree_node@U?$pair@$$CBIUName@cldb@@@std@@PEAX@2@V?$_Tree_const_iterator@V?$_Tree_val@U?$_Tree_simple_types@U?$pair@$$CBIUName@cldb@@@std@@@std@@@std@@@2@@Z 0000000180000000     clReflectCore:Database.obj
 0002:fffad000       $unwind$?_Extract@?$_Tree_val@U?$_Tree_simple_types@U?$pair@$$CBIUName@cldb@@@std@@@std@@@std@@QEAAPEAU?$_Tree_node@U?$pair@$$CBIUName@cldb@@@std@@PEAX@2@V?$_Tree_const_iterator@V?$_Tree_val@U?$_Tree_simple_types@U?$pair@$$CBIUName@cldb@@@std@@@std@@@std@@@2@@Z 0000000180000000     clReflectCore:Database.obj
 0004:fff90000       $pdata$?_Erase@?$_Tree@V?$_Tmap_traits@IUTypeInheritance@cldb@@U?$less@I@std@@V?$allocator@U?$pair@$$CBIUTypeInheritance@cldb@@@std@@@4@$0A@@std@@@std@@IEAAXPEAU?$_Tree_node@U?$pair@$$CBIUTypeInheritance@cldb@@@std@@PEAX@2@@Z 0000000180000000     clReflectCore:Database.obj
 0002:fffad000       $unwind$?_Erase@?$_Tree@V?$_Tmap_traits@IUTypeInheritance@cldb@@U?$less@I@std@@V?$allocator@U?$pair@$$CBIUTypeInheritance@cldb@@@std@@@4@$0A@@std@@@std@@IEAAXPEAU?$_Tree_node@U?$pair@$$CBIUTypeInheritance@cldb@@@std@@PEAX@2@@Z 0000000180000000     clReflectCore:Database.obj
 0002:fffad000       $ip2state$?clear@?$_Tree@V?$_Tmap_traits@IUTypeInheritance@cldb@@U?$less@I@std@@V?$allocator@U?$pair@$$CBIUTypeInheritance@cldb@@@std@@@4@$0A@@std@@@std@@QEAAXXZ 0000000180000000     clReflectCore:Database.obj
 0002:fffad000       $cppxdata$?clear@?$_Tree@V?$_Tmap_traits@IUTypeInheritance@cldb@@U?$less@I@std@@V?$allocator@U?$pair@$$CBIUTypeInheritance@cldb@@@std@@@4@$0A@@std@@@std@@QEAAXXZ 0000000180000000     clReflectCore:Database.obj
 0002:fffad000       $unwind$??$_Insert_nohint@U?$pair@$$CBIUType@cldb@@@std@@U_Not_a_node_tag@2@@?$_Tree@V?$_Tmap_traits@IUType@cldb@@U?$less@I@std@@V?$allocator@U?$pair@$$CBIUType@cldb@@@std@@@4@$00@std@@@std@@IEAA?AU?$pair@V?$_Tree_iterator@V?$_Tree_val@U?$_Tree_simple_types@U?$pair@$$CBIUType@cldb@@@std@@@std@@@std@@@std@@_N@1@_N$$QEAU?$pair@$$CBIUType@cldb@@@1@U_Not_a_node_tag@1@@Z 0000000180000000     clReflectCore:DatabaseBinarySerialiser.obj
 0004:fff90000       $pdata$??$_Insert_nohint@U?$pair@$$CBIUType@cldb@@@std@@U_Not_a_node_tag@2@@?$_Tree@V?$_Tmap_traits@IUType@cldb@@U?$less@I@std@@V?$allocator@U?$pair@$$CBIUType@cldb@@@std@@@4@$00@std@@@std@@IEAA?AU?$pair@V?$_Tree_iterator@V?$_Tree_val@U?$_Tree_simple_types@U?$pair@$$CBIUType@cldb@@@std@@@std@@@std@@@std@@_N@1@_N$$QEAU?$pair@$$CBIUType@cldb@@@1@U_Not_a_node_tag@1@@Z 0000000180000000     clReflectCore:DatabaseBinarySerialiser.obj
 0002:fffad000       $cppxdata$??$_Insert_nohint@U?$pair@$$CBIUType@cldb@@@std@@U_Not_a_node_tag@2@@?$_Tree@V?$_Tmap_traits@IUType@cldb@@U?$less@I@std@@V?$allocator@U?$pair@$$CBIUType@cldb@@@std@@@4@$00@std@@@std@@IEAA?AU?$pair@V?$_Tree_iterator@V?$_Tree_val@U?$_Tree_simple_types@U?$pair@$$CBIUType@cldb@@@std@@@std@@@std@@@std@@_N@1@_N$$QEAU?$pair@$$CBIUType@cldb@@@1@U_Not_a_node_tag@1@@Z 0000000180000000     clReflectCore:DatabaseBinarySerialiser.obj
 0002:fffad000       $stateUnwindMap$??$_Insert_nohint@U?$pair@$$CBIUType@cldb@@@std@@U_Not_a_node_tag@2@@?$_Tree@V?$_Tmap_traits@IUType@cldb@@U?$less@I@std@@V?$allocator@U?$pair@$$CBIUType@cldb@@@std@@@4@$00@std@@@std@@IEAA?AU?$pair@V?$_Tree_iterator@V?$_Tree_val@U?$_Tree_simple_types@U?$pair@$$CBIUType@cldb@@@std@@@std@@@std@@@std@@_N@1@_N$$QEAU?$pair@$$CBIUType@cldb@@@1@U_Not_a_node_tag@1@@Z 0000000180000000     clReflectCore:DatabaseBinarySerialiser.obj
 0002:fffad000       $tryMap$??$_Insert_nohint@U?$pair@$$CBIUType@cldb@@@std@@U_Not_a_node_tag@2@@?$_Tree@V?$_Tmap_traits@IUType@cldb@@U?$less@I@std@@V?$allocator@U?$pair@$$CBIUType@cldb@@@std@@@4@$00@std@@@std@@IEAA?AU?$pair@V?$_Tree_iterator@V?$_Tree_val@U?$_Tree_simple_types@U?$pair@$$CBIUType@cldb@@@std@@@std@@@std@@@std@@_N@1@_N$$QEAU?$pair@$$CBIUType@cldb@@@1@U_Not_a_node_tag@1@@Z 0000000180000000     clReflectCore:DatabaseBinarySerialiser.obj
 0002:fffad000       $handlerMap$0$??$_Insert_nohint@U?$pair@$$CBIUType@cldb@@@std@@U_Not_a_node_tag@2@@?$_Tree@V?$_Tmap_traits@IUType@cldb@@U?$less@I@std@@V?$allocator@U?$pair@$$CBIUType@cldb@@@std@@@4@$00@std@@@std@@IEAA?AU?$pair@V?$_Tree_iterator@V?$_Tree_val@U?$_Tree_simple_types@U?$pair@$$CBIUType@cldb@@@std@@@std@@@std@@@std@@_N@1@_N$$QEAU?$pair@$$CBIUType@cldb@@@1@U_Not_a_node_tag@1@@Z 0000000180000000     clReflectCore:DatabaseBinarySerialiser.obj
 0002:fffad000       $ip2state$??$_Insert_nohint@U?$pair@$$CBIUType@cldb@@@std@@U_Not_a_node_tag@2@@?$_Tree@V?$_Tmap_traits@IUType@cldb@@U?$less@I@std@@V?$allocator@U?$pair@$$CBIUType@cldb@@@std@@@4@$00@std@@@std@@IEAA?AU?$pair@V?$_Tree_iterator@V?$_Tree_val@U?$_Tree_simple_types@U?$pair@$$CBIUType@cldb@@@std@@@std@@@std@@@std@@_N@1@_N$$QEAU?$pair@$$CBIUType@cldb@@@1@U_Not_a_node_tag@1@@Z 0000000180000000     clReflectCore:DatabaseBinarySerialiser.obj
 0004:fff90000       $pdata$?_Tidy@?$vector@UDatabaseField@meta@cldb@@V?$allocator@UDatabaseField@meta@cldb@@@std@@@std@@AEAAXXZ 0000000180000000     clReflectCore:DatabaseMetadata.obj
 0002:fffad000       $unwind$?_Tidy@?$vector@UDatabaseField@meta@cldb@@V?$allocator@UDatabaseField@meta@cldb@@@std@@@std@@AEAAXXZ 0000000180000000     clReflectCore:DatabaseMetadata.obj
 0002:fffad000       $unwind$?catch$0@?0???$_Insert_nohint@U?$pair@$$CBIUType@cldb@@@std@@U_Not_a_node_tag@2@@?$_Tree@V?$_Tmap_traits@IUType@cldb@@U?$less@I@std@@V?$allocator@U?$pair@$$CBIUType@cldb@@@std@@@4@$00@std@@@std@@IEAA?AU?$pair@V?$_Tree_iterator@V?$_Tree_val@U?$_Tree_simple_types@U?$pair@$$CBIUType@cldb@@@std@@@std@@@std@@@std@@_N@1@_N$$QEAU?$pair@$$CBIUType@cldb@@@1@U_Not_a_node_tag@1@@Z@4HA 0000000180000000     clReflectCore:DatabaseBinarySerialiser.obj
 0004:fff90000       $pdata$?catch$0@?0???$_Insert_nohint@U?$pair@$$CBIUType@cldb@@@std@@U_Not_a_node_tag@2@@?$_Tree@V?$_Tmap_traits@IUType@cldb@@U?$less@I@std@@V?$allocator@U?$pair@$$CBIUType@cldb@@@std@@@4@$00@std@@@std@@IEAA?AU?$pair@V?$_Tree_iterator@V?$_Tree_val@U?$_Tree_simple_types@U?$pair@$$CBIUType@cldb@@@std@@@std@@@std@@@std@@_N@1@_N$$QEAU?$pair@$$CBIUType@cldb@@@1@U_Not_a_node_tag@1@@Z@4HA 0000000180000000     clReflectCore:DatabaseBinarySerialiser.obj
 0004:fff90000       $pdata$?clear@?$_Tree@V?$_Tmap_traits@IUTypeInheritance@cldb@@U?$less@I@std@@V?$allocator@U?$pair@$$CBIUTypeInheritance@cldb@@@std@@@4@$0A@@std@@@std@@QEAAXXZ 0000000180000000     clReflectCore:Database.obj
 0002:fffad000       $unwind$?clear@?$_Tree@V?$_Tmap_traits@IUTypeInheritance@cldb@@U?$less@I@std@@V?$allocator@U?$pair@$$CBIUTypeInheritance@cldb@@@std@@@4@$0A@@std@@@std@@QEAAXXZ 0000000180000000     clReflectCore:Database.obj
 0004:fff90000       $pdata$?erase@?$_Tree@V?$_Tmap_traits@IUTypeInheritance@cldb@@U?$less@I@std@@V?$allocator@U?$pair@$$CBIUTypeInheritance@cldb@@@std@@@4@$0A@@std@@@std@@QEAA?AV?$_Tree_iterator@V?$_Tree_val@U?$_Tree_simple_types@U?$pair@$$CBIUTypeInheritance@cldb@@@std@@@std@@@std@@@2@V?$_Tree_const_iterator@V?$_Tree_val@U?$_Tree_simple_types@U?$pair@$$CBIUTypeInheritance@cldb@@@std@@@std@@@std@@@2@0@Z 0000000180000000     clReflectCore:Database.obj
 0002:fffad000       $unwind$?erase@?$_Tree@V?$_Tmap_traits@IUTypeInheritance@cldb@@U?$less@I@std@@V?$allocator@U?$pair@$$CBIUTypeInheritance@cldb@@@std@@@4@$0A@@std@@@std@@QEAA?AV?$_Tree_iterator@V?$_Tree_val@U?$_Tree_simple_types@U?$pair@$$CBIUTypeInheritance@cldb@@@std@@@std@@@std@@@2@V?$_Tree_const_iterator@V?$_Tree_val@U?$_Tree_simple_types@U?$pair@$$CBIUTypeInheritance@cldb@@@std@@@std@@@std@@@2@0@Z 0000000180000000     clReflectCore:Database.obj
 0004:fff90000       $pdata$??1TypeInheritance@cldb@@QEAA@XZ 0000000180000000     clReflectCore:DatabaseMetadata.obj
 0002:fffad000       $unwind$??1TypeInheritance@cldb@@QEAA@XZ 0000000180000000     clReflectCore:DatabaseMetadata.obj
 0004:fff90000       $pdata$??1ContainerInfo@cldb@@QEAA@XZ 0000000180000000     clReflectCore:DatabaseMetadata.obj
 0002:fffad000       $unwind$??1ContainerInfo@cldb@@QEAA@XZ 0000000180000000     clReflectCore:DatabaseMetadata.obj
 0002:fffad000       $ip2state$??0TemplateType@cldb@@QEAA@XZ 0000000180000000     clReflectCore:DatabaseMetadata.obj
 0002:fffad000       $stateUnwindMap$??0TemplateType@cldb@@QEAA@XZ 0000000180000000     clReflectCore:DatabaseMetadata.obj
 0002:fffad000       $cppxdata$??0TemplateType@cldb@@QEAA@XZ 0000000180000000     clReflectCore:DatabaseMetadata.obj
 0004:fff90000       $pdata$??0TemplateType@cldb@@QEAA@XZ 0000000180000000     clReflectCore:DatabaseMetadata.obj
 0002:fffad000       $unwind$??0TemplateType@cldb@@QEAA@XZ 0000000180000000     clReflectCore:DatabaseMetadata.obj
 0004:fff90000       $pdata$??1Field@cldb@@QEAA@XZ 0000000180000000     clReflectCore:DatabaseMetadata.obj
 0002:fffad000       $unwind$??1Field@cldb@@QEAA@XZ 0000000180000000     clReflectCore:DatabaseMetadata.obj
 0004:fff90000       $pdata$??_GTextAttribute@cldb@@UEAAPEAXI@Z 0000000180000000     clReflectCore:DatabaseMetadata.obj
 0002:fffad000       $unwind$??_GTextAttribute@cldb@@UEAAPEAXI@Z 0000000180000000     clReflectCore:DatabaseMetadata.obj
 0004:fff90000       $pdata$??1TextAttribute@cldb@@UEAA@XZ 0000000180000000     clReflectCore:DatabaseMetadata.obj
 0002:fffad000       $unwind$??1TextAttribute@cldb@@UEAA@XZ 0000000180000000     clReflectCore:DatabaseMetadata.obj
 0004:fff90000       $pdata$??_GPrimitiveAttribute@cldb@@UEAAPEAXI@Z 0000000180000000     clReflectCore:DatabaseMetadata.obj
 0002:fffad000       $unwind$??_GPrimitiveAttribute@cldb@@UEAAPEAXI@Z 0000000180000000     clReflectCore:DatabaseMetadata.obj
 0004:fff90000       $pdata$??1PrimitiveAttribute@cldb@@UEAA@XZ 0000000180000000     clReflectCore:DatabaseMetadata.obj
 0002:fffad000       $unwind$??1PrimitiveAttribute@cldb@@UEAA@XZ 0000000180000000     clReflectCore:DatabaseMetadata.obj
 0004:fff90000       $pdata$??_GFloatAttribute@cldb@@UEAAPEAXI@Z 0000000180000000     clReflectCore:DatabaseMetadata.obj
 0002:fffad000       $unwind$??_GFloatAttribute@cldb@@UEAAPEAXI@Z 0000000180000000     clReflectCore:DatabaseMetadata.obj
 0004:fff90000       $pdata$??_GIntAttribute@cldb@@UEAAPEAXI@Z 0000000180000000     clReflectCore:DatabaseMetadata.obj
 0002:fffad000       $unwind$??_GIntAttribute@cldb@@UEAAPEAXI@Z 0000000180000000     clReflectCore:DatabaseMetadata.obj
 0004:fff90000       $pdata$??_GAttribute@cldb@@UEAAPEAXI@Z 0000000180000000     clReflectCore:DatabaseMetadata.obj
 0002:fffad000       $unwind$??_GAttribute@cldb@@UEAAPEAXI@Z 0000000180000000     clReflectCore:DatabaseMetadata.obj
 0004:fff90000       $pdata$??1Primitive@cldb@@QEAA@XZ 0000000180000000     clReflectCore:DatabaseMetadata.obj
 0002:fffad000       $unwind$??1Primitive@cldb@@QEAA@XZ 0000000180000000     clReflectCore:DatabaseMetadata.obj
 0004:fff90000       $pdata$??1Name@cldb@@QEAA@XZ 0000000180000000     clReflectCore:DatabaseMetadata.obj
 0002:fffad000       $unwind$??1Name@cldb@@QEAA@XZ 0000000180000000     clReflectCore:DatabaseMetadata.obj
 0004:fff90000       $pdata$?erase@?$_Tree@V?$_Tmap_traits@IUTypeInheritance@cldb@@U?$less@I@std@@V?$allocator@U?$pair@$$CBIUTypeInheritance@cldb@@@std@@@4@$0A@@std@@@std@@QEAA?AV?$_Tree_iterator@V?$_Tree_val@U?$_Tree_simple_types@U?$pair@$$CBIUTypeInheritance@cldb@@@std@@@std@@@std@@@2@V?$_Tree_const_iterator@V?$_Tree_val@U?$_Tree_simple_types@U?$pair@$$CBIUTypeInheritance@cldb@@@std@@@std@@@std@@@2@@Z 0000000180000000     clReflectCore:Database.obj
 0002:fffad000       $unwind$?erase@?$_Tree@V?$_Tmap_traits@IUTypeInheritance@cldb@@U?$less@I@std@@V?$allocator@U?$pair@$$CBIUTypeInheritance@cldb@@@std@@@4@$0A@@std@@@std@@QEAA?AV?$_Tree_iterator@V?$_Tree_val@U?$_Tree_simple_types@U?$pair@$$CBIUTypeInheritance@cldb@@@std@@@std@@@std@@@2@V?$_Tree_const_iterator@V?$_Tree_val@U?$_Tree_simple_types@U?$pair@$$CBIUTypeInheritance@cldb@@@std@@@std@@@std@@@2@@Z 0000000180000000     clReflectCore:Database.obj
 0004:fff90000       $pdata$?_Extract@?$_Tree_val@U?$_Tree_simple_types@U?$pair@$$CBIUTypeInheritance@cldb@@@std@@@std@@@std@@QEAAPEAU?$_Tree_node@U?$pair@$$CBIUTypeInheritance@cldb@@@std@@PEAX@2@V?$_Tree_const_iterator@V?$_Tree_val@U?$_Tree_simple_types@U?$pair@$$CBIUTypeInheritance@cldb@@@std@@@std@@@std@@@2@@Z 0000000180000000     clReflectCore:Database.obj
 0002:fffad000       $unwind$?_Extract@?$_Tree_val@U?$_Tree_simple_types@U?$pair@$$CBIUTypeInheritance@cldb@@@std@@@std@@@std@@QEAAPEAU?$_Tree_node@U?$pair@$$CBIUTypeInheritance@cldb@@@std@@PEAX@2@V?$_Tree_const_iterator@V?$_Tree_val@U?$_Tree_simple_types@U?$pair@$$CBIUTypeInheritance@cldb@@@std@@@std@@@std@@@2@@Z 0000000180000000     clReflectCore:Database.obj
 0004:fff90000       $pdata$?_Erase@?$_Tree@V?$_Tmap_traits@IUContainerInfo@cldb@@U?$less@I@std@@V?$allocator@U?$pair@$$CBIUContainerInfo@cldb@@@std@@@4@$0A@@std@@@std@@IEAAXPEAU?$_Tree_node@U?$pair@$$CBIUContainerInfo@cldb@@@std@@PEAX@2@@Z 0000000180000000     clReflectCore:Database.obj
 0002:fffad000       $unwind$?_Erase@?$_Tree@V?$_Tmap_traits@IUContainerInfo@cldb@@U?$less@I@std@@V?$allocator@U?$pair@$$CBIUContainerInfo@cldb@@@std@@@4@$0A@@std@@@std@@IEAAXPEAU?$_Tree_node@U?$pair@$$CBIUContainerInfo@cldb@@@std@@PEAX@2@@Z 0000000180000000     clReflectCore:Database.obj
 0002:fffad000       $ip2state$?clear@?$_Tree@V?$_Tmap_traits@IUContainerInfo@cldb@@U?$less@I@std@@V?$allocator@U?$pair@$$CBIUContainerInfo@cldb@@@std@@@4@$0A@@std@@@std@@QEAAXXZ 0000000180000000     clReflectCore:Database.obj
 0002:fffad000       $cppxdata$?clear@?$_Tree@V?$_Tmap_traits@IUContainerInfo@cldb@@U?$less@I@std@@V?$allocator@U?$pair@$$CBIUContainerInfo@cldb@@@std@@@4@$0A@@std@@@std@@QEAAXXZ 0000000180000000     clReflectCore:Database.obj
 0004:fff90000       $pdata$?clear@?$_Tree@V?$_Tmap_traits@IUContainerInfo@cldb@@U?$less@I@std@@V?$allocator@U?$pair@$$CBIUContainerInfo@cldb@@@std@@@4@$0A@@std@@@std@@QEAAXXZ 0000000180000000     clReflectCore:Database.obj
 0002:fffad000       $unwind$?clear@?$_Tree@V?$_Tmap_traits@IUContainerInfo@cldb@@U?$less@I@std@@V?$allocator@U?$pair@$$CBIUContainerInfo@cldb@@@std@@@4@$0A@@std@@@std@@QEAAXXZ 0000000180000000     clReflectCore:Database.obj
 0004:fff90000       $pdata$?erase@?$_Tree@V?$_Tmap_traits@IUContainerInfo@cldb@@U?$less@I@std@@V?$allocator@U?$pair@$$CBIUContainerInfo@cldb@@@std@@@4@$0A@@std@@@std@@QEAA?AV?$_Tree_iterator@V?$_Tree_val@U?$_Tree_simple_types@U?$pair@$$CBIUContainerInfo@cldb@@@std@@@std@@@std@@@2@V?$_Tree_const_iterator@V?$_Tree_val@U?$_Tree_simple_types@U?$pair@$$CBIUContainerInfo@cldb@@@std@@@std@@@std@@@2@0@Z 0000000180000000     clReflectCore:Database.obj
 0002:fffad000       $unwind$?erase@?$_Tree@V?$_Tmap_traits@IUContainerInfo@cldb@@U?$less@I@std@@V?$allocator@U?$pair@$$CBIUContainerInfo@cldb@@@std@@@4@$0A@@std@@@std@@QEAA?AV?$_Tree_iterator@V?$_Tree_val@U?$_Tree_simple_types@U?$pair@$$CBIUContainerInfo@cldb@@@std@@@std@@@std@@@2@V?$_Tree_const_iterator@V?$_Tree_val@U?$_Tree_simple_types@U?$pair@$$CBIUContainerInfo@cldb@@@std@@@std@@@std@@@2@0@Z 0000000180000000     clReflectCore:Database.obj
 0004:fff90000       $pdata$?erase@?$_Tree@V?$_Tmap_traits@IUContainerInfo@cldb@@U?$less@I@std@@V?$allocator@U?$pair@$$CBIUContainerInfo@cldb@@@std@@@4@$0A@@std@@@std@@QEAA?AV?$_Tree_iterator@V?$_Tree_val@U?$_Tree_simple_types@U?$pair@$$CBIUContainerInfo@cldb@@@std@@@std@@@std@@@2@V?$_Tree_const_iterator@V?$_Tree_val@U?$_Tree_simple_types@U?$pair@$$CBIUContainerInfo@cldb@@@std@@@std@@@std@@@2@@Z 0000000180000000     clReflectCore:Database.obj
 0002:fffad000       $unwind$?erase@?$_Tree@V?$_Tmap_traits@IUContainerInfo@cldb@@U?$less@I@std@@V?$allocator@U?$pair@$$CBIUContainerInfo@cldb@@@std@@@4@$0A@@std@@@std@@QEAA?AV?$_Tree_iterator@V?$_Tree_val@U?$_Tree_simple_types@U?$pair@$$CBIUContainerInfo@cldb@@@std@@@std@@@std@@@2@V?$_Tree_const_iterator@V?$_Tree_val@U?$_Tree_simple_types@U?$pair@$$CBIUContainerInfo@cldb@@@std@@@std@@@std@@@2@@Z 0000000180000000     clReflectCore:Database.obj
 0002:fffad000       $unwind$??$_Insert_nohint@U?$pair@$$CBIUField@cldb@@@std@@U_Not_a_node_tag@2@@?$_Tree@V?$_Tmap_traits@IUField@cldb@@U?$less@I@std@@V?$allocator@U?$pair@$$CBIUField@cldb@@@std@@@4@$00@std@@@std@@IEAA?AU?$pair@V?$_Tree_iterator@V?$_Tree_val@U?$_Tree_simple_types@U?$pair@$$CBIUField@cldb@@@std@@@std@@@std@@@std@@_N@1@_N$$QEAU?$pair@$$CBIUField@cldb@@@1@U_Not_a_node_tag@1@@Z 0000000180000000     clReflectCore:DatabaseBinarySerialiser.obj
 0004:fff90000       $pdata$??$_Insert_nohint@U?$pair@$$CBIUField@cldb@@@std@@U_Not_a_node_tag@2@@?$_Tree@V?$_Tmap_traits@IUField@cldb@@U?$less@I@std@@V?$allocator@U?$pair@$$CBIUField@cldb@@@std@@@4@$00@std@@@std@@IEAA?AU?$pair@V?$_Tree_iterator@V?$_Tree_val@U?$_Tree_simple_types@U?$pair@$$CBIUField@cldb@@@std@@@std@@@std@@@std@@_N@1@_N$$QEAU?$pair@$$CBIUField@cldb@@@1@U_Not_a_node_tag@1@@Z 0000000180000000     clReflectCore:DatabaseBinarySerialiser.obj
 0002:fffad000       $cppxdata$??$_Insert_nohint@U?$pair@$$CBIUField@cldb@@@std@@U_Not_a_node_tag@2@@?$_Tree@V?$_Tmap_traits@IUField@cldb@@U?$less@I@std@@V?$allocator@U?$pair@$$CBIUField@cldb@@@std@@@4@$00@std@@@std@@IEAA?AU?$pair@V?$_Tree_iterator@V?$_Tree_val@U?$_Tree_simple_types@U?$pair@$$CBIUField@cldb@@@std@@@std@@@std@@@std@@_N@1@_N$$QEAU?$pair@$$CBIUField@cldb@@@1@U_Not_a_node_tag@1@@Z 0000000180000000     clReflectCore:DatabaseBinarySerialiser.obj
 0001:fffff000       ?dtor$0@?0???0TemplateType@cldb@@QEAA@XZ@4HA 0000000180000000 f   clReflectCore:DatabaseMetadata.obj
 0002:fffad000       $stateUnwindMap$??$_Insert_nohint@U?$pair@$$CBIUField@cldb@@@std@@U_Not_a_node_tag@2@@?$_Tree@V?$_Tmap_traits@IUField@cldb@@U?$less@I@std@@V?$allocator@U?$pair@$$CBIUField@cldb@@@std@@@4@$00@std@@@std@@IEAA?AU?$pair@V?$_Tree_iterator@V?$_Tree_val@U?$_Tree_simple_types@U?$pair@$$CBIUField@cldb@@@std@@@std@@@std@@@std@@_N@1@_N$$QEAU?$pair@$$CBIUField@cldb@@@1@U_Not_a_node_tag@1@@Z 0000000180000000     clReflectCore:DatabaseBinarySerialiser.obj
 0002:fffad000       $tryMap$??$_Insert_nohint@U?$pair@$$CBIUField@cldb@@@std@@U_Not_a_node_tag@2@@?$_Tree@V?$_Tmap_traits@IUField@cldb@@U?$less@I@std@@V?$allocator@U?$pair@$$CBIUField@cldb@@@std@@@4@$00@std@@@std@@IEAA?AU?$pair@V?$_Tree_iterator@V?$_Tree_val@U?$_Tree_simple_types@U?$pair@$$CBIUField@cldb@@@std@@@std@@@std@@@std@@_N@1@_N$$QEAU?$pair@$$CBIUField@cldb@@@1@U_Not_a_node_tag@1@@Z 0000000180000000     clReflectCore:DatabaseBinarySerialiser.obj
 0002:fffad000       $handlerMap$0$??$_Insert_nohint@U?$pair@$$CBIUField@cldb@@@std@@U_Not_a_node_tag@2@@?$_Tree@V?$_Tmap_traits@IUField@cldb@@U?$less@I@std@@V?$allocator@U?$pair@$$CBIUField@cldb@@@std@@@4@$00@std@@@std@@IEAA?AU?$pair@V?$_Tree_iterator@V?$_Tree_val@U?$_Tree_simple_types@U?$pair@$$CBIUField@cldb@@@std@@@std@@@std@@@std@@_N@1@_N$$QEAU?$pair@$$CBIUField@cldb@@@1@U_Not_a_node_tag@1@@Z 0000000180000000     clReflectCore:DatabaseBinarySerialiser.obj
 0002:fffad000       $ip2state$??$_Insert_nohint@U?$pair@$$CBIUField@cldb@@@std@@U_Not_a_node_tag@2@@?$_Tree@V?$_Tmap_traits@IUField@cldb@@U?$less@I@std@@V?$allocator@U?$pair@$$CBIUField@cldb@@@std@@@4@$00@std@@@std@@IEAA?AU?$pair@V?$_Tree_iterator@V?$_Tree_val@U?$_Tree_simple_types@U?$pair@$$CBIUField@cldb@@@std@@@std@@@std@@@std@@_N@1@_N$$QEAU?$pair@$$CBIUField@cldb@@@1@U_Not_a_node_tag@1@@Z 0000000180000000     clReflectCore:DatabaseBinarySerialiser.obj
