 clmerge

 Timestamp is 618bbf6e (Wed Nov 10 21:47:42 2021)

 Preferred load address is 0000000180000000

 Start         Length     Name                   Class
 0001:00000000 00000170H .text$di                CODE
 0001:00000170 0002fdb0H .text$mn                CODE
 0001:0002ff20 00000012H .text$mn$00             CODE
 0001:0002ff32 0000241eH .text$x                 CODE
 0001:00032350 00000278H .text$yd                CODE
 0002:00000000 000002c0H .idata$5                DATA
 0002:000002c0 00000010H .00cfg                  DATA
 0002:000002d0 00000008H .CRT$XCA                DATA
 0002:000002d8 000000b0H .CRT$XCU                DATA
 0002:00000388 00000008H .CRT$XCZ                DATA
 0002:00000390 00000008H .CRT$XIA                DATA
 0002:00000398 00000008H .CRT$XIC                DATA
 0002:000003a0 00000008H .CRT$XIZ                DATA
 0002:000003a8 00000008H .CRT$XLA                DATA
 0002:000003b0 00000008H .CRT$XLZ                DATA
 0002:000003b8 00000008H .CRT$XPA                DATA
 0002:000003c0 00000008H .CRT$XPZ                DATA
 0002:000003c8 00000008H .CRT$XTA                DATA
 0002:000003d0 00000010H .CRT$XTZ                DATA
 0002:000003d8 00000000H .gfids$y                DATA
 0002:000003e0 00003bc0H .rdata                  DATA
 0002:00003fa0 00000028H .rdata$T                DATA
 0002:00003fc8 0000070cH .rdata$r                DATA
 0002:000046d4 0000039cH .rdata$zzzdbg           DATA
 0002:00004a70 00000008H .rtc$IAA                DATA
 0002:00004a78 00000008H .rtc$IZZ                DATA
 0002:00004a80 00000008H .rtc$TAA                DATA
 0002:00004a88 00000008H .rtc$TZZ                DATA
 0002:00004a90 00000004H .tls                    DATA
 0002:00004a94 00000004H .tls$                   DATA
 0002:00004a98 00000008H .tls$ZZZ                DATA
 0002:00004aa0 00008a68H .xdata                  DATA
 0002:0000d508 000000f8H .xdata$x                DATA
 0002:0000d600 00000048H .edata                  DATA
 0002:0000d648 000000a0H .idata$2                DATA
 0002:0000d6e8 00000018H .idata$3                DATA
 0002:0000d700 000002c0H .idata$4                DATA
 0002:0000d9c0 000006bcH .idata$6                DATA
 0003:00000000 00000ab8H .data                   DATA
 0003:00000ab8 00000268H .data$r                 DATA
 0003:00000d20 00001900H .bss                    DATA
 0004:00000000 00003168H .pdata                  DATA
 0005:00000000 00000060H .rsrc$01                DATA
 0005:00000060 00000180H .rsrc$02                DATA

  Address         Publics by Value              Rva+Base               Lib:Object

 0000:00000000       __hybrid_auxiliary_iat     0000000000000000     <absolute>
 0000:00000000       ___safe_se_handler_count   0000000000000000     <absolute>
 0000:00000000       __guard_iat_count          0000000000000000     <absolute>
 0000:00000000       __dynamic_value_reloc_table 0000000000000000     <absolute>
 0000:00000000       __hybrid_code_map          0000000000000000     <absolute>
 0000:00000000       __volatile_metadata        0000000000000000     <absolute>
 0000:00000000       __guard_fids_count         0000000000000000     <absolute>
 0000:00000000       __guard_longjmp_count      0000000000000000     <absolute>
 0000:00000000       __guard_iat_table          0000000000000000     <absolute>
 0000:00000000       __guard_longjmp_table      0000000000000000     <absolute>
 0000:00000000       __guard_fids_table         0000000000000000     <absolute>
 0000:00000000       __enclave_config           0000000000000000     <absolute>
 0000:00000000       __hybrid_code_map_count    0000000000000000     <absolute>
 0000:00000000       ___safe_se_handler_table   0000000000000000     <absolute>
 0000:00000100       __guard_flags              0000000000000100     <absolute>
 0000:00000000       __ImageBase                0000000180000000     <linker-defined>
 0001:00000170       ??$?HDU?$char_traits@D@std@@V?$allocator@D@1@@std@@YA?AV?$basic_string@DU?$char_traits@D@std@@V?$allocator@D@2@@0@QEBD$$QEAV10@@Z 0000000180001170 f i CodeGen.obj
 0001:000001e0       ??$?HDU?$char_traits@D@std@@V?$allocator@D@1@@std@@YA?AV?$basic_string@DU?$char_traits@D@std@@V?$allocator@D@2@@0@QEBDAEBV10@@Z 00000001800011e0 f i CodeGen.obj
 0001:00000fc4       ??$_Reallocate_for@V<lambda_66f57f934f28d61049862f64df852ff0>@@PEBD@?$basic_string@DU?$char_traits@D@std@@V?$allocator@D@2@@std@@QEAAAEAV01@_KV<lambda_66f57f934f28d61049862f64df852ff0>@@PEBD@Z 0000000180001fc4 f i CodeGen.obj
 0001:000010ec       ??$_Reallocate_grow_by@V<lambda_65e615be2a453ca0576c979606f46740>@@PEBD_K@?$basic_string@DU?$char_traits@D@std@@V?$allocator@D@2@@std@@QEAAAEAV01@_KV<lambda_65e615be2a453ca0576c979606f46740>@@PEBD_K@Z 00000001800020ec f i CodeGen.obj
 0001:00001260       ??$_Reallocate_grow_by@V<lambda_9013ee9e23efe4882b67eff5b0ecf103>@@$$V@?$basic_string@DU?$char_traits@D@std@@V?$allocator@D@2@@std@@QEAAAEAV01@_KV<lambda_9013ee9e23efe4882b67eff5b0ecf103>@@@Z 0000000180002260 f i CodeGen.obj
 0001:00001394       ??$_Reallocate_grow_by@V<lambda_f3a66ab6a0570788f31503db83886f49>@@_KPEBD_K@?$basic_string@DU?$char_traits@D@std@@V?$allocator@D@2@@std@@QEAAAEAV01@_KV<lambda_f3a66ab6a0570788f31503db83886f49>@@_KPEBD2@Z 0000000180002394 f i CodeGen.obj
 0001:00001528       ??$_Traits_rfind@U?$char_traits@D@std@@@std@@YA_KQEBD_K101@Z 0000000180002528 f i CodeGen.obj
 0001:0000175c       ??0CodeGen@@QEAA@XZ        000000018000275c f   CodeGen.obj
 0001:00001814       ??1?$basic_string@DU?$char_traits@D@std@@V?$allocator@D@2@@std@@QEAA@XZ 0000000180002814 f i CodeGen.obj
 0001:000018f4       ??1CodeGen@@QEAA@XZ        00000001800028f4 f i CodeGen.obj
 0001:000019cc       ??4?$basic_string@DU?$char_traits@D@std@@V?$allocator@D@2@@std@@QEAAAEAV01@$$QEAV01@@Z 00000001800029cc f i CodeGen.obj
 0001:000022c4       ?EnterScope@CodeGen@@QEAAXXZ 00000001800032c4 f   CodeGen.obj
 0001:000022e8       ?ExitScope@CodeGen@@QEAAXXZ 00000001800032e8 f   CodeGen.obj
 0001:00002778       ?GenMergedCppImpl@@YAXPEBD0AEBVDatabase@cldb@@@Z 0000000180003778 f   CodeGen.obj
 0001:00002ed4       ?GenerateHash@CodeGen@@QEBAIXZ 0000000180003ed4 f   CodeGen.obj
 0001:00002f1c       ?Indent@CodeGen@@QEAAXXZ   0000000180003f1c f   CodeGen.obj
 0001:00002f20       ?Line@CodeGen@@QEAAXPEBDZZ 0000000180003f20 f   CodeGen.obj
 0001:00003000       ?Line@CodeGen@@QEAAXXZ     0000000180004000 f   CodeGen.obj
 0001:000030e8       ?PrefixLine@CodeGen@@QEAAXPEBDZZ 00000001800040e8 f   CodeGen.obj
 0001:000032c4       ?UnIndent@CodeGen@@QEAAXXZ 00000001800042c4 f   CodeGen.obj
 0001:000033fc       ?WriteToFile@CodeGen@@QEAAXPEBD@Z 00000001800043fc f   CodeGen.obj
 0001:00003458       ?_Become_small@?$basic_string@DU?$char_traits@D@std@@V?$allocator@D@2@@std@@QEAAXXZ 0000000180004458 f i CodeGen.obj
 0001:000035cc       ?_Xlen@?$basic_string@DU?$char_traits@D@std@@V?$allocator@D@2@@std@@SAXXZ 00000001800045cc f i CodeGen.obj
 0001:00003608       ?_Xran@?$_String_val@U?$_Simple_types@D@std@@@std@@SAXXZ 0000000180004608 f i CodeGen.obj
 0001:0000361c       ?append@?$basic_string@DU?$char_traits@D@std@@V?$allocator@D@2@@std@@QEAAAEAV12@QEBD_K@Z 000000018000461c f i CodeGen.obj
 0001:00003694       ?assign@?$basic_string@DU?$char_traits@D@std@@V?$allocator@D@2@@std@@QEAAAEAV12@AEBV12@_K_K@Z 0000000180004694 f i CodeGen.obj
 0001:0000371c       ?assign@?$basic_string@DU?$char_traits@D@std@@V?$allocator@D@2@@std@@QEAAAEAV12@QEBD@Z 000000018000471c f i CodeGen.obj
 0001:00003864       ?insert@?$basic_string@DU?$char_traits@D@std@@V?$allocator@D@2@@std@@QEAAAEAV12@_KQEBD0@Z 0000000180004864 f i CodeGen.obj
 0001:00003954       __local_stdio_printf_options 0000000180004954 f i CodeGen.obj
 0001:0000395c       __local_stdio_scanf_options 000000018000495c f i CodeGen.obj
 0001:00003964       fscanf                     0000000180004964 f i CodeGen.obj
 0001:000039a8       ??$?0$$CBIUTextAttribute@cldb@@$0A@@?$pair@$$CBIUTextAttribute@cldb@@@std@@QEAA@AEBIAEBUTextAttribute@cldb@@@Z 00000001800049a8 f i DatabaseMerge.obj
 0001:00003a1c       ??$Add@UClass@cldb@@@Database@cldb@@QEAAXAEBUName@1@AEBUClass@1@@Z 0000000180004a1c f i DatabaseMerge.obj
 0001:00003abc       ??$Add@UContainerInfo@cldb@@@Database@cldb@@QEAAXAEBUName@1@AEBUContainerInfo@1@@Z 0000000180004abc f i DatabaseMerge.obj
 0001:00003b3c       ??$Add@UEnum@cldb@@@Database@cldb@@QEAAXAEBUName@1@AEBUEnum@1@@Z 0000000180004b3c f i DatabaseMerge.obj
 0001:00003bdc       ??$Add@UEnumConstant@cldb@@@Database@cldb@@QEAAXAEBUName@1@AEBUEnumConstant@1@@Z 0000000180004bdc f i DatabaseMerge.obj
 0001:00003c74       ??$Add@UField@cldb@@@Database@cldb@@QEAAXAEBUName@1@AEBUField@1@@Z 0000000180004c74 f i DatabaseMerge.obj
 0001:00003cf4       ??$Add@UFlagAttribute@cldb@@@Database@cldb@@QEAAXAEBUName@1@AEBUFlagAttribute@1@@Z 0000000180004cf4 f i DatabaseMerge.obj
 0001:00003d8c       ??$Add@UFloatAttribute@cldb@@@Database@cldb@@QEAAXAEBUName@1@AEBUFloatAttribute@1@@Z 0000000180004d8c f i DatabaseMerge.obj
 0001:00003e44       ??$Add@UFunction@cldb@@@Database@cldb@@QEAAXAEBUName@1@AEBUFunction@1@@Z 0000000180004e44 f i DatabaseMerge.obj
 0001:00003eec       ??$Add@UIntAttribute@cldb@@@Database@cldb@@QEAAXAEBUName@1@AEBUIntAttribute@1@@Z 0000000180004eec f i DatabaseMerge.obj
 0001:00003fa0       ??$Add@UNamespace@cldb@@@Database@cldb@@QEAAXAEBUName@1@AEBUNamespace@1@@Z 0000000180004fa0 f i DatabaseMerge.obj
 0001:00004020       ??$Add@UPrimitiveAttribute@cldb@@@Database@cldb@@QEAAXAEBUName@1@AEBUPrimitiveAttribute@1@@Z 0000000180005020 f i DatabaseMerge.obj
 0001:000040a0       ??$Add@UTemplate@cldb@@@Database@cldb@@QEAAXAEBUName@1@AEBUTemplate@1@@Z 00000001800050a0 f i DatabaseMerge.obj
 0001:00004120       ??$Add@UTemplateType@cldb@@@Database@cldb@@QEAAXAEBUName@1@AEBUTemplateType@1@@Z 0000000180005120 f i DatabaseMerge.obj
 0001:000041bc       ??$Add@UTextAttribute@cldb@@@Database@cldb@@QEAAXAEBUName@1@AEBUTextAttribute@1@@Z 00000001800051bc f i DatabaseMerge.obj
 0001:00004234       ??$Add@UType@cldb@@@Database@cldb@@QEAAXAEBUName@1@AEBUType@1@@Z 0000000180005234 f i DatabaseMerge.obj
 0001:000042cc       ??$Add@UTypeInheritance@cldb@@@Database@cldb@@QEAAXAEBUName@1@AEBUTypeInheritance@1@@Z 00000001800052cc f i DatabaseMerge.obj
 0001:000055b4       ??$_Buynode@U?$pair@$$CBIUClass@cldb@@@std@@@?$_Tree_comp_alloc@V?$_Tmap_traits@IUClass@cldb@@U?$less@I@std@@V?$allocator@U?$pair@$$CBIUClass@cldb@@@std@@@4@$00@std@@@std@@QEAAPEAU?$_Tree_node@U?$pair@$$CBIUClass@cldb@@@std@@PEAX@1@$$QEAU?$pair@$$CBIUClass@cldb@@@1@@Z 00000001800065b4 f i DatabaseMerge.obj
 0001:0000561c       ??$_Buynode@U?$pair@$$CBIUContainerInfo@cldb@@@std@@@?$_Tree_comp_alloc@V?$_Tmap_traits@IUContainerInfo@cldb@@U?$less@I@std@@V?$allocator@U?$pair@$$CBIUContainerInfo@cldb@@@std@@@4@$0A@@std@@@std@@QEAAPEAU?$_Tree_node@U?$pair@$$CBIUContainerInfo@cldb@@@std@@PEAX@1@$$QEAU?$pair@$$CBIUContainerInfo@cldb@@@1@@Z 000000018000661c f i DatabaseMerge.obj
 0001:0000566c       ??$_Buynode@U?$pair@$$CBIUEnum@cldb@@@std@@@?$_Tree_comp_alloc@V?$_Tmap_traits@IUEnum@cldb@@U?$less@I@std@@V?$allocator@U?$pair@$$CBIUEnum@cldb@@@std@@@4@$00@std@@@std@@QEAAPEAU?$_Tree_node@U?$pair@$$CBIUEnum@cldb@@@std@@PEAX@1@$$QEAU?$pair@$$CBIUEnum@cldb@@@1@@Z 000000018000666c f i DatabaseMerge.obj
 0001:000056d4       ??$_Buynode@U?$pair@$$CBIUEnumConstant@cldb@@@std@@@?$_Tree_comp_alloc@V?$_Tmap_traits@IUEnumConstant@cldb@@U?$less@I@std@@V?$allocator@U?$pair@$$CBIUEnumConstant@cldb@@@std@@@4@$00@std@@@std@@QEAAPEAU?$_Tree_node@U?$pair@$$CBIUEnumConstant@cldb@@@std@@PEAX@1@$$QEAU?$pair@$$CBIUEnumConstant@cldb@@@1@@Z 00000001800066d4 f i DatabaseMerge.obj
 0001:00005734       ??$_Buynode@U?$pair@$$CBIUField@cldb@@@std@@@?$_Tree_comp_alloc@V?$_Tmap_traits@IUField@cldb@@U?$less@I@std@@V?$allocator@U?$pair@$$CBIUField@cldb@@@std@@@4@$00@std@@@std@@QEAAPEAU?$_Tree_node@U?$pair@$$CBIUField@cldb@@@std@@PEAX@1@$$QEAU?$pair@$$CBIUField@cldb@@@1@@Z 0000000180006734 f i DatabaseMerge.obj
 0001:00005784       ??$_Buynode@U?$pair@$$CBIUFlagAttribute@cldb@@@std@@@?$_Tree_comp_alloc@V?$_Tmap_traits@IUFlagAttribute@cldb@@U?$less@I@std@@V?$allocator@U?$pair@$$CBIUFlagAttribute@cldb@@@std@@@4@$00@std@@@std@@QEAAPEAU?$_Tree_node@U?$pair@$$CBIUFlagAttribute@cldb@@@std@@PEAX@1@$$QEAU?$pair@$$CBIUFlagAttribute@cldb@@@1@@Z 0000000180006784 f i DatabaseMerge.obj
 0001:000057e0       ??$_Buynode@U?$pair@$$CBIUFloatAttribute@cldb@@@std@@@?$_Tree_comp_alloc@V?$_Tmap_traits@IUFloatAttribute@cldb@@U?$less@I@std@@V?$allocator@U?$pair@$$CBIUFloatAttribute@cldb@@@std@@@4@$00@std@@@std@@QEAAPEAU?$_Tree_node@U?$pair@$$CBIUFloatAttribute@cldb@@@std@@PEAX@1@$$QEAU?$pair@$$CBIUFloatAttribute@cldb@@@1@@Z 00000001800067e0 f i DatabaseMerge.obj
 0001:00005840       ??$_Buynode@U?$pair@$$CBIUFunction@cldb@@@std@@@?$_Tree_comp_alloc@V?$_Tmap_traits@IUFunction@cldb@@U?$less@I@std@@V?$allocator@U?$pair@$$CBIUFunction@cldb@@@std@@@4@$00@std@@@std@@QEAAPEAU?$_Tree_node@U?$pair@$$CBIUFunction@cldb@@@std@@PEAX@1@$$QEAU?$pair@$$CBIUFunction@cldb@@@1@@Z 0000000180006840 f i DatabaseMerge.obj
 0001:000058ac       ??$_Buynode@U?$pair@$$CBIUIntAttribute@cldb@@@std@@@?$_Tree_comp_alloc@V?$_Tmap_traits@IUIntAttribute@cldb@@U?$less@I@std@@V?$allocator@U?$pair@$$CBIUIntAttribute@cldb@@@std@@@4@$00@std@@@std@@QEAAPEAU?$_Tree_node@U?$pair@$$CBIUIntAttribute@cldb@@@std@@PEAX@1@$$QEAU?$pair@$$CBIUIntAttribute@cldb@@@1@@Z 00000001800068ac f i DatabaseMerge.obj
 0001:0000590c       ??$_Buynode@U?$pair@$$CBIUNamespace@cldb@@@std@@@?$_Tree_comp_alloc@V?$_Tmap_traits@IUNamespace@cldb@@U?$less@I@std@@V?$allocator@U?$pair@$$CBIUNamespace@cldb@@@std@@@4@$00@std@@@std@@QEAAPEAU?$_Tree_node@U?$pair@$$CBIUNamespace@cldb@@@std@@PEAX@1@$$QEAU?$pair@$$CBIUNamespace@cldb@@@1@@Z 000000018000690c f i DatabaseMerge.obj
 0001:0000595c       ??$_Buynode@U?$pair@$$CBIUPrimitiveAttribute@cldb@@@std@@@?$_Tree_comp_alloc@V?$_Tmap_traits@IUPrimitiveAttribute@cldb@@U?$less@I@std@@V?$allocator@U?$pair@$$CBIUPrimitiveAttribute@cldb@@@std@@@4@$00@std@@@std@@QEAAPEAU?$_Tree_node@U?$pair@$$CBIUPrimitiveAttribute@cldb@@@std@@PEAX@1@$$QEAU?$pair@$$CBIUPrimitiveAttribute@cldb@@@1@@Z 000000018000695c f i DatabaseMerge.obj
 0001:000059ac       ??$_Buynode@U?$pair@$$CBIUTemplate@cldb@@@std@@@?$_Tree_comp_alloc@V?$_Tmap_traits@IUTemplate@cldb@@U?$less@I@std@@V?$allocator@U?$pair@$$CBIUTemplate@cldb@@@std@@@4@$00@std@@@std@@QEAAPEAU?$_Tree_node@U?$pair@$$CBIUTemplate@cldb@@@std@@PEAX@1@$$QEAU?$pair@$$CBIUTemplate@cldb@@@1@@Z 00000001800069ac f i DatabaseMerge.obj
 0001:000059fc       ??$_Buynode@U?$pair@$$CBIUTemplateType@cldb@@@std@@@?$_Tree_comp_alloc@V?$_Tmap_traits@IUTemplateType@cldb@@U?$less@I@std@@V?$allocator@U?$pair@$$CBIUTemplateType@cldb@@@std@@@4@$00@std@@@std@@QEAAPEAU?$_Tree_node@U?$pair@$$CBIUTemplateType@cldb@@@std@@PEAX@1@$$QEAU?$pair@$$CBIUTemplateType@cldb@@@1@@Z 00000001800069fc f i DatabaseMerge.obj
 0001:00005a4c       ??$_Buynode@U?$pair@$$CBIUTextAttribute@cldb@@@std@@@?$_Tree_comp_alloc@V?$_Tmap_traits@IUTextAttribute@cldb@@U?$less@I@std@@V?$allocator@U?$pair@$$CBIUTextAttribute@cldb@@@std@@@4@$00@std@@@std@@QEAAPEAU?$_Tree_node@U?$pair@$$CBIUTextAttribute@cldb@@@std@@PEAX@1@$$QEAU?$pair@$$CBIUTextAttribute@cldb@@@1@@Z 0000000180006a4c f i DatabaseMerge.obj
 0001:00005a94       ??$_Buynode@U?$pair@$$CBIUType@cldb@@@std@@@?$_Tree_comp_alloc@V?$_Tmap_traits@IUType@cldb@@U?$less@I@std@@V?$allocator@U?$pair@$$CBIUType@cldb@@@std@@@4@$00@std@@@std@@QEAAPEAU?$_Tree_node@U?$pair@$$CBIUType@cldb@@@std@@PEAX@1@$$QEAU?$pair@$$CBIUType@cldb@@@1@@Z 0000000180006a94 f i DatabaseMerge.obj
 0001:00005af4       ??$_Buynode@U?$pair@$$CBIUTypeInheritance@cldb@@@std@@@?$_Tree_comp_alloc@V?$_Tmap_traits@IUTypeInheritance@cldb@@U?$less@I@std@@V?$allocator@U?$pair@$$CBIUTypeInheritance@cldb@@@std@@@4@$0A@@std@@@std@@QEAAPEAU?$_Tree_node@U?$pair@$$CBIUTypeInheritance@cldb@@@std@@PEAX@1@$$QEAU?$pair@$$CBIUTypeInheritance@cldb@@@1@@Z 0000000180006af4 f i DatabaseMerge.obj
 0001:00005b44       ??$_Eqrange@I@?$_Tree@V?$_Tmap_traits@IUEnumConstant@cldb@@U?$less@I@std@@V?$allocator@U?$pair@$$CBIUEnumConstant@cldb@@@std@@@4@$00@std@@@std@@IEBA?AU?$pair@V?$_Tree_const_iterator@V?$_Tree_val@U?$_Tree_simple_types@U?$pair@$$CBIUEnumConstant@cldb@@@std@@@std@@@std@@@std@@V12@@1@AEBI@Z 0000000180006b44 f i DatabaseMerge.obj
 0001:00005bb8       ??$_Eqrange@I@?$_Tree@V?$_Tmap_traits@IUField@cldb@@U?$less@I@std@@V?$allocator@U?$pair@$$CBIUField@cldb@@@std@@@4@$00@std@@@std@@IEBA?AU?$pair@V?$_Tree_const_iterator@V?$_Tree_val@U?$_Tree_simple_types@U?$pair@$$CBIUField@cldb@@@std@@@std@@@std@@@std@@V12@@1@AEBI@Z 0000000180006bb8 f i DatabaseMerge.obj
 0001:00005c2c       ??$_Eqrange@I@?$_Tree@V?$_Tmap_traits@IUFlagAttribute@cldb@@U?$less@I@std@@V?$allocator@U?$pair@$$CBIUFlagAttribute@cldb@@@std@@@4@$00@std@@@std@@IEBA?AU?$pair@V?$_Tree_const_iterator@V?$_Tree_val@U?$_Tree_simple_types@U?$pair@$$CBIUFlagAttribute@cldb@@@std@@@std@@@std@@@std@@V12@@1@AEBI@Z 0000000180006c2c f i DatabaseMerge.obj
 0001:00005ca0       ??$_Eqrange@I@?$_Tree@V?$_Tmap_traits@IUFloatAttribute@cldb@@U?$less@I@std@@V?$allocator@U?$pair@$$CBIUFloatAttribute@cldb@@@std@@@4@$00@std@@@std@@IEBA?AU?$pair@V?$_Tree_const_iterator@V?$_Tree_val@U?$_Tree_simple_types@U?$pair@$$CBIUFloatAttribute@cldb@@@std@@@std@@@std@@@std@@V12@@1@AEBI@Z 0000000180006ca0 f i DatabaseMerge.obj
 0001:00005d14       ??$_Eqrange@I@?$_Tree@V?$_Tmap_traits@IUFunction@cldb@@U?$less@I@std@@V?$allocator@U?$pair@$$CBIUFunction@cldb@@@std@@@4@$00@std@@@std@@IEBA?AU?$pair@V?$_Tree_const_iterator@V?$_Tree_val@U?$_Tree_simple_types@U?$pair@$$CBIUFunction@cldb@@@std@@@std@@@std@@@std@@V12@@1@AEBI@Z 0000000180006d14 f i DatabaseMerge.obj
 0001:00005d88       ??$_Eqrange@I@?$_Tree@V?$_Tmap_traits@IUIntAttribute@cldb@@U?$less@I@std@@V?$allocator@U?$pair@$$CBIUIntAttribute@cldb@@@std@@@4@$00@std@@@std@@IEBA?AU?$pair@V?$_Tree_const_iterator@V?$_Tree_val@U?$_Tree_simple_types@U?$pair@$$CBIUIntAttribute@cldb@@@std@@@std@@@std@@@std@@V12@@1@AEBI@Z 0000000180006d88 f i DatabaseMerge.obj
 0001:00005dfc       ??$_Eqrange@I@?$_Tree@V?$_Tmap_traits@IUPrimitiveAttribute@cldb@@U?$less@I@std@@V?$allocator@U?$pair@$$CBIUPrimitiveAttribute@cldb@@@std@@@4@$00@std@@@std@@IEBA?AU?$pair@V?$_Tree_const_iterator@V?$_Tree_val@U?$_Tree_simple_types@U?$pair@$$CBIUPrimitiveAttribute@cldb@@@std@@@std@@@std@@@std@@V12@@1@AEBI@Z 0000000180006dfc f i DatabaseMerge.obj
 0001:00005e70       ??$_Eqrange@I@?$_Tree@V?$_Tmap_traits@IUTextAttribute@cldb@@U?$less@I@std@@V?$allocator@U?$pair@$$CBIUTextAttribute@cldb@@@std@@@4@$00@std@@@std@@IEBA?AU?$pair@V?$_Tree_const_iterator@V?$_Tree_val@U?$_Tree_simple_types@U?$pair@$$CBIUTextAttribute@cldb@@@std@@@std@@@std@@@std@@V12@@1@AEBI@Z 0000000180006e70 f i DatabaseMerge.obj
 0001:00005ee4       ??$_Insert_at@U?$pair@$$CBIUClass@cldb@@@std@@U_Not_a_node_tag@2@@?$_Tree@V?$_Tmap_traits@IUClass@cldb@@U?$less@I@std@@V?$allocator@U?$pair@$$CBIUClass@cldb@@@std@@@4@$00@std@@@std@@IEAA?AV?$_Tree_iterator@V?$_Tree_val@U?$_Tree_simple_types@U?$pair@$$CBIUClass@cldb@@@std@@@std@@@std@@@1@_NPEAU?$_Tree_node@U?$pair@$$CBIUClass@cldb@@@std@@PEAX@1@$$QEAU?$pair@$$CBIUClass@cldb@@@1@U_Not_a_node_tag@1@@Z 0000000180006ee4 f i DatabaseMerge.obj
 0001:00006180       ??$_Insert_at@U?$pair@$$CBIUContainerInfo@cldb@@@std@@U_Not_a_node_tag@2@@?$_Tree@V?$_Tmap_traits@IUContainerInfo@cldb@@U?$less@I@std@@V?$allocator@U?$pair@$$CBIUContainerInfo@cldb@@@std@@@4@$0A@@std@@@std@@IEAA?AV?$_Tree_iterator@V?$_Tree_val@U?$_Tree_simple_types@U?$pair@$$CBIUContainerInfo@cldb@@@std@@@std@@@std@@@1@_NPEAU?$_Tree_node@U?$pair@$$CBIUContainerInfo@cldb@@@std@@PEAX@1@$$QEAU?$pair@$$CBIUContainerInfo@cldb@@@1@U_Not_a_node_tag@1@@Z 0000000180007180 f i DatabaseMerge.obj
 0001:0000641c       ??$_Insert_at@U?$pair@$$CBIUEnum@cldb@@@std@@U_Not_a_node_tag@2@@?$_Tree@V?$_Tmap_traits@IUEnum@cldb@@U?$less@I@std@@V?$allocator@U?$pair@$$CBIUEnum@cldb@@@std@@@4@$00@std@@@std@@IEAA?AV?$_Tree_iterator@V?$_Tree_val@U?$_Tree_simple_types@U?$pair@$$CBIUEnum@cldb@@@std@@@std@@@std@@@1@_NPEAU?$_Tree_node@U?$pair@$$CBIUEnum@cldb@@@std@@PEAX@1@$$QEAU?$pair@$$CBIUEnum@cldb@@@1@U_Not_a_node_tag@1@@Z 000000018000741c f i DatabaseMerge.obj
 0001:000066b8       ??$_Insert_at@U?$pair@$$CBIUEnumConstant@cldb@@@std@@U_Not_a_node_tag@2@@?$_Tree@V?$_Tmap_traits@IUEnumConstant@cldb@@U?$less@I@std@@V?$allocator@U?$pair@$$CBIUEnumConstant@cldb@@@std@@@4@$00@std@@@std@@IEAA?AV?$_Tree_iterator@V?$_Tree_val@U?$_Tree_simple_types@U?$pair@$$CBIUEnumConstant@cldb@@@std@@@std@@@std@@@1@_NPEAU?$_Tree_node@U?$pair@$$CBIUEnumConstant@cldb@@@std@@PEAX@1@$$QEAU?$pair@$$CBIUEnumConstant@cldb@@@1@U_Not_a_node_tag@1@@Z 00000001800076b8 f i DatabaseMerge.obj
 0001:00006954       ??$_Insert_at@U?$pair@$$CBIUField@cldb@@@std@@U_Not_a_node_tag@2@@?$_Tree@V?$_Tmap_traits@IUField@cldb@@U?$less@I@std@@V?$allocator@U?$pair@$$CBIUField@cldb@@@std@@@4@$00@std@@@std@@IEAA?AV?$_Tree_iterator@V?$_Tree_val@U?$_Tree_simple_types@U?$pair@$$CBIUField@cldb@@@std@@@std@@@std@@@1@_NPEAU?$_Tree_node@U?$pair@$$CBIUField@cldb@@@std@@PEAX@1@$$QEAU?$pair@$$CBIUField@cldb@@@1@U_Not_a_node_tag@1@@Z 0000000180007954 f i DatabaseMerge.obj
 0001:00006bf0       ??$_Insert_at@U?$pair@$$CBIUFlagAttribute@cldb@@@std@@U_Not_a_node_tag@2@@?$_Tree@V?$_Tmap_traits@IUFlagAttribute@cldb@@U?$less@I@std@@V?$allocator@U?$pair@$$CBIUFlagAttribute@cldb@@@std@@@4@$00@std@@@std@@IEAA?AV?$_Tree_iterator@V?$_Tree_val@U?$_Tree_simple_types@U?$pair@$$CBIUFlagAttribute@cldb@@@std@@@std@@@std@@@1@_NPEAU?$_Tree_node@U?$pair@$$CBIUFlagAttribute@cldb@@@std@@PEAX@1@$$QEAU?$pair@$$CBIUFlagAttribute@cldb@@@1@U_Not_a_node_tag@1@@Z 0000000180007bf0 f i DatabaseMerge.obj
 0001:00006e8c       ??$_Insert_at@U?$pair@$$CBIUFloatAttribute@cldb@@@std@@U_Not_a_node_tag@2@@?$_Tree@V?$_Tmap_traits@IUFloatAttribute@cldb@@U?$less@I@std@@V?$allocator@U?$pair@$$CBIUFloatAttribute@cldb@@@std@@@4@$00@std@@@std@@IEAA?AV?$_Tree_iterator@V?$_Tree_val@U?$_Tree_simple_types@U?$pair@$$CBIUFloatAttribute@cldb@@@std@@@std@@@std@@@1@_NPEAU?$_Tree_node@U?$pair@$$CBIUFloatAttribute@cldb@@@std@@PEAX@1@$$QEAU?$pair@$$CBIUFloatAttribute@cldb@@@1@U_Not_a_node_tag@1@@Z 0000000180007e8c f i DatabaseMerge.obj
 0001:00007128       ??$_Insert_at@U?$pair@$$CBIUFunction@cldb@@@std@@U_Not_a_node_tag@2@@?$_Tree@V?$_Tmap_traits@IUFunction@cldb@@U?$less@I@std@@V?$allocator@U?$pair@$$CBIUFunction@cldb@@@std@@@4@$00@std@@@std@@IEAA?AV?$_Tree_iterator@V?$_Tree_val@U?$_Tree_simple_types@U?$pair@$$CBIUFunction@cldb@@@std@@@std@@@std@@@1@_NPEAU?$_Tree_node@U?$pair@$$CBIUFunction@cldb@@@std@@PEAX@1@$$QEAU?$pair@$$CBIUFunction@cldb@@@1@U_Not_a_node_tag@1@@Z 0000000180008128 f i DatabaseMerge.obj
 0001:000073c4       ??$_Insert_at@U?$pair@$$CBIUIntAttribute@cldb@@@std@@U_Not_a_node_tag@2@@?$_Tree@V?$_Tmap_traits@IUIntAttribute@cldb@@U?$less@I@std@@V?$allocator@U?$pair@$$CBIUIntAttribute@cldb@@@std@@@4@$00@std@@@std@@IEAA?AV?$_Tree_iterator@V?$_Tree_val@U?$_Tree_simple_types@U?$pair@$$CBIUIntAttribute@cldb@@@std@@@std@@@std@@@1@_NPEAU?$_Tree_node@U?$pair@$$CBIUIntAttribute@cldb@@@std@@PEAX@1@$$QEAU?$pair@$$CBIUIntAttribute@cldb@@@1@U_Not_a_node_tag@1@@Z 00000001800083c4 f i DatabaseMerge.obj
 0001:00007660       ??$_Insert_at@U?$pair@$$CBIUNamespace@cldb@@@std@@U_Not_a_node_tag@2@@?$_Tree@V?$_Tmap_traits@IUNamespace@cldb@@U?$less@I@std@@V?$allocator@U?$pair@$$CBIUNamespace@cldb@@@std@@@4@$00@std@@@std@@IEAA?AV?$_Tree_iterator@V?$_Tree_val@U?$_Tree_simple_types@U?$pair@$$CBIUNamespace@cldb@@@std@@@std@@@std@@@1@_NPEAU?$_Tree_node@U?$pair@$$CBIUNamespace@cldb@@@std@@PEAX@1@$$QEAU?$pair@$$CBIUNamespace@cldb@@@1@U_Not_a_node_tag@1@@Z 0000000180008660 f i DatabaseMerge.obj
 0001:000078fc       ??$_Insert_at@U?$pair@$$CBIUPrimitiveAttribute@cldb@@@std@@U_Not_a_node_tag@2@@?$_Tree@V?$_Tmap_traits@IUPrimitiveAttribute@cldb@@U?$less@I@std@@V?$allocator@U?$pair@$$CBIUPrimitiveAttribute@cldb@@@std@@@4@$00@std@@@std@@IEAA?AV?$_Tree_iterator@V?$_Tree_val@U?$_Tree_simple_types@U?$pair@$$CBIUPrimitiveAttribute@cldb@@@std@@@std@@@std@@@1@_NPEAU?$_Tree_node@U?$pair@$$CBIUPrimitiveAttribute@cldb@@@std@@PEAX@1@$$QEAU?$pair@$$CBIUPrimitiveAttribute@cldb@@@1@U_Not_a_node_tag@1@@Z 00000001800088fc f i DatabaseMerge.obj
 0001:00007b98       ??$_Insert_at@U?$pair@$$CBIUTemplate@cldb@@@std@@U_Not_a_node_tag@2@@?$_Tree@V?$_Tmap_traits@IUTemplate@cldb@@U?$less@I@std@@V?$allocator@U?$pair@$$CBIUTemplate@cldb@@@std@@@4@$00@std@@@std@@IEAA?AV?$_Tree_iterator@V?$_Tree_val@U?$_Tree_simple_types@U?$pair@$$CBIUTemplate@cldb@@@std@@@std@@@std@@@1@_NPEAU?$_Tree_node@U?$pair@$$CBIUTemplate@cldb@@@std@@PEAX@1@$$QEAU?$pair@$$CBIUTemplate@cldb@@@1@U_Not_a_node_tag@1@@Z 0000000180008b98 f i DatabaseMerge.obj
 0001:00007e34       ??$_Insert_at@U?$pair@$$CBIUTemplateType@cldb@@@std@@U_Not_a_node_tag@2@@?$_Tree@V?$_Tmap_traits@IUTemplateType@cldb@@U?$less@I@std@@V?$allocator@U?$pair@$$CBIUTemplateType@cldb@@@std@@@4@$00@std@@@std@@IEAA?AV?$_Tree_iterator@V?$_Tree_val@U?$_Tree_simple_types@U?$pair@$$CBIUTemplateType@cldb@@@std@@@std@@@std@@@1@_NPEAU?$_Tree_node@U?$pair@$$CBIUTemplateType@cldb@@@std@@PEAX@1@$$QEAU?$pair@$$CBIUTemplateType@cldb@@@1@U_Not_a_node_tag@1@@Z 0000000180008e34 f i DatabaseMerge.obj
 0001:000080d0       ??$_Insert_at@U?$pair@$$CBIUTextAttribute@cldb@@@std@@U_Not_a_node_tag@2@@?$_Tree@V?$_Tmap_traits@IUTextAttribute@cldb@@U?$less@I@std@@V?$allocator@U?$pair@$$CBIUTextAttribute@cldb@@@std@@@4@$00@std@@@std@@IEAA?AV?$_Tree_iterator@V?$_Tree_val@U?$_Tree_simple_types@U?$pair@$$CBIUTextAttribute@cldb@@@std@@@std@@@std@@@1@_NPEAU?$_Tree_node@U?$pair@$$CBIUTextAttribute@cldb@@@std@@PEAX@1@$$QEAU?$pair@$$CBIUTextAttribute@cldb@@@1@U_Not_a_node_tag@1@@Z 00000001800090d0 f i DatabaseMerge.obj
 0001:0000836c       ??$_Insert_at@U?$pair@$$CBIUType@cldb@@@std@@U_Not_a_node_tag@2@@?$_Tree@V?$_Tmap_traits@IUType@cldb@@U?$less@I@std@@V?$allocator@U?$pair@$$CBIUType@cldb@@@std@@@4@$00@std@@@std@@IEAA?AV?$_Tree_iterator@V?$_Tree_val@U?$_Tree_simple_types@U?$pair@$$CBIUType@cldb@@@std@@@std@@@std@@@1@_NPEAU?$_Tree_node@U?$pair@$$CBIUType@cldb@@@std@@PEAX@1@$$QEAU?$pair@$$CBIUType@cldb@@@1@U_Not_a_node_tag@1@@Z 000000018000936c f i DatabaseMerge.obj
 0001:00008608       ??$_Insert_at@U?$pair@$$CBIUTypeInheritance@cldb@@@std@@U_Not_a_node_tag@2@@?$_Tree@V?$_Tmap_traits@IUTypeInheritance@cldb@@U?$less@I@std@@V?$allocator@U?$pair@$$CBIUTypeInheritance@cldb@@@std@@@4@$0A@@std@@@std@@IEAA?AV?$_Tree_iterator@V?$_Tree_val@U?$_Tree_simple_types@U?$pair@$$CBIUTypeInheritance@cldb@@@std@@@std@@@std@@@1@_NPEAU?$_Tree_node@U?$pair@$$CBIUTypeInheritance@cldb@@@std@@PEAX@1@$$QEAU?$pair@$$CBIUTypeInheritance@cldb@@@1@U_Not_a_node_tag@1@@Z 0000000180009608 f i DatabaseMerge.obj
 0001:000088a4       ??$_Insert_nohint@U?$pair@$$CBIUClass@cldb@@@std@@U_Not_a_node_tag@2@@?$_Tree@V?$_Tmap_traits@IUClass@cldb@@U?$less@I@std@@V?$allocator@U?$pair@$$CBIUClass@cldb@@@std@@@4@$00@std@@@std@@IEAA?AU?$pair@V?$_Tree_iterator@V?$_Tree_val@U?$_Tree_simple_types@U?$pair@$$CBIUClass@cldb@@@std@@@std@@@std@@@std@@_N@1@_N$$QEAU?$pair@$$CBIUClass@cldb@@@1@U_Not_a_node_tag@1@@Z 00000001800098a4 f i DatabaseMerge.obj
 0001:00008928       ??$_Insert_nohint@U?$pair@$$CBIUContainerInfo@cldb@@@std@@U_Not_a_node_tag@2@@?$_Tree@V?$_Tmap_traits@IUContainerInfo@cldb@@U?$less@I@std@@V?$allocator@U?$pair@$$CBIUContainerInfo@cldb@@@std@@@4@$0A@@std@@@std@@IEAA?AU?$pair@V?$_Tree_iterator@V?$_Tree_val@U?$_Tree_simple_types@U?$pair@$$CBIUContainerInfo@cldb@@@std@@@std@@@std@@@std@@_N@1@_N$$QEAU?$pair@$$CBIUContainerInfo@cldb@@@1@U_Not_a_node_tag@1@@Z 0000000180009928 f i DatabaseMerge.obj
 0001:00008a3c       ??$_Insert_nohint@U?$pair@$$CBIUEnum@cldb@@@std@@U_Not_a_node_tag@2@@?$_Tree@V?$_Tmap_traits@IUEnum@cldb@@U?$less@I@std@@V?$allocator@U?$pair@$$CBIUEnum@cldb@@@std@@@4@$00@std@@@std@@IEAA?AU?$pair@V?$_Tree_iterator@V?$_Tree_val@U?$_Tree_simple_types@U?$pair@$$CBIUEnum@cldb@@@std@@@std@@@std@@@std@@_N@1@_N$$QEAU?$pair@$$CBIUEnum@cldb@@@1@U_Not_a_node_tag@1@@Z 0000000180009a3c f i DatabaseMerge.obj
 0001:00008ac0       ??$_Insert_nohint@U?$pair@$$CBIUEnumConstant@cldb@@@std@@U_Not_a_node_tag@2@@?$_Tree@V?$_Tmap_traits@IUEnumConstant@cldb@@U?$less@I@std@@V?$allocator@U?$pair@$$CBIUEnumConstant@cldb@@@std@@@4@$00@std@@@std@@IEAA?AU?$pair@V?$_Tree_iterator@V?$_Tree_val@U?$_Tree_simple_types@U?$pair@$$CBIUEnumConstant@cldb@@@std@@@std@@@std@@@std@@_N@1@_N$$QEAU?$pair@$$CBIUEnumConstant@cldb@@@1@U_Not_a_node_tag@1@@Z 0000000180009ac0 f i DatabaseMerge.obj
 0001:00008b44       ??$_Insert_nohint@U?$pair@$$CBIUField@cldb@@@std@@U_Not_a_node_tag@2@@?$_Tree@V?$_Tmap_traits@IUField@cldb@@U?$less@I@std@@V?$allocator@U?$pair@$$CBIUField@cldb@@@std@@@4@$00@std@@@std@@IEAA?AU?$pair@V?$_Tree_iterator@V?$_Tree_val@U?$_Tree_simple_types@U?$pair@$$CBIUField@cldb@@@std@@@std@@@std@@@std@@_N@1@_N$$QEAU?$pair@$$CBIUField@cldb@@@1@U_Not_a_node_tag@1@@Z 0000000180009b44 f i DatabaseMerge.obj
 0001:00008bc8       ??$_Insert_nohint@U?$pair@$$CBIUFlagAttribute@cldb@@@std@@U_Not_a_node_tag@2@@?$_Tree@V?$_Tmap_traits@IUFlagAttribute@cldb@@U?$less@I@std@@V?$allocator@U?$pair@$$CBIUFlagAttribute@cldb@@@std@@@4@$00@std@@@std@@IEAA?AU?$pair@V?$_Tree_iterator@V?$_Tree_val@U?$_Tree_simple_types@U?$pair@$$CBIUFlagAttribute@cldb@@@std@@@std@@@std@@@std@@_N@1@_N$$QEAU?$pair@$$CBIUFlagAttribute@cldb@@@1@U_Not_a_node_tag@1@@Z 0000000180009bc8 f i DatabaseMerge.obj
 0001:00008c4c       ??$_Insert_nohint@U?$pair@$$CBIUFloatAttribute@cldb@@@std@@U_Not_a_node_tag@2@@?$_Tree@V?$_Tmap_traits@IUFloatAttribute@cldb@@U?$less@I@std@@V?$allocator@U?$pair@$$CBIUFloatAttribute@cldb@@@std@@@4@$00@std@@@std@@IEAA?AU?$pair@V?$_Tree_iterator@V?$_Tree_val@U?$_Tree_simple_types@U?$pair@$$CBIUFloatAttribute@cldb@@@std@@@std@@@std@@@std@@_N@1@_N$$QEAU?$pair@$$CBIUFloatAttribute@cldb@@@1@U_Not_a_node_tag@1@@Z 0000000180009c4c f i DatabaseMerge.obj
 0001:00008cd0       ??$_Insert_nohint@U?$pair@$$CBIUFunction@cldb@@@std@@U_Not_a_node_tag@2@@?$_Tree@V?$_Tmap_traits@IUFunction@cldb@@U?$less@I@std@@V?$allocator@U?$pair@$$CBIUFunction@cldb@@@std@@@4@$00@std@@@std@@IEAA?AU?$pair@V?$_Tree_iterator@V?$_Tree_val@U?$_Tree_simple_types@U?$pair@$$CBIUFunction@cldb@@@std@@@std@@@std@@@std@@_N@1@_N$$QEAU?$pair@$$CBIUFunction@cldb@@@1@U_Not_a_node_tag@1@@Z 0000000180009cd0 f i DatabaseMerge.obj
 0001:00008d54       ??$_Insert_nohint@U?$pair@$$CBIUIntAttribute@cldb@@@std@@U_Not_a_node_tag@2@@?$_Tree@V?$_Tmap_traits@IUIntAttribute@cldb@@U?$less@I@std@@V?$allocator@U?$pair@$$CBIUIntAttribute@cldb@@@std@@@4@$00@std@@@std@@IEAA?AU?$pair@V?$_Tree_iterator@V?$_Tree_val@U?$_Tree_simple_types@U?$pair@$$CBIUIntAttribute@cldb@@@std@@@std@@@std@@@std@@_N@1@_N$$QEAU?$pair@$$CBIUIntAttribute@cldb@@@1@U_Not_a_node_tag@1@@Z 0000000180009d54 f i DatabaseMerge.obj
 0001:00008dd8       ??$_Insert_nohint@U?$pair@$$CBIUNamespace@cldb@@@std@@U_Not_a_node_tag@2@@?$_Tree@V?$_Tmap_traits@IUNamespace@cldb@@U?$less@I@std@@V?$allocator@U?$pair@$$CBIUNamespace@cldb@@@std@@@4@$00@std@@@std@@IEAA?AU?$pair@V?$_Tree_iterator@V?$_Tree_val@U?$_Tree_simple_types@U?$pair@$$CBIUNamespace@cldb@@@std@@@std@@@std@@@std@@_N@1@_N$$QEAU?$pair@$$CBIUNamespace@cldb@@@1@U_Not_a_node_tag@1@@Z 0000000180009dd8 f i DatabaseMerge.obj
 0001:00008e5c       ??$_Insert_nohint@U?$pair@$$CBIUPrimitiveAttribute@cldb@@@std@@U_Not_a_node_tag@2@@?$_Tree@V?$_Tmap_traits@IUPrimitiveAttribute@cldb@@U?$less@I@std@@V?$allocator@U?$pair@$$CBIUPrimitiveAttribute@cldb@@@std@@@4@$00@std@@@std@@IEAA?AU?$pair@V?$_Tree_iterator@V?$_Tree_val@U?$_Tree_simple_types@U?$pair@$$CBIUPrimitiveAttribute@cldb@@@std@@@std@@@std@@@std@@_N@1@_N$$QEAU?$pair@$$CBIUPrimitiveAttribute@cldb@@@1@U_Not_a_node_tag@1@@Z 0000000180009e5c f i DatabaseMerge.obj
 0001:00008ee0       ??$_Insert_nohint@U?$pair@$$CBIUTemplate@cldb@@@std@@U_Not_a_node_tag@2@@?$_Tree@V?$_Tmap_traits@IUTemplate@cldb@@U?$less@I@std@@V?$allocator@U?$pair@$$CBIUTemplate@cldb@@@std@@@4@$00@std@@@std@@IEAA?AU?$pair@V?$_Tree_iterator@V?$_Tree_val@U?$_Tree_simple_types@U?$pair@$$CBIUTemplate@cldb@@@std@@@std@@@std@@@std@@_N@1@_N$$QEAU?$pair@$$CBIUTemplate@cldb@@@1@U_Not_a_node_tag@1@@Z 0000000180009ee0 f i DatabaseMerge.obj
 0001:00008f64       ??$_Insert_nohint@U?$pair@$$CBIUTemplateType@cldb@@@std@@U_Not_a_node_tag@2@@?$_Tree@V?$_Tmap_traits@IUTemplateType@cldb@@U?$less@I@std@@V?$allocator@U?$pair@$$CBIUTemplateType@cldb@@@std@@@4@$00@std@@@std@@IEAA?AU?$pair@V?$_Tree_iterator@V?$_Tree_val@U?$_Tree_simple_types@U?$pair@$$CBIUTemplateType@cldb@@@std@@@std@@@std@@@std@@_N@1@_N$$QEAU?$pair@$$CBIUTemplateType@cldb@@@1@U_Not_a_node_tag@1@@Z 0000000180009f64 f i DatabaseMerge.obj
 0001:00008fe8       ??$_Insert_nohint@U?$pair@$$CBIUTextAttribute@cldb@@@std@@U_Not_a_node_tag@2@@?$_Tree@V?$_Tmap_traits@IUTextAttribute@cldb@@U?$less@I@std@@V?$allocator@U?$pair@$$CBIUTextAttribute@cldb@@@std@@@4@$00@std@@@std@@IEAA?AU?$pair@V?$_Tree_iterator@V?$_Tree_val@U?$_Tree_simple_types@U?$pair@$$CBIUTextAttribute@cldb@@@std@@@std@@@std@@@std@@_N@1@_N$$QEAU?$pair@$$CBIUTextAttribute@cldb@@@1@U_Not_a_node_tag@1@@Z 0000000180009fe8 f i DatabaseMerge.obj
 0001:0000906c       ??$_Insert_nohint@U?$pair@$$CBIUType@cldb@@@std@@U_Not_a_node_tag@2@@?$_Tree@V?$_Tmap_traits@IUType@cldb@@U?$less@I@std@@V?$allocator@U?$pair@$$CBIUType@cldb@@@std@@@4@$00@std@@@std@@IEAA?AU?$pair@V?$_Tree_iterator@V?$_Tree_val@U?$_Tree_simple_types@U?$pair@$$CBIUType@cldb@@@std@@@std@@@std@@@std@@_N@1@_N$$QEAU?$pair@$$CBIUType@cldb@@@1@U_Not_a_node_tag@1@@Z 000000018000a06c f i DatabaseMerge.obj
 0001:000090f0       ??$_Insert_nohint@U?$pair@$$CBIUTypeInheritance@cldb@@@std@@U_Not_a_node_tag@2@@?$_Tree@V?$_Tmap_traits@IUTypeInheritance@cldb@@U?$less@I@std@@V?$allocator@U?$pair@$$CBIUTypeInheritance@cldb@@@std@@@4@$0A@@std@@@std@@IEAA?AU?$pair@V?$_Tree_iterator@V?$_Tree_val@U?$_Tree_simple_types@U?$pair@$$CBIUTypeInheritance@cldb@@@std@@@std@@@std@@@std@@_N@1@_N$$QEAU?$pair@$$CBIUTypeInheritance@cldb@@@1@U_Not_a_node_tag@1@@Z 000000018000a0f0 f i DatabaseMerge.obj
 0001:00009204       ??0?$pair@$$CBIUTextAttribute@cldb@@@std@@QEAA@$$QEAU01@@Z 000000018000a204 f i DatabaseMerge.obj
 0001:00009278       ??0ContainerInfo@cldb@@QEAA@$$QEAU01@@Z 000000018000a278 f i DatabaseMerge.obj
 0001:00009348       ??0ContainerInfo@cldb@@QEAA@AEBU01@@Z 000000018000a348 f i DatabaseMerge.obj
 0001:000093e8       ??0Field@cldb@@QEAA@$$QEAU01@@Z 000000018000a3e8 f i DatabaseMerge.obj
 0001:00009470       ??0Field@cldb@@QEAA@AEBU01@@Z 000000018000a470 f i DatabaseMerge.obj
 0001:000094f0       ??0Name@cldb@@QEAA@$$QEAU01@@Z 000000018000a4f0 f i DatabaseMerge.obj
 0001:00009540       ??0Name@cldb@@QEAA@AEBU01@@Z 000000018000a540 f i DatabaseMerge.obj
 0001:00009570       ??0Primitive@cldb@@QEAA@$$QEAU01@@Z 000000018000a570 f i DatabaseMerge.obj
 0001:00009604       ??0Primitive@cldb@@QEAA@AEBU01@@Z 000000018000a604 f i DatabaseMerge.obj
 0001:00009684       ??0PrimitiveAttribute@cldb@@QEAA@AEBU01@@Z 000000018000a684 f i DatabaseMerge.obj
 0001:000096f0       ??0TemplateType@cldb@@QEAA@$$QEAU01@@Z 000000018000a6f0 f i DatabaseMerge.obj
 0001:00009760       ??0TemplateType@cldb@@QEAA@AEBU01@@Z 000000018000a760 f i DatabaseMerge.obj
 0001:000097d4       ??0TypeInheritance@cldb@@QEAA@$$QEAU01@@Z 000000018000a7d4 f i DatabaseMerge.obj
 0001:00009898       ??0TypeInheritance@cldb@@QEAA@AEBU01@@Z 000000018000a898 f i DatabaseMerge.obj
 0001:0000992c       ??1?$pair@$$CBIUClass@cldb@@@std@@QEAA@XZ 000000018000a92c f i DatabaseMerge.obj
 0001:00009938       ??1?$pair@$$CBIUContainerInfo@cldb@@@std@@QEAA@XZ 000000018000a938 f i DatabaseMerge.obj
 0001:00009944       ??1?$pair@$$CBIUEnum@cldb@@@std@@QEAA@XZ 000000018000a944 f i DatabaseMerge.obj
 0001:00009950       ??1?$pair@$$CBIUEnumConstant@cldb@@@std@@QEAA@XZ 000000018000a950 f i DatabaseMerge.obj
 0001:0000995c       ??1?$pair@$$CBIUField@cldb@@@std@@QEAA@XZ 000000018000a95c f i DatabaseMerge.obj
 0001:00009968       ??1?$pair@$$CBIUFlagAttribute@cldb@@@std@@QEAA@XZ 000000018000a968 f i DatabaseMerge.obj
 0001:0000997c       ??1?$pair@$$CBIUFloatAttribute@cldb@@@std@@QEAA@XZ 000000018000a97c f i DatabaseMerge.obj
 0001:00009990       ??1?$pair@$$CBIUFunction@cldb@@@std@@QEAA@XZ 000000018000a990 f i DatabaseMerge.obj
 0001:0000999c       ??1?$pair@$$CBIUIntAttribute@cldb@@@std@@QEAA@XZ 000000018000a99c f i DatabaseMerge.obj
 0001:000099b0       ??1?$pair@$$CBIUNamespace@cldb@@@std@@QEAA@XZ 000000018000a9b0 f i DatabaseMerge.obj
 0001:000099bc       ??1?$pair@$$CBIUPrimitiveAttribute@cldb@@@std@@QEAA@XZ 000000018000a9bc f i DatabaseMerge.obj
 0001:000099c8       ??1?$pair@$$CBIUTemplate@cldb@@@std@@QEAA@XZ 000000018000a9c8 f i DatabaseMerge.obj
 0001:000099d4       ??1?$pair@$$CBIUTemplateType@cldb@@@std@@QEAA@XZ 000000018000a9d4 f i DatabaseMerge.obj
 0001:00009a10       ??1?$pair@$$CBIUTextAttribute@cldb@@@std@@QEAA@XZ 000000018000aa10 f i DatabaseMerge.obj
 0001:00009a1c       ??1?$pair@$$CBIUType@cldb@@@std@@QEAA@XZ 000000018000aa1c f i DatabaseMerge.obj
 0001:00009a28       ??1?$pair@$$CBIUTypeInheritance@cldb@@@std@@QEAA@XZ 000000018000aa28 f i DatabaseMerge.obj
 0001:00009a34       ??1Attribute@cldb@@UEAA@XZ 000000018000aa34 f i DatabaseMerge.obj
 0001:00009a48       ??1ContainerInfo@cldb@@QEAA@XZ 000000018000aa48 f i DatabaseMerge.obj
 0001:00009b40       ??1Field@cldb@@QEAA@XZ     000000018000ab40 f i DatabaseMerge.obj
 0001:00009ba8       ??1FlagAttribute@cldb@@UEAA@XZ 000000018000aba8 f i DatabaseMerge.obj
 0001:00009bbc       ??1FloatAttribute@cldb@@UEAA@XZ 000000018000abbc f i DatabaseMerge.obj
 0001:00009bd0       ??1IntAttribute@cldb@@UEAA@XZ 000000018000abd0 f i DatabaseMerge.obj
 0001:00009be4       ??1Name@cldb@@QEAA@XZ      000000018000abe4 f i DatabaseMerge.obj
 0001:00009c44       ??1Primitive@cldb@@QEAA@XZ 000000018000ac44 f i DatabaseMerge.obj
 0001:00009cec       ??1PrimitiveAttribute@cldb@@UEAA@XZ 000000018000acec f i DatabaseMerge.obj
 0001:00009d6c       ??1TextAttribute@cldb@@UEAA@XZ 000000018000ad6c f i DatabaseMerge.obj
 0001:00009de8       ??1Type@cldb@@QEAA@XZ      000000018000ade8 f i DatabaseMerge.obj
 0001:00009df0       ??1TypeInheritance@cldb@@QEAA@XZ 000000018000adf0 f i DatabaseMerge.obj
 0001:00009ee8       ??4?$basic_string@DU?$char_traits@D@std@@V?$allocator@D@2@@std@@QEAAAEAV01@AEBV01@@Z 000000018000aee8 f i DatabaseMerge.obj
 0001:00009f5c       ??F?$_Tree_unchecked_const_iterator@V?$_Tree_val@U?$_Tree_simple_types@U?$pair@$$CBIUContainerInfo@cldb@@@std@@@std@@@std@@U_Iterator_base0@2@@std@@QEAAAEAV01@XZ 000000018000af5c f i DatabaseMerge.obj
 0001:00009fd0       ??F?$_Tree_unchecked_const_iterator@V?$_Tree_val@U?$_Tree_simple_types@U?$pair@$$CBIUTypeInheritance@cldb@@@std@@@std@@@std@@U_Iterator_base0@2@@std@@QEAAAEAV01@XZ 000000018000afd0 f i DatabaseMerge.obj
 0001:0000a044       ??_EAttribute@cldb@@UEAAPEAXI@Z 000000018000b044 f i DatabaseMerge.obj
 0001:0000a044       ??_GAttribute@cldb@@UEAAPEAXI@Z 000000018000b044 f i DatabaseMerge.obj
 0001:0000a088       ??_EFlagAttribute@cldb@@UEAAPEAXI@Z 000000018000b088 f i DatabaseMerge.obj
 0001:0000a088       ??_GFlagAttribute@cldb@@UEAAPEAXI@Z 000000018000b088 f i DatabaseMerge.obj
 0001:0000a0cc       ??_GFloatAttribute@cldb@@UEAAPEAXI@Z 000000018000b0cc f i DatabaseMerge.obj
 0001:0000a0cc       ??_EFloatAttribute@cldb@@UEAAPEAXI@Z 000000018000b0cc f i DatabaseMerge.obj
 0001:0000a110       ??_EIntAttribute@cldb@@UEAAPEAXI@Z 000000018000b110 f i DatabaseMerge.obj
 0001:0000a110       ??_GIntAttribute@cldb@@UEAAPEAXI@Z 000000018000b110 f i DatabaseMerge.obj
 0001:0000a154       ??_EPrimitiveAttribute@cldb@@UEAAPEAXI@Z 000000018000b154 f i DatabaseMerge.obj
 0001:0000a154       ??_GPrimitiveAttribute@cldb@@UEAAPEAXI@Z 000000018000b154 f i DatabaseMerge.obj
 0001:0000a188       ??_ETextAttribute@cldb@@UEAAPEAXI@Z 000000018000b188 f i DatabaseMerge.obj
 0001:0000a188       ??_GTextAttribute@cldb@@UEAAPEAXI@Z 000000018000b188 f i DatabaseMerge.obj
 0001:0000a3b8       ?MergeDatabases@@YAXAEAVDatabase@cldb@@AEBV12@PEBD@Z 000000018000b3b8 f   DatabaseMerge.obj
 0001:0000a508       ?_Buynode0@?$_Tree_comp_alloc@V?$_Tmap_traits@IUClass@cldb@@U?$less@I@std@@V?$allocator@U?$pair@$$CBIUClass@cldb@@@std@@@4@$00@std@@@std@@QEAAPEAU?$_Tree_node@U?$pair@$$CBIUClass@cldb@@@std@@PEAX@2@XZ 000000018000b508 f i DatabaseMerge.obj
 0001:0000a548       ?_Buynode0@?$_Tree_comp_alloc@V?$_Tmap_traits@IUContainerInfo@cldb@@U?$less@I@std@@V?$allocator@U?$pair@$$CBIUContainerInfo@cldb@@@std@@@4@$0A@@std@@@std@@QEAAPEAU?$_Tree_node@U?$pair@$$CBIUContainerInfo@cldb@@@std@@PEAX@2@XZ 000000018000b548 f i DatabaseMerge.obj
 0001:0000a588       ?_Buynode0@?$_Tree_comp_alloc@V?$_Tmap_traits@IUEnum@cldb@@U?$less@I@std@@V?$allocator@U?$pair@$$CBIUEnum@cldb@@@std@@@4@$00@std@@@std@@QEAAPEAU?$_Tree_node@U?$pair@$$CBIUEnum@cldb@@@std@@PEAX@2@XZ 000000018000b588 f i DatabaseMerge.obj
 0001:0000a5c8       ?_Buynode0@?$_Tree_comp_alloc@V?$_Tmap_traits@IUEnumConstant@cldb@@U?$less@I@std@@V?$allocator@U?$pair@$$CBIUEnumConstant@cldb@@@std@@@4@$00@std@@@std@@QEAAPEAU?$_Tree_node@U?$pair@$$CBIUEnumConstant@cldb@@@std@@PEAX@2@XZ 000000018000b5c8 f i DatabaseMerge.obj
 0001:0000a608       ?_Buynode0@?$_Tree_comp_alloc@V?$_Tmap_traits@IUField@cldb@@U?$less@I@std@@V?$allocator@U?$pair@$$CBIUField@cldb@@@std@@@4@$00@std@@@std@@QEAAPEAU?$_Tree_node@U?$pair@$$CBIUField@cldb@@@std@@PEAX@2@XZ 000000018000b608 f i DatabaseMerge.obj
 0001:0000a648       ?_Buynode0@?$_Tree_comp_alloc@V?$_Tmap_traits@IUFlagAttribute@cldb@@U?$less@I@std@@V?$allocator@U?$pair@$$CBIUFlagAttribute@cldb@@@std@@@4@$00@std@@@std@@QEAAPEAU?$_Tree_node@U?$pair@$$CBIUFlagAttribute@cldb@@@std@@PEAX@2@XZ 000000018000b648 f i DatabaseMerge.obj
 0001:0000a688       ?_Buynode0@?$_Tree_comp_alloc@V?$_Tmap_traits@IUFloatAttribute@cldb@@U?$less@I@std@@V?$allocator@U?$pair@$$CBIUFloatAttribute@cldb@@@std@@@4@$00@std@@@std@@QEAAPEAU?$_Tree_node@U?$pair@$$CBIUFloatAttribute@cldb@@@std@@PEAX@2@XZ 000000018000b688 f i DatabaseMerge.obj
 0001:0000a6c8       ?_Buynode0@?$_Tree_comp_alloc@V?$_Tmap_traits@IUFunction@cldb@@U?$less@I@std@@V?$allocator@U?$pair@$$CBIUFunction@cldb@@@std@@@4@$00@std@@@std@@QEAAPEAU?$_Tree_node@U?$pair@$$CBIUFunction@cldb@@@std@@PEAX@2@XZ 000000018000b6c8 f i DatabaseMerge.obj
 0001:0000a708       ?_Buynode0@?$_Tree_comp_alloc@V?$_Tmap_traits@IUIntAttribute@cldb@@U?$less@I@std@@V?$allocator@U?$pair@$$CBIUIntAttribute@cldb@@@std@@@4@$00@std@@@std@@QEAAPEAU?$_Tree_node@U?$pair@$$CBIUIntAttribute@cldb@@@std@@PEAX@2@XZ 000000018000b708 f i DatabaseMerge.obj
 0001:0000a748       ?_Buynode0@?$_Tree_comp_alloc@V?$_Tmap_traits@IUNamespace@cldb@@U?$less@I@std@@V?$allocator@U?$pair@$$CBIUNamespace@cldb@@@std@@@4@$00@std@@@std@@QEAAPEAU?$_Tree_node@U?$pair@$$CBIUNamespace@cldb@@@std@@PEAX@2@XZ 000000018000b748 f i DatabaseMerge.obj
 0001:0000a788       ?_Buynode0@?$_Tree_comp_alloc@V?$_Tmap_traits@IUPrimitiveAttribute@cldb@@U?$less@I@std@@V?$allocator@U?$pair@$$CBIUPrimitiveAttribute@cldb@@@std@@@4@$00@std@@@std@@QEAAPEAU?$_Tree_node@U?$pair@$$CBIUPrimitiveAttribute@cldb@@@std@@PEAX@2@XZ 000000018000b788 f i DatabaseMerge.obj
 0001:0000a7c8       ?_Buynode0@?$_Tree_comp_alloc@V?$_Tmap_traits@IUTemplate@cldb@@U?$less@I@std@@V?$allocator@U?$pair@$$CBIUTemplate@cldb@@@std@@@4@$00@std@@@std@@QEAAPEAU?$_Tree_node@U?$pair@$$CBIUTemplate@cldb@@@std@@PEAX@2@XZ 000000018000b7c8 f i DatabaseMerge.obj
 0001:0000a808       ?_Buynode0@?$_Tree_comp_alloc@V?$_Tmap_traits@IUTemplateType@cldb@@U?$less@I@std@@V?$allocator@U?$pair@$$CBIUTemplateType@cldb@@@std@@@4@$00@std@@@std@@QEAAPEAU?$_Tree_node@U?$pair@$$CBIUTemplateType@cldb@@@std@@PEAX@2@XZ 000000018000b808 f i DatabaseMerge.obj
 0001:0000a848       ?_Buynode0@?$_Tree_comp_alloc@V?$_Tmap_traits@IUTextAttribute@cldb@@U?$less@I@std@@V?$allocator@U?$pair@$$CBIUTextAttribute@cldb@@@std@@@4@$00@std@@@std@@QEAAPEAU?$_Tree_node@U?$pair@$$CBIUTextAttribute@cldb@@@std@@PEAX@2@XZ 000000018000b848 f i DatabaseMerge.obj
 0001:0000a888       ?_Buynode0@?$_Tree_comp_alloc@V?$_Tmap_traits@IUType@cldb@@U?$less@I@std@@V?$allocator@U?$pair@$$CBIUType@cldb@@@std@@@4@$00@std@@@std@@QEAAPEAU?$_Tree_node@U?$pair@$$CBIUType@cldb@@@std@@PEAX@2@XZ 000000018000b888 f i DatabaseMerge.obj
 0001:0000a8c8       ?_Buynode0@?$_Tree_comp_alloc@V?$_Tmap_traits@IUTypeInheritance@cldb@@U?$less@I@std@@V?$allocator@U?$pair@$$CBIUTypeInheritance@cldb@@@std@@@4@$0A@@std@@@std@@QEAAPEAU?$_Tree_node@U?$pair@$$CBIUTypeInheritance@cldb@@@std@@PEAX@2@XZ 000000018000b8c8 f i DatabaseMerge.obj
 0001:0000a908       ?_Construct_lv_contents@?$basic_string@DU?$char_traits@D@std@@V?$allocator@D@2@@std@@QEAAXAEBV12@@Z 000000018000b908 f i DatabaseMerge.obj
 0001:0000a9e0       ?_Freenode0@?$_Tree_comp_alloc@V?$_Tmap_traits@IUClass@cldb@@U?$less@I@std@@V?$allocator@U?$pair@$$CBIUClass@cldb@@@std@@@4@$00@std@@@std@@QEAAXPEAU?$_Tree_node@U?$pair@$$CBIUClass@cldb@@@std@@PEAX@2@@Z 000000018000b9e0 f i DatabaseMerge.obj
 0001:0000a9f0       ?_Freenode0@?$_Tree_comp_alloc@V?$_Tmap_traits@IUContainerInfo@cldb@@U?$less@I@std@@V?$allocator@U?$pair@$$CBIUContainerInfo@cldb@@@std@@@4@$0A@@std@@@std@@QEAAXPEAU?$_Tree_node@U?$pair@$$CBIUContainerInfo@cldb@@@std@@PEAX@2@@Z 000000018000b9f0 f i DatabaseMerge.obj
 0001:0000aa00       ?_Freenode0@?$_Tree_comp_alloc@V?$_Tmap_traits@IUEnum@cldb@@U?$less@I@std@@V?$allocator@U?$pair@$$CBIUEnum@cldb@@@std@@@4@$00@std@@@std@@QEAAXPEAU?$_Tree_node@U?$pair@$$CBIUEnum@cldb@@@std@@PEAX@2@@Z 000000018000ba00 f i DatabaseMerge.obj
 0001:0000aa10       ?_Freenode0@?$_Tree_comp_alloc@V?$_Tmap_traits@IUEnumConstant@cldb@@U?$less@I@std@@V?$allocator@U?$pair@$$CBIUEnumConstant@cldb@@@std@@@4@$00@std@@@std@@QEAAXPEAU?$_Tree_node@U?$pair@$$CBIUEnumConstant@cldb@@@std@@PEAX@2@@Z 000000018000ba10 f i DatabaseMerge.obj
 0001:0000aa20       ?_Freenode0@?$_Tree_comp_alloc@V?$_Tmap_traits@IUField@cldb@@U?$less@I@std@@V?$allocator@U?$pair@$$CBIUField@cldb@@@std@@@4@$00@std@@@std@@QEAAXPEAU?$_Tree_node@U?$pair@$$CBIUField@cldb@@@std@@PEAX@2@@Z 000000018000ba20 f i DatabaseMerge.obj
 0001:0000aa30       ?_Freenode0@?$_Tree_comp_alloc@V?$_Tmap_traits@IUFlagAttribute@cldb@@U?$less@I@std@@V?$allocator@U?$pair@$$CBIUFlagAttribute@cldb@@@std@@@4@$00@std@@@std@@QEAAXPEAU?$_Tree_node@U?$pair@$$CBIUFlagAttribute@cldb@@@std@@PEAX@2@@Z 000000018000ba30 f i DatabaseMerge.obj
 0001:0000aa40       ?_Freenode0@?$_Tree_comp_alloc@V?$_Tmap_traits@IUFloatAttribute@cldb@@U?$less@I@std@@V?$allocator@U?$pair@$$CBIUFloatAttribute@cldb@@@std@@@4@$00@std@@@std@@QEAAXPEAU?$_Tree_node@U?$pair@$$CBIUFloatAttribute@cldb@@@std@@PEAX@2@@Z 000000018000ba40 f i DatabaseMerge.obj
 0001:0000aa50       ?_Freenode0@?$_Tree_comp_alloc@V?$_Tmap_traits@IUFunction@cldb@@U?$less@I@std@@V?$allocator@U?$pair@$$CBIUFunction@cldb@@@std@@@4@$00@std@@@std@@QEAAXPEAU?$_Tree_node@U?$pair@$$CBIUFunction@cldb@@@std@@PEAX@2@@Z 000000018000ba50 f i DatabaseMerge.obj
 0001:0000aa60       ?_Freenode0@?$_Tree_comp_alloc@V?$_Tmap_traits@IUIntAttribute@cldb@@U?$less@I@std@@V?$allocator@U?$pair@$$CBIUIntAttribute@cldb@@@std@@@4@$00@std@@@std@@QEAAXPEAU?$_Tree_node@U?$pair@$$CBIUIntAttribute@cldb@@@std@@PEAX@2@@Z 000000018000ba60 f i DatabaseMerge.obj
 0001:0000aa70       ?_Freenode0@?$_Tree_comp_alloc@V?$_Tmap_traits@IUNamespace@cldb@@U?$less@I@std@@V?$allocator@U?$pair@$$CBIUNamespace@cldb@@@std@@@4@$00@std@@@std@@QEAAXPEAU?$_Tree_node@U?$pair@$$CBIUNamespace@cldb@@@std@@PEAX@2@@Z 000000018000ba70 f i DatabaseMerge.obj
 0001:0000aa80       ?_Freenode0@?$_Tree_comp_alloc@V?$_Tmap_traits@IUPrimitiveAttribute@cldb@@U?$less@I@std@@V?$allocator@U?$pair@$$CBIUPrimitiveAttribute@cldb@@@std@@@4@$00@std@@@std@@QEAAXPEAU?$_Tree_node@U?$pair@$$CBIUPrimitiveAttribute@cldb@@@std@@PEAX@2@@Z 000000018000ba80 f i DatabaseMerge.obj
 0001:0000aa90       ?_Freenode0@?$_Tree_comp_alloc@V?$_Tmap_traits@IUTemplate@cldb@@U?$less@I@std@@V?$allocator@U?$pair@$$CBIUTemplate@cldb@@@std@@@4@$00@std@@@std@@QEAAXPEAU?$_Tree_node@U?$pair@$$CBIUTemplate@cldb@@@std@@PEAX@2@@Z 000000018000ba90 f i DatabaseMerge.obj
 0001:0000aaa0       ?_Freenode0@?$_Tree_comp_alloc@V?$_Tmap_traits@IUTemplateType@cldb@@U?$less@I@std@@V?$allocator@U?$pair@$$CBIUTemplateType@cldb@@@std@@@4@$00@std@@@std@@QEAAXPEAU?$_Tree_node@U?$pair@$$CBIUTemplateType@cldb@@@std@@PEAX@2@@Z 000000018000baa0 f i DatabaseMerge.obj
 0001:0000aab0       ?_Freenode0@?$_Tree_comp_alloc@V?$_Tmap_traits@IUTextAttribute@cldb@@U?$less@I@std@@V?$allocator@U?$pair@$$CBIUTextAttribute@cldb@@@std@@@4@$00@std@@@std@@QEAAXPEAU?$_Tree_node@U?$pair@$$CBIUTextAttribute@cldb@@@std@@PEAX@2@@Z 000000018000bab0 f i DatabaseMerge.obj
 0001:0000aac0       ?_Freenode0@?$_Tree_comp_alloc@V?$_Tmap_traits@IUType@cldb@@U?$less@I@std@@V?$allocator@U?$pair@$$CBIUType@cldb@@@std@@@4@$00@std@@@std@@QEAAXPEAU?$_Tree_node@U?$pair@$$CBIUType@cldb@@@std@@PEAX@2@@Z 000000018000bac0 f i DatabaseMerge.obj
 0001:0000aad0       ?_Freenode0@?$_Tree_comp_alloc@V?$_Tmap_traits@IUTypeInheritance@cldb@@U?$less@I@std@@V?$allocator@U?$pair@$$CBIUTypeInheritance@cldb@@@std@@@4@$0A@@std@@@std@@QEAAXPEAU?$_Tree_node@U?$pair@$$CBIUTypeInheritance@cldb@@@std@@PEAX@2@@Z 000000018000bad0 f i DatabaseMerge.obj
 0001:0000aae0       ?deallocate@?$allocator@U?$_Tree_node@U?$pair@$$CBIUClass@cldb@@@std@@PEAX@std@@@std@@QEAAXQEAU?$_Tree_node@U?$pair@$$CBIUClass@cldb@@@std@@PEAX@2@_K@Z 000000018000bae0 f i DatabaseMerge.obj
 0001:0000ab24       ?deallocate@?$allocator@U?$_Tree_node@U?$pair@$$CBIUContainerInfo@cldb@@@std@@PEAX@std@@@std@@QEAAXQEAU?$_Tree_node@U?$pair@$$CBIUContainerInfo@cldb@@@std@@PEAX@2@_K@Z 000000018000bb24 f i DatabaseMerge.obj
 0001:0000ab68       ?deallocate@?$allocator@U?$_Tree_node@U?$pair@$$CBIUEnum@cldb@@@std@@PEAX@std@@@std@@QEAAXQEAU?$_Tree_node@U?$pair@$$CBIUEnum@cldb@@@std@@PEAX@2@_K@Z 000000018000bb68 f i DatabaseMerge.obj
 0001:0000abac       ?deallocate@?$allocator@U?$_Tree_node@U?$pair@$$CBIUEnumConstant@cldb@@@std@@PEAX@std@@@std@@QEAAXQEAU?$_Tree_node@U?$pair@$$CBIUEnumConstant@cldb@@@std@@PEAX@2@_K@Z 000000018000bbac f i DatabaseMerge.obj
 0001:0000abf0       ?deallocate@?$allocator@U?$_Tree_node@U?$pair@$$CBIUField@cldb@@@std@@PEAX@std@@@std@@QEAAXQEAU?$_Tree_node@U?$pair@$$CBIUField@cldb@@@std@@PEAX@2@_K@Z 000000018000bbf0 f i DatabaseMerge.obj
 0001:0000ac34       ?deallocate@?$allocator@U?$_Tree_node@U?$pair@$$CBIUFlagAttribute@cldb@@@std@@PEAX@std@@@std@@QEAAXQEAU?$_Tree_node@U?$pair@$$CBIUFlagAttribute@cldb@@@std@@PEAX@2@_K@Z 000000018000bc34 f i DatabaseMerge.obj
 0001:0000ac78       ?deallocate@?$allocator@U?$_Tree_node@U?$pair@$$CBIUFloatAttribute@cldb@@@std@@PEAX@std@@@std@@QEAAXQEAU?$_Tree_node@U?$pair@$$CBIUFloatAttribute@cldb@@@std@@PEAX@2@_K@Z 000000018000bc78 f i DatabaseMerge.obj
 0001:0000acbc       ?deallocate@?$allocator@U?$_Tree_node@U?$pair@$$CBIUFunction@cldb@@@std@@PEAX@std@@@std@@QEAAXQEAU?$_Tree_node@U?$pair@$$CBIUFunction@cldb@@@std@@PEAX@2@_K@Z 000000018000bcbc f i DatabaseMerge.obj
 0001:0000ad00       ?deallocate@?$allocator@U?$_Tree_node@U?$pair@$$CBIUIntAttribute@cldb@@@std@@PEAX@std@@@std@@QEAAXQEAU?$_Tree_node@U?$pair@$$CBIUIntAttribute@cldb@@@std@@PEAX@2@_K@Z 000000018000bd00 f i DatabaseMerge.obj
 0001:0000ad44       ?deallocate@?$allocator@U?$_Tree_node@U?$pair@$$CBIUNamespace@cldb@@@std@@PEAX@std@@@std@@QEAAXQEAU?$_Tree_node@U?$pair@$$CBIUNamespace@cldb@@@std@@PEAX@2@_K@Z 000000018000bd44 f i DatabaseMerge.obj
 0001:0000ad88       ?deallocate@?$allocator@U?$_Tree_node@U?$pair@$$CBIUPrimitiveAttribute@cldb@@@std@@PEAX@std@@@std@@QEAAXQEAU?$_Tree_node@U?$pair@$$CBIUPrimitiveAttribute@cldb@@@std@@PEAX@2@_K@Z 000000018000bd88 f i DatabaseMerge.obj
 0001:0000adcc       ?deallocate@?$allocator@U?$_Tree_node@U?$pair@$$CBIUTemplate@cldb@@@std@@PEAX@std@@@std@@QEAAXQEAU?$_Tree_node@U?$pair@$$CBIUTemplate@cldb@@@std@@PEAX@2@_K@Z 000000018000bdcc f i DatabaseMerge.obj
 0001:0000ae10       ?deallocate@?$allocator@U?$_Tree_node@U?$pair@$$CBIUTemplateType@cldb@@@std@@PEAX@std@@@std@@QEAAXQEAU?$_Tree_node@U?$pair@$$CBIUTemplateType@cldb@@@std@@PEAX@2@_K@Z 000000018000be10 f i DatabaseMerge.obj
 0001:0000ae54       ?deallocate@?$allocator@U?$_Tree_node@U?$pair@$$CBIUTextAttribute@cldb@@@std@@PEAX@std@@@std@@QEAAXQEAU?$_Tree_node@U?$pair@$$CBIUTextAttribute@cldb@@@std@@PEAX@2@_K@Z 000000018000be54 f i DatabaseMerge.obj
 0001:0000ae98       ?deallocate@?$allocator@U?$_Tree_node@U?$pair@$$CBIUType@cldb@@@std@@PEAX@std@@@std@@QEAAXQEAU?$_Tree_node@U?$pair@$$CBIUType@cldb@@@std@@PEAX@2@_K@Z 000000018000be98 f i DatabaseMerge.obj
 0001:0000aedc       ?deallocate@?$allocator@U?$_Tree_node@U?$pair@$$CBIUTypeInheritance@cldb@@@std@@PEAX@std@@@std@@QEAAXQEAU?$_Tree_node@U?$pair@$$CBIUTypeInheritance@cldb@@@std@@PEAX@2@_K@Z 000000018000bedc f i DatabaseMerge.obj
 0001:0000af20       ??$_Resize@V<lambda_4bad70e8c3e06c245281339bf8eae5be>@@@?$vector@V?$basic_string@DU?$char_traits@D@std@@V?$allocator@D@2@@std@@V?$allocator@V?$basic_string@DU?$char_traits@D@std@@V?$allocator@D@2@@std@@@2@@std@@AEAAX_KV<lambda_4bad70e8c3e06c245281339bf8eae5be>@@@Z 000000018000bf20 f i Main.obj
 0001:0000b070       ??$_Uninitialized_move@PEAV?$basic_string@DU?$char_traits@D@std@@V?$allocator@D@2@@std@@PEAV12@V?$allocator@V?$basic_string@DU?$char_traits@D@std@@V?$allocator@D@2@@std@@@2@@std@@YAPEAV?$basic_string@DU?$char_traits@D@std@@V?$allocator@D@2@@0@QEAV10@0PEAV10@AEAV?$allocator@V?$basic_string@DU?$char_traits@D@std@@V?$allocator@D@2@@std@@@0@@Z 000000018000c070 f i Main.obj
 0001:0000b0fc       ??0Arguments@@QEAA@HQEAPEBD@Z 000000018000c0fc f i Main.obj
 0001:0000b18c       ??1?$vector@V?$basic_string@DU?$char_traits@D@std@@V?$allocator@D@2@@std@@V?$allocator@V?$basic_string@DU?$char_traits@D@std@@V?$allocator@D@2@@std@@@2@@std@@QEAA@XZ 000000018000c18c f i Main.obj
 0001:0000b194       ??1Arguments@@QEAA@XZ      000000018000c194 f i Main.obj
 0001:0000b19c       ??1Database@cldb@@QEAA@XZ  000000018000c19c f i Main.obj
 0001:0000b474       ??_G?$basic_string@DU?$char_traits@D@std@@V?$allocator@D@2@@std@@QEAAPEAXI@Z 000000018000c474 f i Main.obj
 0001:0000b4f4       ??_G?$pair@$$CBIUName@cldb@@@std@@QEAAPEAXI@Z 000000018000c4f4 f i Main.obj
 0001:0000b574       ?GetIndexOf@Arguments@@QEBA_KAEBV?$basic_string@DU?$char_traits@D@std@@V?$allocator@D@2@@std@@H@Z 000000018000c574 f i Main.obj
 0001:0000b628       ?GetProperty@Arguments@@QEBA?AV?$basic_string@DU?$char_traits@D@std@@V?$allocator@D@2@@std@@AEBV23@H@Z 000000018000c628 f i Main.obj
 0001:0000b6b0       ?_Change_array@?$vector@V?$basic_string@DU?$char_traits@D@std@@V?$allocator@D@2@@std@@V?$allocator@V?$basic_string@DU?$char_traits@D@std@@V?$allocator@D@2@@std@@@2@@std@@AEAAXQEAV?$basic_string@DU?$char_traits@D@std@@V?$allocator@D@2@@2@_K1@Z 000000018000c6b0 f i Main.obj
 0001:0000b768       ?_Destroy@?$vector@V?$basic_string@DU?$char_traits@D@std@@V?$allocator@D@2@@std@@V?$allocator@V?$basic_string@DU?$char_traits@D@std@@V?$allocator@D@2@@std@@@2@@std@@AEAAXPEAV?$basic_string@DU?$char_traits@D@std@@V?$allocator@D@2@@2@0@Z 000000018000c768 f i Main.obj
 0001:0000b79c       ?_Erase@?$_Tree@V?$_Tmap_traits@IUClass@cldb@@U?$less@I@std@@V?$allocator@U?$pair@$$CBIUClass@cldb@@@std@@@4@$00@std@@@std@@IEAAXPEAU?$_Tree_node@U?$pair@$$CBIUClass@cldb@@@std@@PEAX@2@@Z 000000018000c79c f i Main.obj
 0001:0000b7f8       ?_Erase@?$_Tree@V?$_Tmap_traits@IUContainerInfo@cldb@@U?$less@I@std@@V?$allocator@U?$pair@$$CBIUContainerInfo@cldb@@@std@@@4@$0A@@std@@@std@@IEAAXPEAU?$_Tree_node@U?$pair@$$CBIUContainerInfo@cldb@@@std@@PEAX@2@@Z 000000018000c7f8 f i Main.obj
 0001:0000b854       ?_Erase@?$_Tree@V?$_Tmap_traits@IUEnum@cldb@@U?$less@I@std@@V?$allocator@U?$pair@$$CBIUEnum@cldb@@@std@@@4@$00@std@@@std@@IEAAXPEAU?$_Tree_node@U?$pair@$$CBIUEnum@cldb@@@std@@PEAX@2@@Z 000000018000c854 f i Main.obj
 0001:0000b8b0       ?_Erase@?$_Tree@V?$_Tmap_traits@IUEnumConstant@cldb@@U?$less@I@std@@V?$allocator@U?$pair@$$CBIUEnumConstant@cldb@@@std@@@4@$00@std@@@std@@IEAAXPEAU?$_Tree_node@U?$pair@$$CBIUEnumConstant@cldb@@@std@@PEAX@2@@Z 000000018000c8b0 f i Main.obj
 0001:0000b90c       ?_Erase@?$_Tree@V?$_Tmap_traits@IUField@cldb@@U?$less@I@std@@V?$allocator@U?$pair@$$CBIUField@cldb@@@std@@@4@$00@std@@@std@@IEAAXPEAU?$_Tree_node@U?$pair@$$CBIUField@cldb@@@std@@PEAX@2@@Z 000000018000c90c f i Main.obj
 0001:0000b968       ?_Erase@?$_Tree@V?$_Tmap_traits@IUFlagAttribute@cldb@@U?$less@I@std@@V?$allocator@U?$pair@$$CBIUFlagAttribute@cldb@@@std@@@4@$00@std@@@std@@IEAAXPEAU?$_Tree_node@U?$pair@$$CBIUFlagAttribute@cldb@@@std@@PEAX@2@@Z 000000018000c968 f i Main.obj
 0001:0000b9d0       ?_Erase@?$_Tree@V?$_Tmap_traits@IUFloatAttribute@cldb@@U?$less@I@std@@V?$allocator@U?$pair@$$CBIUFloatAttribute@cldb@@@std@@@4@$00@std@@@std@@IEAAXPEAU?$_Tree_node@U?$pair@$$CBIUFloatAttribute@cldb@@@std@@PEAX@2@@Z 000000018000c9d0 f i Main.obj
 0001:0000ba38       ?_Erase@?$_Tree@V?$_Tmap_traits@IUFunction@cldb@@U?$less@I@std@@V?$allocator@U?$pair@$$CBIUFunction@cldb@@@std@@@4@$00@std@@@std@@IEAAXPEAU?$_Tree_node@U?$pair@$$CBIUFunction@cldb@@@std@@PEAX@2@@Z 000000018000ca38 f i Main.obj
 0001:0000ba94       ?_Erase@?$_Tree@V?$_Tmap_traits@IUGetTypeFunctions@cldb@@U?$less@I@std@@V?$allocator@U?$pair@$$CBIUGetTypeFunctions@cldb@@@std@@@4@$0A@@std@@@std@@IEAAXPEAU?$_Tree_node@U?$pair@$$CBIUGetTypeFunctions@cldb@@@std@@PEAX@2@@Z 000000018000ca94 f i Main.obj
 0001:0000bae8       ?_Erase@?$_Tree@V?$_Tmap_traits@IUIntAttribute@cldb@@U?$less@I@std@@V?$allocator@U?$pair@$$CBIUIntAttribute@cldb@@@std@@@4@$00@std@@@std@@IEAAXPEAU?$_Tree_node@U?$pair@$$CBIUIntAttribute@cldb@@@std@@PEAX@2@@Z 000000018000cae8 f i Main.obj
 0001:0000bb50       ?_Erase@?$_Tree@V?$_Tmap_traits@IUName@cldb@@U?$less@I@std@@V?$allocator@U?$pair@$$CBIUName@cldb@@@std@@@4@$0A@@std@@@std@@IEAAXPEAU?$_Tree_node@U?$pair@$$CBIUName@cldb@@@std@@PEAX@2@@Z 000000018000cb50 f i Main.obj
 0001:0000bbb0       ?_Erase@?$_Tree@V?$_Tmap_traits@IUNamespace@cldb@@U?$less@I@std@@V?$allocator@U?$pair@$$CBIUNamespace@cldb@@@std@@@4@$00@std@@@std@@IEAAXPEAU?$_Tree_node@U?$pair@$$CBIUNamespace@cldb@@@std@@PEAX@2@@Z 000000018000cbb0 f i Main.obj
 0001:0000bc0c       ?_Erase@?$_Tree@V?$_Tmap_traits@IUPrimitiveAttribute@cldb@@U?$less@I@std@@V?$allocator@U?$pair@$$CBIUPrimitiveAttribute@cldb@@@std@@@4@$00@std@@@std@@IEAAXPEAU?$_Tree_node@U?$pair@$$CBIUPrimitiveAttribute@cldb@@@std@@PEAX@2@@Z 000000018000cc0c f i Main.obj
 0001:0000bc68       ?_Erase@?$_Tree@V?$_Tmap_traits@IUTemplate@cldb@@U?$less@I@std@@V?$allocator@U?$pair@$$CBIUTemplate@cldb@@@std@@@4@$00@std@@@std@@IEAAXPEAU?$_Tree_node@U?$pair@$$CBIUTemplate@cldb@@@std@@PEAX@2@@Z 000000018000cc68 f i Main.obj
 0001:0000bcc4       ?_Erase@?$_Tree@V?$_Tmap_traits@IUTemplateType@cldb@@U?$less@I@std@@V?$allocator@U?$pair@$$CBIUTemplateType@cldb@@@std@@@4@$00@std@@@std@@IEAAXPEAU?$_Tree_node@U?$pair@$$CBIUTemplateType@cldb@@@std@@PEAX@2@@Z 000000018000ccc4 f i Main.obj
 0001:0000bd50       ?_Erase@?$_Tree@V?$_Tmap_traits@IUTextAttribute@cldb@@U?$less@I@std@@V?$allocator@U?$pair@$$CBIUTextAttribute@cldb@@@std@@@4@$00@std@@@std@@IEAAXPEAU?$_Tree_node@U?$pair@$$CBIUTextAttribute@cldb@@@std@@PEAX@2@@Z 000000018000cd50 f i Main.obj
 0001:0000bdac       ?_Erase@?$_Tree@V?$_Tmap_traits@IUType@cldb@@U?$less@I@std@@V?$allocator@U?$pair@$$CBIUType@cldb@@@std@@@4@$00@std@@@std@@IEAAXPEAU?$_Tree_node@U?$pair@$$CBIUType@cldb@@@std@@PEAX@2@@Z 000000018000cdac f i Main.obj
 0001:0000be08       ?_Erase@?$_Tree@V?$_Tmap_traits@IUTypeInheritance@cldb@@U?$less@I@std@@V?$allocator@U?$pair@$$CBIUTypeInheritance@cldb@@@std@@@4@$0A@@std@@@std@@IEAAXPEAU?$_Tree_node@U?$pair@$$CBIUTypeInheritance@cldb@@@std@@PEAX@2@@Z 000000018000ce08 f i Main.obj
 0001:0000be64       ?_Extract@?$_Tree_val@U?$_Tree_simple_types@U?$pair@$$CBIUClass@cldb@@@std@@@std@@@std@@QEAAPEAU?$_Tree_node@U?$pair@$$CBIUClass@cldb@@@std@@PEAX@2@V?$_Tree_const_iterator@V?$_Tree_val@U?$_Tree_simple_types@U?$pair@$$CBIUClass@cldb@@@std@@@std@@@std@@@2@@Z 000000018000ce64 f i Main.obj
 0001:0000c2bc       ?_Extract@?$_Tree_val@U?$_Tree_simple_types@U?$pair@$$CBIUContainerInfo@cldb@@@std@@@std@@@std@@QEAAPEAU?$_Tree_node@U?$pair@$$CBIUContainerInfo@cldb@@@std@@PEAX@2@V?$_Tree_const_iterator@V?$_Tree_val@U?$_Tree_simple_types@U?$pair@$$CBIUContainerInfo@cldb@@@std@@@std@@@std@@@2@@Z 000000018000d2bc f i Main.obj
 0001:0000c714       ?_Extract@?$_Tree_val@U?$_Tree_simple_types@U?$pair@$$CBIUEnum@cldb@@@std@@@std@@@std@@QEAAPEAU?$_Tree_node@U?$pair@$$CBIUEnum@cldb@@@std@@PEAX@2@V?$_Tree_const_iterator@V?$_Tree_val@U?$_Tree_simple_types@U?$pair@$$CBIUEnum@cldb@@@std@@@std@@@std@@@2@@Z 000000018000d714 f i Main.obj
 0001:0000cb6c       ?_Extract@?$_Tree_val@U?$_Tree_simple_types@U?$pair@$$CBIUEnumConstant@cldb@@@std@@@std@@@std@@QEAAPEAU?$_Tree_node@U?$pair@$$CBIUEnumConstant@cldb@@@std@@PEAX@2@V?$_Tree_const_iterator@V?$_Tree_val@U?$_Tree_simple_types@U?$pair@$$CBIUEnumConstant@cldb@@@std@@@std@@@std@@@2@@Z 000000018000db6c f i Main.obj
 0001:0000cfc4       ?_Extract@?$_Tree_val@U?$_Tree_simple_types@U?$pair@$$CBIUField@cldb@@@std@@@std@@@std@@QEAAPEAU?$_Tree_node@U?$pair@$$CBIUField@cldb@@@std@@PEAX@2@V?$_Tree_const_iterator@V?$_Tree_val@U?$_Tree_simple_types@U?$pair@$$CBIUField@cldb@@@std@@@std@@@std@@@2@@Z 000000018000dfc4 f i Main.obj
 0001:0000d41c       ?_Extract@?$_Tree_val@U?$_Tree_simple_types@U?$pair@$$CBIUFlagAttribute@cldb@@@std@@@std@@@std@@QEAAPEAU?$_Tree_node@U?$pair@$$CBIUFlagAttribute@cldb@@@std@@PEAX@2@V?$_Tree_const_iterator@V?$_Tree_val@U?$_Tree_simple_types@U?$pair@$$CBIUFlagAttribute@cldb@@@std@@@std@@@std@@@2@@Z 000000018000e41c f i Main.obj
 0001:0000d874       ?_Extract@?$_Tree_val@U?$_Tree_simple_types@U?$pair@$$CBIUFloatAttribute@cldb@@@std@@@std@@@std@@QEAAPEAU?$_Tree_node@U?$pair@$$CBIUFloatAttribute@cldb@@@std@@PEAX@2@V?$_Tree_const_iterator@V?$_Tree_val@U?$_Tree_simple_types@U?$pair@$$CBIUFloatAttribute@cldb@@@std@@@std@@@std@@@2@@Z 000000018000e874 f i Main.obj
 0001:0000dccc       ?_Extract@?$_Tree_val@U?$_Tree_simple_types@U?$pair@$$CBIUFunction@cldb@@@std@@@std@@@std@@QEAAPEAU?$_Tree_node@U?$pair@$$CBIUFunction@cldb@@@std@@PEAX@2@V?$_Tree_const_iterator@V?$_Tree_val@U?$_Tree_simple_types@U?$pair@$$CBIUFunction@cldb@@@std@@@std@@@std@@@2@@Z 000000018000eccc f i Main.obj
 0001:0000e124       ?_Extract@?$_Tree_val@U?$_Tree_simple_types@U?$pair@$$CBIUGetTypeFunctions@cldb@@@std@@@std@@@std@@QEAAPEAU?$_Tree_node@U?$pair@$$CBIUGetTypeFunctions@cldb@@@std@@PEAX@2@V?$_Tree_const_iterator@V?$_Tree_val@U?$_Tree_simple_types@U?$pair@$$CBIUGetTypeFunctions@cldb@@@std@@@std@@@std@@@2@@Z 000000018000f124 f i Main.obj
 0001:0000e57c       ?_Extract@?$_Tree_val@U?$_Tree_simple_types@U?$pair@$$CBIUIntAttribute@cldb@@@std@@@std@@@std@@QEAAPEAU?$_Tree_node@U?$pair@$$CBIUIntAttribute@cldb@@@std@@PEAX@2@V?$_Tree_const_iterator@V?$_Tree_val@U?$_Tree_simple_types@U?$pair@$$CBIUIntAttribute@cldb@@@std@@@std@@@std@@@2@@Z 000000018000f57c f i Main.obj
 0001:0000e9d4       ?_Extract@?$_Tree_val@U?$_Tree_simple_types@U?$pair@$$CBIUName@cldb@@@std@@@std@@@std@@QEAAPEAU?$_Tree_node@U?$pair@$$CBIUName@cldb@@@std@@PEAX@2@V?$_Tree_const_iterator@V?$_Tree_val@U?$_Tree_simple_types@U?$pair@$$CBIUName@cldb@@@std@@@std@@@std@@@2@@Z 000000018000f9d4 f i Main.obj
 0001:0000ee2c       ?_Extract@?$_Tree_val@U?$_Tree_simple_types@U?$pair@$$CBIUNamespace@cldb@@@std@@@std@@@std@@QEAAPEAU?$_Tree_node@U?$pair@$$CBIUNamespace@cldb@@@std@@PEAX@2@V?$_Tree_const_iterator@V?$_Tree_val@U?$_Tree_simple_types@U?$pair@$$CBIUNamespace@cldb@@@std@@@std@@@std@@@2@@Z 000000018000fe2c f i Main.obj
 0001:0000f284       ?_Extract@?$_Tree_val@U?$_Tree_simple_types@U?$pair@$$CBIUPrimitiveAttribute@cldb@@@std@@@std@@@std@@QEAAPEAU?$_Tree_node@U?$pair@$$CBIUPrimitiveAttribute@cldb@@@std@@PEAX@2@V?$_Tree_const_iterator@V?$_Tree_val@U?$_Tree_simple_types@U?$pair@$$CBIUPrimitiveAttribute@cldb@@@std@@@std@@@std@@@2@@Z 0000000180010284 f i Main.obj
 0001:0000f6dc       ?_Extract@?$_Tree_val@U?$_Tree_simple_types@U?$pair@$$CBIUTemplate@cldb@@@std@@@std@@@std@@QEAAPEAU?$_Tree_node@U?$pair@$$CBIUTemplate@cldb@@@std@@PEAX@2@V?$_Tree_const_iterator@V?$_Tree_val@U?$_Tree_simple_types@U?$pair@$$CBIUTemplate@cldb@@@std@@@std@@@std@@@2@@Z 00000001800106dc f i Main.obj
 0001:0000fb34       ?_Extract@?$_Tree_val@U?$_Tree_simple_types@U?$pair@$$CBIUTemplateType@cldb@@@std@@@std@@@std@@QEAAPEAU?$_Tree_node@U?$pair@$$CBIUTemplateType@cldb@@@std@@PEAX@2@V?$_Tree_const_iterator@V?$_Tree_val@U?$_Tree_simple_types@U?$pair@$$CBIUTemplateType@cldb@@@std@@@std@@@std@@@2@@Z 0000000180010b34 f i Main.obj
 0001:0000ff8c       ?_Extract@?$_Tree_val@U?$_Tree_simple_types@U?$pair@$$CBIUTextAttribute@cldb@@@std@@@std@@@std@@QEAAPEAU?$_Tree_node@U?$pair@$$CBIUTextAttribute@cldb@@@std@@PEAX@2@V?$_Tree_const_iterator@V?$_Tree_val@U?$_Tree_simple_types@U?$pair@$$CBIUTextAttribute@cldb@@@std@@@std@@@std@@@2@@Z 0000000180010f8c f i Main.obj
 0001:000103e4       ?_Extract@?$_Tree_val@U?$_Tree_simple_types@U?$pair@$$CBIUType@cldb@@@std@@@std@@@std@@QEAAPEAU?$_Tree_node@U?$pair@$$CBIUType@cldb@@@std@@PEAX@2@V?$_Tree_const_iterator@V?$_Tree_val@U?$_Tree_simple_types@U?$pair@$$CBIUType@cldb@@@std@@@std@@@std@@@2@@Z 00000001800113e4 f i Main.obj
 0001:0001083c       ?_Extract@?$_Tree_val@U?$_Tree_simple_types@U?$pair@$$CBIUTypeInheritance@cldb@@@std@@@std@@@std@@QEAAPEAU?$_Tree_node@U?$pair@$$CBIUTypeInheritance@cldb@@@std@@PEAX@2@V?$_Tree_const_iterator@V?$_Tree_val@U?$_Tree_simple_types@U?$pair@$$CBIUTypeInheritance@cldb@@@std@@@std@@@std@@@2@@Z 000000018001183c f i Main.obj
 0001:00010c94       ?_Getal@?$_Vector_alloc@U?$_Vec_base_types@V?$basic_string@DU?$char_traits@D@std@@V?$allocator@D@2@@std@@V?$allocator@V?$basic_string@DU?$char_traits@D@std@@V?$allocator@D@2@@std@@@2@@std@@@std@@QEAAAEAV?$allocator@V?$basic_string@DU?$char_traits@D@std@@V?$allocator@D@2@@std@@@2@XZ 0000000180011c94 f i Main.obj
 0001:00010c98       ?_Tidy@?$vector@V?$basic_string@DU?$char_traits@D@std@@V?$allocator@D@2@@std@@V?$allocator@V?$basic_string@DU?$char_traits@D@std@@V?$allocator@D@2@@std@@@2@@std@@AEAAXXZ 0000000180011c98 f i Main.obj
 0001:00010d2c       ?_Xlength@?$vector@V?$basic_string@DU?$char_traits@D@std@@V?$allocator@D@2@@std@@V?$allocator@V?$basic_string@DU?$char_traits@D@std@@V?$allocator@D@2@@std@@@2@@std@@CAXXZ 0000000180011d2c f i Main.obj
 0001:00010d40       ?allocate@?$allocator@V?$basic_string@DU?$char_traits@D@std@@V?$allocator@D@2@@std@@@std@@QEAAPEAV?$basic_string@DU?$char_traits@D@std@@V?$allocator@D@2@@2@_K@Z 0000000180011d40 f i Main.obj
 0001:00010db0       ?argvSplit@@YA?AUArgvs@@PEBDD@Z 0000000180011db0 f   Main.obj
 0001:00010ea4       ?clear@?$_Tree@V?$_Tmap_traits@IUClass@cldb@@U?$less@I@std@@V?$allocator@U?$pair@$$CBIUClass@cldb@@@std@@@4@$00@std@@@std@@QEAAXXZ 0000000180011ea4 f i Main.obj
 0001:00010f38       ?clear@?$_Tree@V?$_Tmap_traits@IUContainerInfo@cldb@@U?$less@I@std@@V?$allocator@U?$pair@$$CBIUContainerInfo@cldb@@@std@@@4@$0A@@std@@@std@@QEAAXXZ 0000000180011f38 f i Main.obj
 0001:00010fcc       ?clear@?$_Tree@V?$_Tmap_traits@IUEnum@cldb@@U?$less@I@std@@V?$allocator@U?$pair@$$CBIUEnum@cldb@@@std@@@4@$00@std@@@std@@QEAAXXZ 0000000180011fcc f i Main.obj
 0001:00011060       ?clear@?$_Tree@V?$_Tmap_traits@IUEnumConstant@cldb@@U?$less@I@std@@V?$allocator@U?$pair@$$CBIUEnumConstant@cldb@@@std@@@4@$00@std@@@std@@QEAAXXZ 0000000180012060 f i Main.obj
 0001:000110f4       ?clear@?$_Tree@V?$_Tmap_traits@IUField@cldb@@U?$less@I@std@@V?$allocator@U?$pair@$$CBIUField@cldb@@@std@@@4@$00@std@@@std@@QEAAXXZ 00000001800120f4 f i Main.obj
 0001:00011188       ?clear@?$_Tree@V?$_Tmap_traits@IUFlagAttribute@cldb@@U?$less@I@std@@V?$allocator@U?$pair@$$CBIUFlagAttribute@cldb@@@std@@@4@$00@std@@@std@@QEAAXXZ 0000000180012188 f i Main.obj
 0001:00011228       ?clear@?$_Tree@V?$_Tmap_traits@IUFloatAttribute@cldb@@U?$less@I@std@@V?$allocator@U?$pair@$$CBIUFloatAttribute@cldb@@@std@@@4@$00@std@@@std@@QEAAXXZ 0000000180012228 f i Main.obj
 0001:000112c8       ?clear@?$_Tree@V?$_Tmap_traits@IUFunction@cldb@@U?$less@I@std@@V?$allocator@U?$pair@$$CBIUFunction@cldb@@@std@@@4@$00@std@@@std@@QEAAXXZ 00000001800122c8 f i Main.obj
 0001:0001135c       ?clear@?$_Tree@V?$_Tmap_traits@IUGetTypeFunctions@cldb@@U?$less@I@std@@V?$allocator@U?$pair@$$CBIUGetTypeFunctions@cldb@@@std@@@4@$0A@@std@@@std@@QEAAXXZ 000000018001235c f i Main.obj
 0001:000113e4       ?clear@?$_Tree@V?$_Tmap_traits@IUIntAttribute@cldb@@U?$less@I@std@@V?$allocator@U?$pair@$$CBIUIntAttribute@cldb@@@std@@@4@$00@std@@@std@@QEAAXXZ 00000001800123e4 f i Main.obj
 0001:00011484       ?clear@?$_Tree@V?$_Tmap_traits@IUName@cldb@@U?$less@I@std@@V?$allocator@U?$pair@$$CBIUName@cldb@@@std@@@4@$0A@@std@@@std@@QEAAXXZ 0000000180012484 f i Main.obj
 0001:0001151c       ?clear@?$_Tree@V?$_Tmap_traits@IUNamespace@cldb@@U?$less@I@std@@V?$allocator@U?$pair@$$CBIUNamespace@cldb@@@std@@@4@$00@std@@@std@@QEAAXXZ 000000018001251c f i Main.obj
 0001:000115b0       ?clear@?$_Tree@V?$_Tmap_traits@IUPrimitiveAttribute@cldb@@U?$less@I@std@@V?$allocator@U?$pair@$$CBIUPrimitiveAttribute@cldb@@@std@@@4@$00@std@@@std@@QEAAXXZ 00000001800125b0 f i Main.obj
 0001:00011644       ?clear@?$_Tree@V?$_Tmap_traits@IUTemplate@cldb@@U?$less@I@std@@V?$allocator@U?$pair@$$CBIUTemplate@cldb@@@std@@@4@$00@std@@@std@@QEAAXXZ 0000000180012644 f i Main.obj
 0001:000116d8       ?clear@?$_Tree@V?$_Tmap_traits@IUTextAttribute@cldb@@U?$less@I@std@@V?$allocator@U?$pair@$$CBIUTextAttribute@cldb@@@std@@@4@$00@std@@@std@@QEAAXXZ 00000001800126d8 f i Main.obj
 0001:0001176c       ?clear@?$_Tree@V?$_Tmap_traits@IUType@cldb@@U?$less@I@std@@V?$allocator@U?$pair@$$CBIUType@cldb@@@std@@@4@$00@std@@@std@@QEAAXXZ 000000018001276c f i Main.obj
 0001:00011800       ?clear@?$_Tree@V?$_Tmap_traits@IUTypeInheritance@cldb@@U?$less@I@std@@V?$allocator@U?$pair@$$CBIUTypeInheritance@cldb@@@std@@@4@$0A@@std@@@std@@QEAAXXZ 0000000180012800 f i Main.obj
 0001:00011894       ?deallocate@?$_Default_allocator_traits@V?$allocator@U?$_Tree_node@U?$pair@$$CBIUName@cldb@@@std@@PEAX@std@@@std@@@std@@SAXAEAV?$allocator@U?$_Tree_node@U?$pair@$$CBIUName@cldb@@@std@@PEAX@std@@@2@QEAU?$_Tree_node@U?$pair@$$CBIUName@cldb@@@std@@PEAX@2@_K@Z 0000000180012894 f i Main.obj
 0001:000118d8       ?deallocate@?$allocator@V?$basic_string@DU?$char_traits@D@std@@V?$allocator@D@2@@std@@@std@@QEAAXQEAV?$basic_string@DU?$char_traits@D@std@@V?$allocator@D@2@@2@_K@Z 00000001800128d8 f i Main.obj
 0001:0001191c       ?erase@?$_Tree@V?$_Tmap_traits@IUClass@cldb@@U?$less@I@std@@V?$allocator@U?$pair@$$CBIUClass@cldb@@@std@@@4@$00@std@@@std@@QEAA?AV?$_Tree_iterator@V?$_Tree_val@U?$_Tree_simple_types@U?$pair@$$CBIUClass@cldb@@@std@@@std@@@std@@@2@V?$_Tree_const_iterator@V?$_Tree_val@U?$_Tree_simple_types@U?$pair@$$CBIUClass@cldb@@@std@@@std@@@std@@@2@0@Z 000000018001291c f i Main.obj
 0001:000119d0       ?erase@?$_Tree@V?$_Tmap_traits@IUClass@cldb@@U?$less@I@std@@V?$allocator@U?$pair@$$CBIUClass@cldb@@@std@@@4@$00@std@@@std@@QEAA?AV?$_Tree_iterator@V?$_Tree_val@U?$_Tree_simple_types@U?$pair@$$CBIUClass@cldb@@@std@@@std@@@std@@@2@V?$_Tree_const_iterator@V?$_Tree_val@U?$_Tree_simple_types@U?$pair@$$CBIUClass@cldb@@@std@@@std@@@std@@@2@@Z 00000001800129d0 f i Main.obj
 0001:00011a60       ?erase@?$_Tree@V?$_Tmap_traits@IUContainerInfo@cldb@@U?$less@I@std@@V?$allocator@U?$pair@$$CBIUContainerInfo@cldb@@@std@@@4@$0A@@std@@@std@@QEAA?AV?$_Tree_iterator@V?$_Tree_val@U?$_Tree_simple_types@U?$pair@$$CBIUContainerInfo@cldb@@@std@@@std@@@std@@@2@V?$_Tree_const_iterator@V?$_Tree_val@U?$_Tree_simple_types@U?$pair@$$CBIUContainerInfo@cldb@@@std@@@std@@@std@@@2@0@Z 0000000180012a60 f i Main.obj
 0001:00011b14       ?erase@?$_Tree@V?$_Tmap_traits@IUContainerInfo@cldb@@U?$less@I@std@@V?$allocator@U?$pair@$$CBIUContainerInfo@cldb@@@std@@@4@$0A@@std@@@std@@QEAA?AV?$_Tree_iterator@V?$_Tree_val@U?$_Tree_simple_types@U?$pair@$$CBIUContainerInfo@cldb@@@std@@@std@@@std@@@2@V?$_Tree_const_iterator@V?$_Tree_val@U?$_Tree_simple_types@U?$pair@$$CBIUContainerInfo@cldb@@@std@@@std@@@std@@@2@@Z 0000000180012b14 f i Main.obj
 0001:00011ba4       ?erase@?$_Tree@V?$_Tmap_traits@IUEnum@cldb@@U?$less@I@std@@V?$allocator@U?$pair@$$CBIUEnum@cldb@@@std@@@4@$00@std@@@std@@QEAA?AV?$_Tree_iterator@V?$_Tree_val@U?$_Tree_simple_types@U?$pair@$$CBIUEnum@cldb@@@std@@@std@@@std@@@2@V?$_Tree_const_iterator@V?$_Tree_val@U?$_Tree_simple_types@U?$pair@$$CBIUEnum@cldb@@@std@@@std@@@std@@@2@0@Z 0000000180012ba4 f i Main.obj
 0001:00011c58       ?erase@?$_Tree@V?$_Tmap_traits@IUEnum@cldb@@U?$less@I@std@@V?$allocator@U?$pair@$$CBIUEnum@cldb@@@std@@@4@$00@std@@@std@@QEAA?AV?$_Tree_iterator@V?$_Tree_val@U?$_Tree_simple_types@U?$pair@$$CBIUEnum@cldb@@@std@@@std@@@std@@@2@V?$_Tree_const_iterator@V?$_Tree_val@U?$_Tree_simple_types@U?$pair@$$CBIUEnum@cldb@@@std@@@std@@@std@@@2@@Z 0000000180012c58 f i Main.obj
 0001:00011ce8       ?erase@?$_Tree@V?$_Tmap_traits@IUEnumConstant@cldb@@U?$less@I@std@@V?$allocator@U?$pair@$$CBIUEnumConstant@cldb@@@std@@@4@$00@std@@@std@@QEAA?AV?$_Tree_iterator@V?$_Tree_val@U?$_Tree_simple_types@U?$pair@$$CBIUEnumConstant@cldb@@@std@@@std@@@std@@@2@V?$_Tree_const_iterator@V?$_Tree_val@U?$_Tree_simple_types@U?$pair@$$CBIUEnumConstant@cldb@@@std@@@std@@@std@@@2@0@Z 0000000180012ce8 f i Main.obj
 0001:00011d9c       ?erase@?$_Tree@V?$_Tmap_traits@IUEnumConstant@cldb@@U?$less@I@std@@V?$allocator@U?$pair@$$CBIUEnumConstant@cldb@@@std@@@4@$00@std@@@std@@QEAA?AV?$_Tree_iterator@V?$_Tree_val@U?$_Tree_simple_types@U?$pair@$$CBIUEnumConstant@cldb@@@std@@@std@@@std@@@2@V?$_Tree_const_iterator@V?$_Tree_val@U?$_Tree_simple_types@U?$pair@$$CBIUEnumConstant@cldb@@@std@@@std@@@std@@@2@@Z 0000000180012d9c f i Main.obj
 0001:00011e2c       ?erase@?$_Tree@V?$_Tmap_traits@IUField@cldb@@U?$less@I@std@@V?$allocator@U?$pair@$$CBIUField@cldb@@@std@@@4@$00@std@@@std@@QEAA?AV?$_Tree_iterator@V?$_Tree_val@U?$_Tree_simple_types@U?$pair@$$CBIUField@cldb@@@std@@@std@@@std@@@2@V?$_Tree_const_iterator@V?$_Tree_val@U?$_Tree_simple_types@U?$pair@$$CBIUField@cldb@@@std@@@std@@@std@@@2@0@Z 0000000180012e2c f i Main.obj
 0001:00011ee0       ?erase@?$_Tree@V?$_Tmap_traits@IUField@cldb@@U?$less@I@std@@V?$allocator@U?$pair@$$CBIUField@cldb@@@std@@@4@$00@std@@@std@@QEAA?AV?$_Tree_iterator@V?$_Tree_val@U?$_Tree_simple_types@U?$pair@$$CBIUField@cldb@@@std@@@std@@@std@@@2@V?$_Tree_const_iterator@V?$_Tree_val@U?$_Tree_simple_types@U?$pair@$$CBIUField@cldb@@@std@@@std@@@std@@@2@@Z 0000000180012ee0 f i Main.obj
 0001:00011f70       ?erase@?$_Tree@V?$_Tmap_traits@IUFlagAttribute@cldb@@U?$less@I@std@@V?$allocator@U?$pair@$$CBIUFlagAttribute@cldb@@@std@@@4@$00@std@@@std@@QEAA?AV?$_Tree_iterator@V?$_Tree_val@U?$_Tree_simple_types@U?$pair@$$CBIUFlagAttribute@cldb@@@std@@@std@@@std@@@2@V?$_Tree_const_iterator@V?$_Tree_val@U?$_Tree_simple_types@U?$pair@$$CBIUFlagAttribute@cldb@@@std@@@std@@@std@@@2@0@Z 0000000180012f70 f i Main.obj
 0001:00012024       ?erase@?$_Tree@V?$_Tmap_traits@IUFlagAttribute@cldb@@U?$less@I@std@@V?$allocator@U?$pair@$$CBIUFlagAttribute@cldb@@@std@@@4@$00@std@@@std@@QEAA?AV?$_Tree_iterator@V?$_Tree_val@U?$_Tree_simple_types@U?$pair@$$CBIUFlagAttribute@cldb@@@std@@@std@@@std@@@2@V?$_Tree_const_iterator@V?$_Tree_val@U?$_Tree_simple_types@U?$pair@$$CBIUFlagAttribute@cldb@@@std@@@std@@@std@@@2@@Z 0000000180013024 f i Main.obj
 0001:000120bc       ?erase@?$_Tree@V?$_Tmap_traits@IUFloatAttribute@cldb@@U?$less@I@std@@V?$allocator@U?$pair@$$CBIUFloatAttribute@cldb@@@std@@@4@$00@std@@@std@@QEAA?AV?$_Tree_iterator@V?$_Tree_val@U?$_Tree_simple_types@U?$pair@$$CBIUFloatAttribute@cldb@@@std@@@std@@@std@@@2@V?$_Tree_const_iterator@V?$_Tree_val@U?$_Tree_simple_types@U?$pair@$$CBIUFloatAttribute@cldb@@@std@@@std@@@std@@@2@0@Z 00000001800130bc f i Main.obj
 0001:00012170       ?erase@?$_Tree@V?$_Tmap_traits@IUFloatAttribute@cldb@@U?$less@I@std@@V?$allocator@U?$pair@$$CBIUFloatAttribute@cldb@@@std@@@4@$00@std@@@std@@QEAA?AV?$_Tree_iterator@V?$_Tree_val@U?$_Tree_simple_types@U?$pair@$$CBIUFloatAttribute@cldb@@@std@@@std@@@std@@@2@V?$_Tree_const_iterator@V?$_Tree_val@U?$_Tree_simple_types@U?$pair@$$CBIUFloatAttribute@cldb@@@std@@@std@@@std@@@2@@Z 0000000180013170 f i Main.obj
 0001:00012208       ?erase@?$_Tree@V?$_Tmap_traits@IUFunction@cldb@@U?$less@I@std@@V?$allocator@U?$pair@$$CBIUFunction@cldb@@@std@@@4@$00@std@@@std@@QEAA?AV?$_Tree_iterator@V?$_Tree_val@U?$_Tree_simple_types@U?$pair@$$CBIUFunction@cldb@@@std@@@std@@@std@@@2@V?$_Tree_const_iterator@V?$_Tree_val@U?$_Tree_simple_types@U?$pair@$$CBIUFunction@cldb@@@std@@@std@@@std@@@2@0@Z 0000000180013208 f i Main.obj
 0001:000122bc       ?erase@?$_Tree@V?$_Tmap_traits@IUFunction@cldb@@U?$less@I@std@@V?$allocator@U?$pair@$$CBIUFunction@cldb@@@std@@@4@$00@std@@@std@@QEAA?AV?$_Tree_iterator@V?$_Tree_val@U?$_Tree_simple_types@U?$pair@$$CBIUFunction@cldb@@@std@@@std@@@std@@@2@V?$_Tree_const_iterator@V?$_Tree_val@U?$_Tree_simple_types@U?$pair@$$CBIUFunction@cldb@@@std@@@std@@@std@@@2@@Z 00000001800132bc f i Main.obj
 0001:0001234c       ?erase@?$_Tree@V?$_Tmap_traits@IUGetTypeFunctions@cldb@@U?$less@I@std@@V?$allocator@U?$pair@$$CBIUGetTypeFunctions@cldb@@@std@@@4@$0A@@std@@@std@@QEAA?AV?$_Tree_iterator@V?$_Tree_val@U?$_Tree_simple_types@U?$pair@$$CBIUGetTypeFunctions@cldb@@@std@@@std@@@std@@@2@V?$_Tree_const_iterator@V?$_Tree_val@U?$_Tree_simple_types@U?$pair@$$CBIUGetTypeFunctions@cldb@@@std@@@std@@@std@@@2@0@Z 000000018001334c f i Main.obj
 0001:00012400       ?erase@?$_Tree@V?$_Tmap_traits@IUGetTypeFunctions@cldb@@U?$less@I@std@@V?$allocator@U?$pair@$$CBIUGetTypeFunctions@cldb@@@std@@@4@$0A@@std@@@std@@QEAA?AV?$_Tree_iterator@V?$_Tree_val@U?$_Tree_simple_types@U?$pair@$$CBIUGetTypeFunctions@cldb@@@std@@@std@@@std@@@2@V?$_Tree_const_iterator@V?$_Tree_val@U?$_Tree_simple_types@U?$pair@$$CBIUGetTypeFunctions@cldb@@@std@@@std@@@std@@@2@@Z 0000000180013400 f i Main.obj
 0001:00012478       ?erase@?$_Tree@V?$_Tmap_traits@IUIntAttribute@cldb@@U?$less@I@std@@V?$allocator@U?$pair@$$CBIUIntAttribute@cldb@@@std@@@4@$00@std@@@std@@QEAA?AV?$_Tree_iterator@V?$_Tree_val@U?$_Tree_simple_types@U?$pair@$$CBIUIntAttribute@cldb@@@std@@@std@@@std@@@2@V?$_Tree_const_iterator@V?$_Tree_val@U?$_Tree_simple_types@U?$pair@$$CBIUIntAttribute@cldb@@@std@@@std@@@std@@@2@0@Z 0000000180013478 f i Main.obj
 0001:0001252c       ?erase@?$_Tree@V?$_Tmap_traits@IUIntAttribute@cldb@@U?$less@I@std@@V?$allocator@U?$pair@$$CBIUIntAttribute@cldb@@@std@@@4@$00@std@@@std@@QEAA?AV?$_Tree_iterator@V?$_Tree_val@U?$_Tree_simple_types@U?$pair@$$CBIUIntAttribute@cldb@@@std@@@std@@@std@@@2@V?$_Tree_const_iterator@V?$_Tree_val@U?$_Tree_simple_types@U?$pair@$$CBIUIntAttribute@cldb@@@std@@@std@@@std@@@2@@Z 000000018001352c f i Main.obj
 0001:000125c4       ?erase@?$_Tree@V?$_Tmap_traits@IUName@cldb@@U?$less@I@std@@V?$allocator@U?$pair@$$CBIUName@cldb@@@std@@@4@$0A@@std@@@std@@QEAA?AV?$_Tree_iterator@V?$_Tree_val@U?$_Tree_simple_types@U?$pair@$$CBIUName@cldb@@@std@@@std@@@std@@@2@V?$_Tree_const_iterator@V?$_Tree_val@U?$_Tree_simple_types@U?$pair@$$CBIUName@cldb@@@std@@@std@@@std@@@2@0@Z 00000001800135c4 f i Main.obj
 0001:00012678       ?erase@?$_Tree@V?$_Tmap_traits@IUName@cldb@@U?$less@I@std@@V?$allocator@U?$pair@$$CBIUName@cldb@@@std@@@4@$0A@@std@@@std@@QEAA?AV?$_Tree_iterator@V?$_Tree_val@U?$_Tree_simple_types@U?$pair@$$CBIUName@cldb@@@std@@@std@@@std@@@2@V?$_Tree_const_iterator@V?$_Tree_val@U?$_Tree_simple_types@U?$pair@$$CBIUName@cldb@@@std@@@std@@@std@@@2@@Z 0000000180013678 f i Main.obj
 0001:00012708       ?erase@?$_Tree@V?$_Tmap_traits@IUNamespace@cldb@@U?$less@I@std@@V?$allocator@U?$pair@$$CBIUNamespace@cldb@@@std@@@4@$00@std@@@std@@QEAA?AV?$_Tree_iterator@V?$_Tree_val@U?$_Tree_simple_types@U?$pair@$$CBIUNamespace@cldb@@@std@@@std@@@std@@@2@V?$_Tree_const_iterator@V?$_Tree_val@U?$_Tree_simple_types@U?$pair@$$CBIUNamespace@cldb@@@std@@@std@@@std@@@2@0@Z 0000000180013708 f i Main.obj
 0001:000127bc       ?erase@?$_Tree@V?$_Tmap_traits@IUNamespace@cldb@@U?$less@I@std@@V?$allocator@U?$pair@$$CBIUNamespace@cldb@@@std@@@4@$00@std@@@std@@QEAA?AV?$_Tree_iterator@V?$_Tree_val@U?$_Tree_simple_types@U?$pair@$$CBIUNamespace@cldb@@@std@@@std@@@std@@@2@V?$_Tree_const_iterator@V?$_Tree_val@U?$_Tree_simple_types@U?$pair@$$CBIUNamespace@cldb@@@std@@@std@@@std@@@2@@Z 00000001800137bc f i Main.obj
 0001:0001284c       ?erase@?$_Tree@V?$_Tmap_traits@IUPrimitiveAttribute@cldb@@U?$less@I@std@@V?$allocator@U?$pair@$$CBIUPrimitiveAttribute@cldb@@@std@@@4@$00@std@@@std@@QEAA?AV?$_Tree_iterator@V?$_Tree_val@U?$_Tree_simple_types@U?$pair@$$CBIUPrimitiveAttribute@cldb@@@std@@@std@@@std@@@2@V?$_Tree_const_iterator@V?$_Tree_val@U?$_Tree_simple_types@U?$pair@$$CBIUPrimitiveAttribute@cldb@@@std@@@std@@@std@@@2@0@Z 000000018001384c f i Main.obj
 0001:00012900       ?erase@?$_Tree@V?$_Tmap_traits@IUPrimitiveAttribute@cldb@@U?$less@I@std@@V?$allocator@U?$pair@$$CBIUPrimitiveAttribute@cldb@@@std@@@4@$00@std@@@std@@QEAA?AV?$_Tree_iterator@V?$_Tree_val@U?$_Tree_simple_types@U?$pair@$$CBIUPrimitiveAttribute@cldb@@@std@@@std@@@std@@@2@V?$_Tree_const_iterator@V?$_Tree_val@U?$_Tree_simple_types@U?$pair@$$CBIUPrimitiveAttribute@cldb@@@std@@@std@@@std@@@2@@Z 0000000180013900 f i Main.obj
 0001:00012990       ?erase@?$_Tree@V?$_Tmap_traits@IUTemplate@cldb@@U?$less@I@std@@V?$allocator@U?$pair@$$CBIUTemplate@cldb@@@std@@@4@$00@std@@@std@@QEAA?AV?$_Tree_iterator@V?$_Tree_val@U?$_Tree_simple_types@U?$pair@$$CBIUTemplate@cldb@@@std@@@std@@@std@@@2@V?$_Tree_const_iterator@V?$_Tree_val@U?$_Tree_simple_types@U?$pair@$$CBIUTemplate@cldb@@@std@@@std@@@std@@@2@0@Z 0000000180013990 f i Main.obj
 0001:00012a44       ?erase@?$_Tree@V?$_Tmap_traits@IUTemplate@cldb@@U?$less@I@std@@V?$allocator@U?$pair@$$CBIUTemplate@cldb@@@std@@@4@$00@std@@@std@@QEAA?AV?$_Tree_iterator@V?$_Tree_val@U?$_Tree_simple_types@U?$pair@$$CBIUTemplate@cldb@@@std@@@std@@@std@@@2@V?$_Tree_const_iterator@V?$_Tree_val@U?$_Tree_simple_types@U?$pair@$$CBIUTemplate@cldb@@@std@@@std@@@std@@@2@@Z 0000000180013a44 f i Main.obj
 0001:00012ad4       ?erase@?$_Tree@V?$_Tmap_traits@IUTemplateType@cldb@@U?$less@I@std@@V?$allocator@U?$pair@$$CBIUTemplateType@cldb@@@std@@@4@$00@std@@@std@@QEAA?AV?$_Tree_iterator@V?$_Tree_val@U?$_Tree_simple_types@U?$pair@$$CBIUTemplateType@cldb@@@std@@@std@@@std@@@2@V?$_Tree_const_iterator@V?$_Tree_val@U?$_Tree_simple_types@U?$pair@$$CBIUTemplateType@cldb@@@std@@@std@@@std@@@2@0@Z 0000000180013ad4 f i Main.obj
 0001:00012bb4       ?erase@?$_Tree@V?$_Tmap_traits@IUTemplateType@cldb@@U?$less@I@std@@V?$allocator@U?$pair@$$CBIUTemplateType@cldb@@@std@@@4@$00@std@@@std@@QEAA?AV?$_Tree_iterator@V?$_Tree_val@U?$_Tree_simple_types@U?$pair@$$CBIUTemplateType@cldb@@@std@@@std@@@std@@@2@V?$_Tree_const_iterator@V?$_Tree_val@U?$_Tree_simple_types@U?$pair@$$CBIUTemplateType@cldb@@@std@@@std@@@std@@@2@@Z 0000000180013bb4 f i Main.obj
 0001:00012c74       ?erase@?$_Tree@V?$_Tmap_traits@IUTextAttribute@cldb@@U?$less@I@std@@V?$allocator@U?$pair@$$CBIUTextAttribute@cldb@@@std@@@4@$00@std@@@std@@QEAA?AV?$_Tree_iterator@V?$_Tree_val@U?$_Tree_simple_types@U?$pair@$$CBIUTextAttribute@cldb@@@std@@@std@@@std@@@2@V?$_Tree_const_iterator@V?$_Tree_val@U?$_Tree_simple_types@U?$pair@$$CBIUTextAttribute@cldb@@@std@@@std@@@std@@@2@0@Z 0000000180013c74 f i Main.obj
 0001:00012d28       ?erase@?$_Tree@V?$_Tmap_traits@IUTextAttribute@cldb@@U?$less@I@std@@V?$allocator@U?$pair@$$CBIUTextAttribute@cldb@@@std@@@4@$00@std@@@std@@QEAA?AV?$_Tree_iterator@V?$_Tree_val@U?$_Tree_simple_types@U?$pair@$$CBIUTextAttribute@cldb@@@std@@@std@@@std@@@2@V?$_Tree_const_iterator@V?$_Tree_val@U?$_Tree_simple_types@U?$pair@$$CBIUTextAttribute@cldb@@@std@@@std@@@std@@@2@@Z 0000000180013d28 f i Main.obj
 0001:00012db8       ?erase@?$_Tree@V?$_Tmap_traits@IUType@cldb@@U?$less@I@std@@V?$allocator@U?$pair@$$CBIUType@cldb@@@std@@@4@$00@std@@@std@@QEAA?AV?$_Tree_iterator@V?$_Tree_val@U?$_Tree_simple_types@U?$pair@$$CBIUType@cldb@@@std@@@std@@@std@@@2@V?$_Tree_const_iterator@V?$_Tree_val@U?$_Tree_simple_types@U?$pair@$$CBIUType@cldb@@@std@@@std@@@std@@@2@0@Z 0000000180013db8 f i Main.obj
 0001:00012e6c       ?erase@?$_Tree@V?$_Tmap_traits@IUType@cldb@@U?$less@I@std@@V?$allocator@U?$pair@$$CBIUType@cldb@@@std@@@4@$00@std@@@std@@QEAA?AV?$_Tree_iterator@V?$_Tree_val@U?$_Tree_simple_types@U?$pair@$$CBIUType@cldb@@@std@@@std@@@std@@@2@V?$_Tree_const_iterator@V?$_Tree_val@U?$_Tree_simple_types@U?$pair@$$CBIUType@cldb@@@std@@@std@@@std@@@2@@Z 0000000180013e6c f i Main.obj
 0001:00012efc       ?erase@?$_Tree@V?$_Tmap_traits@IUTypeInheritance@cldb@@U?$less@I@std@@V?$allocator@U?$pair@$$CBIUTypeInheritance@cldb@@@std@@@4@$0A@@std@@@std@@QEAA?AV?$_Tree_iterator@V?$_Tree_val@U?$_Tree_simple_types@U?$pair@$$CBIUTypeInheritance@cldb@@@std@@@std@@@std@@@2@V?$_Tree_const_iterator@V?$_Tree_val@U?$_Tree_simple_types@U?$pair@$$CBIUTypeInheritance@cldb@@@std@@@std@@@std@@@2@0@Z 0000000180013efc f i Main.obj
 0001:00012fb0       ?erase@?$_Tree@V?$_Tmap_traits@IUTypeInheritance@cldb@@U?$less@I@std@@V?$allocator@U?$pair@$$CBIUTypeInheritance@cldb@@@std@@@4@$0A@@std@@@std@@QEAA?AV?$_Tree_iterator@V?$_Tree_val@U?$_Tree_simple_types@U?$pair@$$CBIUTypeInheritance@cldb@@@std@@@std@@@std@@@2@V?$_Tree_const_iterator@V?$_Tree_val@U?$_Tree_simple_types@U?$pair@$$CBIUTypeInheritance@cldb@@@std@@@std@@@std@@@2@@Z 0000000180013fb0 f i Main.obj
 0001:00013040       c_clmerge                  0000000180014040 f   Main.obj
 0001:000130c0       main                       00000001800140c0 f   Main.obj
 0001:00014184       ?GetStreamHandle@logging@@YAPEAXPEBD@Z 0000000180015184 f   clReflectCore:Logging.obj
 0001:00014210       ?Log@logging@@YAXPEAXW4Tag@1@_NPEBDZZ 0000000180015210 f   clReflectCore:Logging.obj
 0001:00014354       ?PopIndent@logging@@YAXPEAX@Z 0000000180015354 f   clReflectCore:Logging.obj
 0001:00014358       ?PushIndent@logging@@YAXPEAX@Z 0000000180015358 f   clReflectCore:Logging.obj
 0001:0001435c       ?SetLogToFile@logging@@YAXPEBDW4Tag@1@0@Z 000000018001535c f   clReflectCore:Logging.obj
 0001:000143dc       ?SetLogToStdout@logging@@YAXPEBDW4Tag@1@@Z 00000001800153dc f   clReflectCore:Logging.obj
 0001:00014534       ??$?HDU?$char_traits@D@std@@V?$allocator@D@1@@std@@YA?AV?$basic_string@DU?$char_traits@D@std@@V?$allocator@D@2@@0@AEBV10@QEBD@Z 0000000180015534 f i clReflectCore:Database.obj
 0001:0001460c       ??$_Buynode@AEBUpiecewise_construct_t@std@@V?$tuple@AEBI@2@V?$tuple@$$V@2@@?$_Tree_comp_alloc@V?$_Tmap_traits@IUContainerInfo@cldb@@U?$less@I@std@@V?$allocator@U?$pair@$$CBIUContainerInfo@cldb@@@std@@@4@$0A@@std@@@std@@QEAAPEAU?$_Tree_node@U?$pair@$$CBIUContainerInfo@cldb@@@std@@PEAX@1@AEBUpiecewise_construct_t@1@$$QEAV?$tuple@AEBI@1@$$QEAV?$tuple@$$V@1@@Z 000000018001560c f i clReflectCore:Database.obj
 0001:0001468c       ??$_Buynode@AEBUpiecewise_construct_t@std@@V?$tuple@AEBI@2@V?$tuple@$$V@2@@?$_Tree_comp_alloc@V?$_Tmap_traits@IUTypeInheritance@cldb@@U?$less@I@std@@V?$allocator@U?$pair@$$CBIUTypeInheritance@cldb@@@std@@@4@$0A@@std@@@std@@QEAAPEAU?$_Tree_node@U?$pair@$$CBIUTypeInheritance@cldb@@@std@@PEAX@1@AEBUpiecewise_construct_t@1@$$QEAV?$tuple@AEBI@1@$$QEAV?$tuple@$$V@1@@Z 000000018001568c f i clReflectCore:Database.obj
 0001:00014704       ??$_Buynode@U?$pair@$$CBIUName@cldb@@@std@@@?$_Tree_comp_alloc@V?$_Tmap_traits@IUName@cldb@@U?$less@I@std@@V?$allocator@U?$pair@$$CBIUName@cldb@@@std@@@4@$0A@@std@@@std@@QEAAPEAU?$_Tree_node@U?$pair@$$CBIUName@cldb@@@std@@PEAX@1@$$QEAU?$pair@$$CBIUName@cldb@@@1@@Z 0000000180015704 f i clReflectCore:Database.obj
 0001:00014778       ??$_Insert_at@AEAU?$pair@$$CBIUContainerInfo@cldb@@@std@@PEAU?$_Tree_node@U?$pair@$$CBIUContainerInfo@cldb@@@std@@PEAX@2@@?$_Tree@V?$_Tmap_traits@IUContainerInfo@cldb@@U?$less@I@std@@V?$allocator@U?$pair@$$CBIUContainerInfo@cldb@@@std@@@4@$0A@@std@@@std@@IEAA?AV?$_Tree_iterator@V?$_Tree_val@U?$_Tree_simple_types@U?$pair@$$CBIUContainerInfo@cldb@@@std@@@std@@@std@@@1@_NPEAU?$_Tree_node@U?$pair@$$CBIUContainerInfo@cldb@@@std@@PEAX@1@AEAU?$pair@$$CBIUContainerInfo@cldb@@@1@1@Z 0000000180015778 f i clReflectCore:Database.obj
 0001:00014a04       ??$_Insert_at@AEAU?$pair@$$CBIUTypeInheritance@cldb@@@std@@PEAU?$_Tree_node@U?$pair@$$CBIUTypeInheritance@cldb@@@std@@PEAX@2@@?$_Tree@V?$_Tmap_traits@IUTypeInheritance@cldb@@U?$less@I@std@@V?$allocator@U?$pair@$$CBIUTypeInheritance@cldb@@@std@@@4@$0A@@std@@@std@@IEAA?AV?$_Tree_iterator@V?$_Tree_val@U?$_Tree_simple_types@U?$pair@$$CBIUTypeInheritance@cldb@@@std@@@std@@@std@@@1@_NPEAU?$_Tree_node@U?$pair@$$CBIUTypeInheritance@cldb@@@std@@PEAX@1@AEAU?$pair@$$CBIUTypeInheritance@cldb@@@1@1@Z 0000000180015a04 f i clReflectCore:Database.obj
 0001:00014c90       ??$_Insert_at@U?$pair@$$CBIUName@cldb@@@std@@U_Not_a_node_tag@2@@?$_Tree@V?$_Tmap_traits@IUName@cldb@@U?$less@I@std@@V?$allocator@U?$pair@$$CBIUName@cldb@@@std@@@4@$0A@@std@@@std@@IEAA?AV?$_Tree_iterator@V?$_Tree_val@U?$_Tree_simple_types@U?$pair@$$CBIUName@cldb@@@std@@@std@@@std@@@1@_NPEAU?$_Tree_node@U?$pair@$$CBIUName@cldb@@@std@@PEAX@1@$$QEAU?$pair@$$CBIUName@cldb@@@1@U_Not_a_node_tag@1@@Z 0000000180015c90 f i clReflectCore:Database.obj
 0001:00014f2c       ??$_Insert_hint@AEAU?$pair@$$CBIUContainerInfo@cldb@@@std@@PEAU?$_Tree_node@U?$pair@$$CBIUContainerInfo@cldb@@@std@@PEAX@2@@?$_Tree@V?$_Tmap_traits@IUContainerInfo@cldb@@U?$less@I@std@@V?$allocator@U?$pair@$$CBIUContainerInfo@cldb@@@std@@@4@$0A@@std@@@std@@IEAA?AV?$_Tree_iterator@V?$_Tree_val@U?$_Tree_simple_types@U?$pair@$$CBIUContainerInfo@cldb@@@std@@@std@@@std@@@1@V?$_Tree_const_iterator@V?$_Tree_val@U?$_Tree_simple_types@U?$pair@$$CBIUContainerInfo@cldb@@@std@@@std@@@std@@@1@AEAU?$pair@$$CBIUContainerInfo@cldb@@@1@PEAU?$_Tree_node@U?$pair@$$CBIUContainerInfo@cldb@@@std@@PEAX@1@@Z 0000000180015f2c f i clReflectCore:Database.obj
 0001:00015144       ??$_Insert_hint@AEAU?$pair@$$CBIUTypeInheritance@cldb@@@std@@PEAU?$_Tree_node@U?$pair@$$CBIUTypeInheritance@cldb@@@std@@PEAX@2@@?$_Tree@V?$_Tmap_traits@IUTypeInheritance@cldb@@U?$less@I@std@@V?$allocator@U?$pair@$$CBIUTypeInheritance@cldb@@@std@@@4@$0A@@std@@@std@@IEAA?AV?$_Tree_iterator@V?$_Tree_val@U?$_Tree_simple_types@U?$pair@$$CBIUTypeInheritance@cldb@@@std@@@std@@@std@@@1@V?$_Tree_const_iterator@V?$_Tree_val@U?$_Tree_simple_types@U?$pair@$$CBIUTypeInheritance@cldb@@@std@@@std@@@std@@@1@AEAU?$pair@$$CBIUTypeInheritance@cldb@@@1@PEAU?$_Tree_node@U?$pair@$$CBIUTypeInheritance@cldb@@@std@@PEAX@1@@Z 0000000180016144 f i clReflectCore:Database.obj
 0001:0001535c       ??$_Insert_nohint@AEAU?$pair@$$CBIUContainerInfo@cldb@@@std@@PEAU?$_Tree_node@U?$pair@$$CBIUContainerInfo@cldb@@@std@@PEAX@2@@?$_Tree@V?$_Tmap_traits@IUContainerInfo@cldb@@U?$less@I@std@@V?$allocator@U?$pair@$$CBIUContainerInfo@cldb@@@std@@@4@$0A@@std@@@std@@IEAA?AU?$pair@V?$_Tree_iterator@V?$_Tree_val@U?$_Tree_simple_types@U?$pair@$$CBIUContainerInfo@cldb@@@std@@@std@@@std@@@std@@_N@1@_NAEAU?$pair@$$CBIUContainerInfo@cldb@@@1@PEAU?$_Tree_node@U?$pair@$$CBIUContainerInfo@cldb@@@std@@PEAX@1@@Z 000000018001635c f i clReflectCore:Database.obj
 0001:00015490       ??$_Insert_nohint@AEAU?$pair@$$CBIUTypeInheritance@cldb@@@std@@PEAU?$_Tree_node@U?$pair@$$CBIUTypeInheritance@cldb@@@std@@PEAX@2@@?$_Tree@V?$_Tmap_traits@IUTypeInheritance@cldb@@U?$less@I@std@@V?$allocator@U?$pair@$$CBIUTypeInheritance@cldb@@@std@@@4@$0A@@std@@@std@@IEAA?AU?$pair@V?$_Tree_iterator@V?$_Tree_val@U?$_Tree_simple_types@U?$pair@$$CBIUTypeInheritance@cldb@@@std@@@std@@@std@@@std@@_N@1@_NAEAU?$pair@$$CBIUTypeInheritance@cldb@@@1@PEAU?$_Tree_node@U?$pair@$$CBIUTypeInheritance@cldb@@@std@@PEAX@1@@Z 0000000180016490 f i clReflectCore:Database.obj
 0001:000155c4       ??$_Insert_nohint@U?$pair@$$CBIUName@cldb@@@std@@U_Not_a_node_tag@2@@?$_Tree@V?$_Tmap_traits@IUName@cldb@@U?$less@I@std@@V?$allocator@U?$pair@$$CBIUName@cldb@@@std@@@4@$0A@@std@@@std@@IEAA?AU?$pair@V?$_Tree_iterator@V?$_Tree_val@U?$_Tree_simple_types@U?$pair@$$CBIUName@cldb@@@std@@@std@@@std@@@std@@_N@1@_N$$QEAU?$pair@$$CBIUName@cldb@@@1@U_Not_a_node_tag@1@@Z 00000001800165c4 f i clReflectCore:Database.obj
 0001:000156d8       ??$_Try_emplace@AEBI$$V@?$map@IUContainerInfo@cldb@@U?$less@I@std@@V?$allocator@U?$pair@$$CBIUContainerInfo@cldb@@@std@@@4@@std@@QEAA?AU?$pair@V?$_Tree_iterator@V?$_Tree_val@U?$_Tree_simple_types@U?$pair@$$CBIUContainerInfo@cldb@@@std@@@std@@@std@@@std@@_N@1@AEBI@Z 00000001800166d8 f i clReflectCore:Database.obj
 0001:0001577c       ??$_Try_emplace@AEBI$$V@?$map@IUTypeInheritance@cldb@@U?$less@I@std@@V?$allocator@U?$pair@$$CBIUTypeInheritance@cldb@@@std@@@4@@std@@QEAA?AU?$pair@V?$_Tree_iterator@V?$_Tree_val@U?$_Tree_simple_types@U?$pair@$$CBIUTypeInheritance@cldb@@@std@@@std@@@std@@@std@@_N@1@AEBI@Z 000000018001677c f i clReflectCore:Database.obj
 0001:00015820       ??0Database@cldb@@QEAA@XZ  0000000180016820 f   clReflectCore:Database.obj
 0001:00015a4c       ??0Name@cldb@@QEAA@XZ      0000000180016a4c f i clReflectCore:Database.obj
 0001:00015a64       ??0Primitive@cldb@@QEAA@W4Kind@01@UName@1@1@Z 0000000180016a64 f i clReflectCore:Database.obj
 0001:00015b9c       ??0Type@cldb@@QEAA@UName@1@0K@Z 0000000180016b9c f i clReflectCore:Database.obj
 0001:00015cf0       ??1?$DBMap@UClass@cldb@@@cldb@@QEAA@XZ 0000000180016cf0 f i clReflectCore:Database.obj
 0001:00015d1c       ??1?$DBMap@UContainerInfo@cldb@@@cldb@@QEAA@XZ 0000000180016d1c f i clReflectCore:Database.obj
 0001:00015d48       ??1?$DBMap@UEnum@cldb@@@cldb@@QEAA@XZ 0000000180016d48 f i clReflectCore:Database.obj
 0001:00015d74       ??1?$DBMap@UEnumConstant@cldb@@@cldb@@QEAA@XZ 0000000180016d74 f i clReflectCore:Database.obj
 0001:00015da0       ??1?$DBMap@UField@cldb@@@cldb@@QEAA@XZ 0000000180016da0 f i clReflectCore:Database.obj
 0001:00015dcc       ??1?$DBMap@UFlagAttribute@cldb@@@cldb@@QEAA@XZ 0000000180016dcc f i clReflectCore:Database.obj
 0001:00015df8       ??1?$DBMap@UFloatAttribute@cldb@@@cldb@@QEAA@XZ 0000000180016df8 f i clReflectCore:Database.obj
 0001:00015e24       ??1?$DBMap@UFunction@cldb@@@cldb@@QEAA@XZ 0000000180016e24 f i clReflectCore:Database.obj
 0001:00015e50       ??1?$DBMap@UIntAttribute@cldb@@@cldb@@QEAA@XZ 0000000180016e50 f i clReflectCore:Database.obj
 0001:00015e7c       ??1?$DBMap@UNamespace@cldb@@@cldb@@QEAA@XZ 0000000180016e7c f i clReflectCore:Database.obj
 0001:00015ea8       ??1?$DBMap@UPrimitiveAttribute@cldb@@@cldb@@QEAA@XZ 0000000180016ea8 f i clReflectCore:Database.obj
 0001:00015ed4       ??1?$DBMap@UTemplate@cldb@@@cldb@@QEAA@XZ 0000000180016ed4 f i clReflectCore:Database.obj
 0001:00015f00       ??1?$DBMap@UTemplateType@cldb@@@cldb@@QEAA@XZ 0000000180016f00 f i clReflectCore:Database.obj
 0001:00015f38       ??1?$DBMap@UTextAttribute@cldb@@@cldb@@QEAA@XZ 0000000180016f38 f i clReflectCore:Database.obj
 0001:00015f64       ??1?$DBMap@UType@cldb@@@cldb@@QEAA@XZ 0000000180016f64 f i clReflectCore:Database.obj
 0001:00015f90       ??1?$DBMap@UTypeInheritance@cldb@@@cldb@@QEAA@XZ 0000000180016f90 f i clReflectCore:Database.obj
 0001:00015fbc       ??1?$map@IUName@cldb@@U?$less@I@std@@V?$allocator@U?$pair@$$CBIUName@cldb@@@std@@@4@@std@@QEAA@XZ 0000000180016fbc f i clReflectCore:Database.obj
 0001:00015fe8       ??1?$pair@$$CBIUName@cldb@@@std@@QEAA@XZ 0000000180016fe8 f i clReflectCore:Database.obj
 0001:00016048       ??F?$_Tree_unchecked_const_iterator@V?$_Tree_val@U?$_Tree_simple_types@U?$pair@$$CBIUName@cldb@@@std@@@std@@@std@@U_Iterator_base0@2@@std@@QEAAAEAV01@XZ 0000000180017048 f i clReflectCore:Database.obj
 0001:000160bc       ?AddBaseTypePrimitives@Database@cldb@@QEAAXXZ 00000001800170bc f   clReflectCore:Database.obj
 0001:0001696c       ?AddContainerInfo@Database@cldb@@QEAAXAEBV?$basic_string@DU?$char_traits@D@std@@V?$allocator@D@2@@std@@00_N@Z 000000018001796c f   clReflectCore:Database.obj
 0001:00016ad8       ?AddTypeInheritance@Database@cldb@@QEAAXAEBUName@2@0@Z 0000000180017ad8 f   clReflectCore:Database.obj
 0001:00016e44       ?CalculateFunctionUniqueID@cldb@@YAIAEBV?$vector@UField@cldb@@V?$allocator@UField@cldb@@@std@@@std@@@Z 0000000180017e44 f   clReflectCore:Database.obj
 0001:00016eec       ?GetName@Database@cldb@@QEAAAEBUName@2@PEBD@Z 0000000180017eec f   clReflectCore:Database.obj
 0001:00017158       ?GetName@Database@cldb@@QEBAAEBUName@2@I@Z 0000000180018158 f   clReflectCore:Database.obj
 0001:000171fc       ?_Buyheadnode@?$_Tree_comp_alloc@V?$_Tmap_traits@IUClass@cldb@@U?$less@I@std@@V?$allocator@U?$pair@$$CBIUClass@cldb@@@std@@@4@$00@std@@@std@@QEAAPEAU?$_Tree_node@U?$pair@$$CBIUClass@cldb@@@std@@PEAX@2@XZ 00000001800181fc f i clReflectCore:Database.obj
 0001:00017234       ?_Buyheadnode@?$_Tree_comp_alloc@V?$_Tmap_traits@IUContainerInfo@cldb@@U?$less@I@std@@V?$allocator@U?$pair@$$CBIUContainerInfo@cldb@@@std@@@4@$0A@@std@@@std@@QEAAPEAU?$_Tree_node@U?$pair@$$CBIUContainerInfo@cldb@@@std@@PEAX@2@XZ 0000000180018234 f i clReflectCore:Database.obj
 0001:0001726c       ?_Buyheadnode@?$_Tree_comp_alloc@V?$_Tmap_traits@IUEnum@cldb@@U?$less@I@std@@V?$allocator@U?$pair@$$CBIUEnum@cldb@@@std@@@4@$00@std@@@std@@QEAAPEAU?$_Tree_node@U?$pair@$$CBIUEnum@cldb@@@std@@PEAX@2@XZ 000000018001826c f i clReflectCore:Database.obj
 0001:000172a4       ?_Buyheadnode@?$_Tree_comp_alloc@V?$_Tmap_traits@IUEnumConstant@cldb@@U?$less@I@std@@V?$allocator@U?$pair@$$CBIUEnumConstant@cldb@@@std@@@4@$00@std@@@std@@QEAAPEAU?$_Tree_node@U?$pair@$$CBIUEnumConstant@cldb@@@std@@PEAX@2@XZ 00000001800182a4 f i clReflectCore:Database.obj
 0001:000172dc       ?_Buyheadnode@?$_Tree_comp_alloc@V?$_Tmap_traits@IUField@cldb@@U?$less@I@std@@V?$allocator@U?$pair@$$CBIUField@cldb@@@std@@@4@$00@std@@@std@@QEAAPEAU?$_Tree_node@U?$pair@$$CBIUField@cldb@@@std@@PEAX@2@XZ 00000001800182dc f i clReflectCore:Database.obj
 0001:00017314       ?_Buyheadnode@?$_Tree_comp_alloc@V?$_Tmap_traits@IUFlagAttribute@cldb@@U?$less@I@std@@V?$allocator@U?$pair@$$CBIUFlagAttribute@cldb@@@std@@@4@$00@std@@@std@@QEAAPEAU?$_Tree_node@U?$pair@$$CBIUFlagAttribute@cldb@@@std@@PEAX@2@XZ 0000000180018314 f i clReflectCore:Database.obj
 0001:0001734c       ?_Buyheadnode@?$_Tree_comp_alloc@V?$_Tmap_traits@IUFloatAttribute@cldb@@U?$less@I@std@@V?$allocator@U?$pair@$$CBIUFloatAttribute@cldb@@@std@@@4@$00@std@@@std@@QEAAPEAU?$_Tree_node@U?$pair@$$CBIUFloatAttribute@cldb@@@std@@PEAX@2@XZ 000000018001834c f i clReflectCore:Database.obj
 0001:00017384       ?_Buyheadnode@?$_Tree_comp_alloc@V?$_Tmap_traits@IUFunction@cldb@@U?$less@I@std@@V?$allocator@U?$pair@$$CBIUFunction@cldb@@@std@@@4@$00@std@@@std@@QEAAPEAU?$_Tree_node@U?$pair@$$CBIUFunction@cldb@@@std@@PEAX@2@XZ 0000000180018384 f i clReflectCore:Database.obj
 0001:000173bc       ?_Buyheadnode@?$_Tree_comp_alloc@V?$_Tmap_traits@IUGetTypeFunctions@cldb@@U?$less@I@std@@V?$allocator@U?$pair@$$CBIUGetTypeFunctions@cldb@@@std@@@4@$0A@@std@@@std@@QEAAPEAU?$_Tree_node@U?$pair@$$CBIUGetTypeFunctions@cldb@@@std@@PEAX@2@XZ 00000001800183bc f i clReflectCore:Database.obj
 0001:000173f4       ?_Buyheadnode@?$_Tree_comp_alloc@V?$_Tmap_traits@IUIntAttribute@cldb@@U?$less@I@std@@V?$allocator@U?$pair@$$CBIUIntAttribute@cldb@@@std@@@4@$00@std@@@std@@QEAAPEAU?$_Tree_node@U?$pair@$$CBIUIntAttribute@cldb@@@std@@PEAX@2@XZ 00000001800183f4 f i clReflectCore:Database.obj
 0001:0001742c       ?_Buyheadnode@?$_Tree_comp_alloc@V?$_Tmap_traits@IUName@cldb@@U?$less@I@std@@V?$allocator@U?$pair@$$CBIUName@cldb@@@std@@@4@$0A@@std@@@std@@QEAAPEAU?$_Tree_node@U?$pair@$$CBIUName@cldb@@@std@@PEAX@2@XZ 000000018001842c f i clReflectCore:Database.obj
 0001:00017464       ?_Buyheadnode@?$_Tree_comp_alloc@V?$_Tmap_traits@IUNamespace@cldb@@U?$less@I@std@@V?$allocator@U?$pair@$$CBIUNamespace@cldb@@@std@@@4@$00@std@@@std@@QEAAPEAU?$_Tree_node@U?$pair@$$CBIUNamespace@cldb@@@std@@PEAX@2@XZ 0000000180018464 f i clReflectCore:Database.obj
 0001:0001749c       ?_Buyheadnode@?$_Tree_comp_alloc@V?$_Tmap_traits@IUPrimitiveAttribute@cldb@@U?$less@I@std@@V?$allocator@U?$pair@$$CBIUPrimitiveAttribute@cldb@@@std@@@4@$00@std@@@std@@QEAAPEAU?$_Tree_node@U?$pair@$$CBIUPrimitiveAttribute@cldb@@@std@@PEAX@2@XZ 000000018001849c f i clReflectCore:Database.obj
 0001:000174d4       ?_Buyheadnode@?$_Tree_comp_alloc@V?$_Tmap_traits@IUTemplate@cldb@@U?$less@I@std@@V?$allocator@U?$pair@$$CBIUTemplate@cldb@@@std@@@4@$00@std@@@std@@QEAAPEAU?$_Tree_node@U?$pair@$$CBIUTemplate@cldb@@@std@@PEAX@2@XZ 00000001800184d4 f i clReflectCore:Database.obj
 0001:0001750c       ?_Buyheadnode@?$_Tree_comp_alloc@V?$_Tmap_traits@IUTemplateType@cldb@@U?$less@I@std@@V?$allocator@U?$pair@$$CBIUTemplateType@cldb@@@std@@@4@$00@std@@@std@@QEAAPEAU?$_Tree_node@U?$pair@$$CBIUTemplateType@cldb@@@std@@PEAX@2@XZ 000000018001850c f i clReflectCore:Database.obj
 0001:00017544       ?_Buyheadnode@?$_Tree_comp_alloc@V?$_Tmap_traits@IUTextAttribute@cldb@@U?$less@I@std@@V?$allocator@U?$pair@$$CBIUTextAttribute@cldb@@@std@@@4@$00@std@@@std@@QEAAPEAU?$_Tree_node@U?$pair@$$CBIUTextAttribute@cldb@@@std@@PEAX@2@XZ 0000000180018544 f i clReflectCore:Database.obj
 0001:0001757c       ?_Buyheadnode@?$_Tree_comp_alloc@V?$_Tmap_traits@IUType@cldb@@U?$less@I@std@@V?$allocator@U?$pair@$$CBIUType@cldb@@@std@@@4@$00@std@@@std@@QEAAPEAU?$_Tree_node@U?$pair@$$CBIUType@cldb@@@std@@PEAX@2@XZ 000000018001857c f i clReflectCore:Database.obj
 0001:000175b4       ?_Buyheadnode@?$_Tree_comp_alloc@V?$_Tmap_traits@IUTypeInheritance@cldb@@U?$less@I@std@@V?$allocator@U?$pair@$$CBIUTypeInheritance@cldb@@@std@@@4@$0A@@std@@@std@@QEAAPEAU?$_Tree_node@U?$pair@$$CBIUTypeInheritance@cldb@@@std@@PEAX@2@XZ 00000001800185b4 f i clReflectCore:Database.obj
 0001:000175ec       ?_Buynode0@?$_Tree_comp_alloc@V?$_Tmap_traits@IUName@cldb@@U?$less@I@std@@V?$allocator@U?$pair@$$CBIUName@cldb@@@std@@@4@$0A@@std@@@std@@QEAAPEAU?$_Tree_node@U?$pair@$$CBIUName@cldb@@@std@@PEAX@2@XZ 00000001800185ec f i clReflectCore:Database.obj
 0001:0001762c       ?_Destroy_if_node@?$_Tree@V?$_Tmap_traits@IUContainerInfo@cldb@@U?$less@I@std@@V?$allocator@U?$pair@$$CBIUContainerInfo@cldb@@@std@@@4@$0A@@std@@@std@@IEAAXPEAU?$_Tree_node@U?$pair@$$CBIUContainerInfo@cldb@@@std@@PEAX@2@@Z 000000018001862c f i clReflectCore:Database.obj
 0001:00017650       ?_Destroy_if_node@?$_Tree@V?$_Tmap_traits@IUTypeInheritance@cldb@@U?$less@I@std@@V?$allocator@U?$pair@$$CBIUTypeInheritance@cldb@@@std@@@4@$0A@@std@@@std@@IEAAXPEAU?$_Tree_node@U?$pair@$$CBIUTypeInheritance@cldb@@@std@@PEAX@2@@Z 0000000180018650 f i clReflectCore:Database.obj
 0001:00017674       ?_Freenode0@?$_Tree_comp_alloc@V?$_Tmap_traits@IUName@cldb@@U?$less@I@std@@V?$allocator@U?$pair@$$CBIUName@cldb@@@std@@@4@$0A@@std@@@std@@QEAAXPEAU?$_Tree_node@U?$pair@$$CBIUName@cldb@@@std@@PEAX@2@@Z 0000000180018674 f i clReflectCore:Database.obj
 0001:00017684       ?deallocate@?$allocator@U?$_Tree_node@U?$pair@$$CBIUGetTypeFunctions@cldb@@@std@@PEAX@std@@@std@@QEAAXQEAU?$_Tree_node@U?$pair@$$CBIUGetTypeFunctions@cldb@@@std@@PEAX@2@_K@Z 0000000180018684 f i clReflectCore:Database.obj
 0001:000176c8       ?deallocate@?$allocator@U?$_Tree_node@U?$pair@$$CBIUName@cldb@@@std@@PEAX@std@@@std@@QEAAXQEAU?$_Tree_node@U?$pair@$$CBIUName@cldb@@@std@@PEAX@2@_K@Z 00000001800186c8 f i clReflectCore:Database.obj
 0001:00018a30       ??$_Buynode@AEBUpiecewise_construct_t@std@@V?$tuple@AEBI@2@V?$tuple@$$V@2@@?$_Tree_comp_alloc@V?$_Tmap_traits@IUName@cldb@@U?$less@I@std@@V?$allocator@U?$pair@$$CBIUName@cldb@@@std@@@4@$0A@@std@@@std@@QEAAPEAU?$_Tree_node@U?$pair@$$CBIUName@cldb@@@std@@PEAX@1@AEBUpiecewise_construct_t@1@$$QEAV?$tuple@AEBI@1@$$QEAV?$tuple@$$V@1@@Z 0000000180019a30 f i clReflectCore:DatabaseTextSerialiser.obj
 0001:00018a80       ??$_Insert_at@AEAU?$pair@$$CBIUName@cldb@@@std@@PEAU?$_Tree_node@U?$pair@$$CBIUName@cldb@@@std@@PEAX@2@@?$_Tree@V?$_Tmap_traits@IUName@cldb@@U?$less@I@std@@V?$allocator@U?$pair@$$CBIUName@cldb@@@std@@@4@$0A@@std@@@std@@IEAA?AV?$_Tree_iterator@V?$_Tree_val@U?$_Tree_simple_types@U?$pair@$$CBIUName@cldb@@@std@@@std@@@std@@@1@_NPEAU?$_Tree_node@U?$pair@$$CBIUName@cldb@@@std@@PEAX@1@AEAU?$pair@$$CBIUName@cldb@@@1@1@Z 0000000180019a80 f i clReflectCore:DatabaseTextSerialiser.obj
 0001:00018d0c       ??$_Insert_hint@AEAU?$pair@$$CBIUName@cldb@@@std@@PEAU?$_Tree_node@U?$pair@$$CBIUName@cldb@@@std@@PEAX@2@@?$_Tree@V?$_Tmap_traits@IUName@cldb@@U?$less@I@std@@V?$allocator@U?$pair@$$CBIUName@cldb@@@std@@@4@$0A@@std@@@std@@IEAA?AV?$_Tree_iterator@V?$_Tree_val@U?$_Tree_simple_types@U?$pair@$$CBIUName@cldb@@@std@@@std@@@std@@@1@V?$_Tree_const_iterator@V?$_Tree_val@U?$_Tree_simple_types@U?$pair@$$CBIUName@cldb@@@std@@@std@@@std@@@1@AEAU?$pair@$$CBIUName@cldb@@@1@PEAU?$_Tree_node@U?$pair@$$CBIUName@cldb@@@std@@PEAX@1@@Z 0000000180019d0c f i clReflectCore:DatabaseTextSerialiser.obj
 0001:00018f24       ??$_Insert_nohint@AEAU?$pair@$$CBIUName@cldb@@@std@@PEAU?$_Tree_node@U?$pair@$$CBIUName@cldb@@@std@@PEAX@2@@?$_Tree@V?$_Tmap_traits@IUName@cldb@@U?$less@I@std@@V?$allocator@U?$pair@$$CBIUName@cldb@@@std@@@4@$0A@@std@@@std@@IEAA?AU?$pair@V?$_Tree_iterator@V?$_Tree_val@U?$_Tree_simple_types@U?$pair@$$CBIUName@cldb@@@std@@@std@@@std@@@std@@_N@1@_NAEAU?$pair@$$CBIUName@cldb@@@1@PEAU?$_Tree_node@U?$pair@$$CBIUName@cldb@@@std@@PEAX@1@@Z 0000000180019f24 f i clReflectCore:DatabaseTextSerialiser.obj
 0001:0001906c       ??$_Try_emplace@AEBI$$V@?$map@IUName@cldb@@U?$less@I@std@@V?$allocator@U?$pair@$$CBIUName@cldb@@@std@@@4@@std@@QEAA?AU?$pair@V?$_Tree_iterator@V?$_Tree_val@U?$_Tree_simple_types@U?$pair@$$CBIUName@cldb@@@std@@@std@@@std@@@std@@_N@1@AEBI@Z 000000018001a06c f i clReflectCore:DatabaseTextSerialiser.obj
 0001:00019110       ??0Attribute@cldb@@QEAA@W4Kind@Primitive@1@UName@1@1@Z 000000018001a110 f i clReflectCore:DatabaseTextSerialiser.obj
 0001:00019268       ??0Class@cldb@@QEAA@UName@1@0I_N@Z 000000018001a268 f i clReflectCore:DatabaseTextSerialiser.obj
 0001:000193c4       ??0Enum@cldb@@QEAA@UName@1@0W4Scoped@01@@Z 000000018001a3c4 f i clReflectCore:DatabaseTextSerialiser.obj
 0001:00019520       ??0EnumConstant@cldb@@QEAA@UName@1@0H@Z 000000018001a520 f i clReflectCore:DatabaseTextSerialiser.obj
 0001:00019674       ??0Field@cldb@@QEAA@UName@1@00UQualifier@1@HI@Z 000000018001a674 f i clReflectCore:DatabaseTextSerialiser.obj
 0001:00019860       ??0FlagAttribute@cldb@@QEAA@UName@1@0@Z 000000018001a860 f i clReflectCore:DatabaseTextSerialiser.obj
 0001:000199c4       ??0FloatAttribute@cldb@@QEAA@UName@1@0M@Z 000000018001a9c4 f i clReflectCore:DatabaseTextSerialiser.obj
 0001:00019b3c       ??0Function@cldb@@QEAA@UName@1@0I@Z 000000018001ab3c f i clReflectCore:DatabaseTextSerialiser.obj
 0001:00019c94       ??0IntAttribute@cldb@@QEAA@UName@1@0H@Z 000000018001ac94 f i clReflectCore:DatabaseTextSerialiser.obj
 0001:00019df4       ??0Namespace@cldb@@QEAA@UName@1@0@Z 000000018001adf4 f i clReflectCore:DatabaseTextSerialiser.obj
 0001:00019f50       ??0PrimitiveAttribute@cldb@@QEAA@UName@1@00@Z 000000018001af50 f i clReflectCore:DatabaseTextSerialiser.obj
 0001:0001a124       ??0Template@cldb@@QEAA@UName@1@0@Z 000000018001b124 f i clReflectCore:DatabaseTextSerialiser.obj
 0001:0001a280       ??0TemplateType@cldb@@QEAA@UName@1@0I@Z 000000018001b280 f i clReflectCore:DatabaseTextSerialiser.obj
 0001:0001a404       ??0TextAttribute@cldb@@QEAA@UName@1@0PEBD@Z 000000018001b404 f i clReflectCore:DatabaseTextSerialiser.obj
 0001:0001a57c       ??0Type@cldb@@QEAA@W4Kind@Primitive@1@UName@1@1I@Z 000000018001b57c f i clReflectCore:DatabaseTextSerialiser.obj
 0001:0001a6d0       ??1Class@cldb@@QEAA@XZ     000000018001b6d0 f i clReflectCore:DatabaseTextSerialiser.obj
 0001:0001a6d8       ??1Enum@cldb@@QEAA@XZ      000000018001b6d8 f i clReflectCore:DatabaseTextSerialiser.obj
 0001:0001a6e0       ??1EnumConstant@cldb@@QEAA@XZ 000000018001b6e0 f i clReflectCore:DatabaseTextSerialiser.obj
 0001:0001a6e8       ??1Function@cldb@@QEAA@XZ  000000018001b6e8 f i clReflectCore:DatabaseTextSerialiser.obj
 0001:0001a6f0       ??1Namespace@cldb@@QEAA@XZ 000000018001b6f0 f i clReflectCore:DatabaseTextSerialiser.obj
 0001:0001a6f8       ??1Template@cldb@@QEAA@XZ  000000018001b6f8 f i clReflectCore:DatabaseTextSerialiser.obj
 0001:0001a700       ??1TemplateType@cldb@@QEAA@XZ 000000018001b700 f i clReflectCore:DatabaseTextSerialiser.obj
 0001:0001a858       ?IsTextDatabase@cldb@@YA_NPEBD@Z 000000018001b858 f   clReflectCore:DatabaseTextSerialiser.obj
 0001:0001bd00       ?ReadTextDatabase@cldb@@YA_NPEBDAEAVDatabase@1@@Z 000000018001cd00 f   clReflectCore:DatabaseTextSerialiser.obj
 0001:0001c850       ?WriteTextDatabase@cldb@@YAXPEBDAEBVDatabase@1@@Z 000000018001d850 f   clReflectCore:DatabaseTextSerialiser.obj
 0001:0001cc4c       ?_Destroy_if_node@?$_Tree@V?$_Tmap_traits@IUName@cldb@@U?$less@I@std@@V?$allocator@U?$pair@$$CBIUName@cldb@@@std@@@4@$0A@@std@@@std@@IEAAXPEAU?$_Tree_node@U?$pair@$$CBIUName@cldb@@@std@@PEAX@2@@Z 000000018001dc4c f i clReflectCore:DatabaseTextSerialiser.obj
 0001:0001cc74       fprintf                    000000018001dc74 f i clReflectCore:DatabaseTextSerialiser.obj
 0001:0001ccb8       sscanf                     000000018001dcb8 f i clReflectCore:DatabaseTextSerialiser.obj
 0001:00024048       ??$_Buynode@AEBUpiecewise_construct_t@std@@V?$tuple@AEBI@2@V?$tuple@$$V@2@@?$_Tree_comp_alloc@V?$_Tmap_traits@IV?$basic_string@DU?$char_traits@D@std@@V?$allocator@D@2@@std@@U?$less@I@2@V?$allocator@U?$pair@$$CBIV?$basic_string@DU?$char_traits@D@std@@V?$allocator@D@2@@std@@@std@@@2@$0A@@std@@@std@@QEAAPEAU?$_Tree_node@U?$pair@$$CBIV?$basic_string@DU?$char_traits@D@std@@V?$allocator@D@2@@std@@@std@@PEAX@1@AEBUpiecewise_construct_t@1@$$QEAV?$tuple@AEBI@1@$$QEAV?$tuple@$$V@1@@Z 0000000180025048 f i clReflectCore:DatabaseBinarySerialiser.obj
 0001:00024094       ??$_Emplace_back@AEAUTextAttribute@cldb@@@?$_Uninitialized_backout_al@PEAUTextAttribute@cldb@@V?$allocator@UTextAttribute@cldb@@@std@@@std@@QEAAXAEAUTextAttribute@cldb@@@Z 0000000180025094 f i clReflectCore:DatabaseBinarySerialiser.obj
 0001:00024100       ??$_Insert_at@AEAU?$pair@$$CBIV?$basic_string@DU?$char_traits@D@std@@V?$allocator@D@2@@std@@@std@@PEAU?$_Tree_node@U?$pair@$$CBIV?$basic_string@DU?$char_traits@D@std@@V?$allocator@D@2@@std@@@std@@PEAX@2@@?$_Tree@V?$_Tmap_traits@IV?$basic_string@DU?$char_traits@D@std@@V?$allocator@D@2@@std@@U?$less@I@2@V?$allocator@U?$pair@$$CBIV?$basic_string@DU?$char_traits@D@std@@V?$allocator@D@2@@std@@@std@@@2@$0A@@std@@@std@@IEAA?AV?$_Tree_iterator@V?$_Tree_val@U?$_Tree_simple_types@U?$pair@$$CBIV?$basic_string@DU?$char_traits@D@std@@V?$allocator@D@2@@std@@@std@@@std@@@std@@@1@_NPEAU?$_Tree_node@U?$pair@$$CBIV?$basic_string@DU?$char_traits@D@std@@V?$allocator@D@2@@std@@@std@@PEAX@1@AEAU?$pair@$$CBIV?$basic_string@DU?$char_traits@D@std@@V?$allocator@D@2@@std@@@1@1@Z 0000000180025100 f i clReflectCore:DatabaseBinarySerialiser.obj
 0001:0002438c       ??$_Insert_hint@AEAU?$pair@$$CBIV?$basic_string@DU?$char_traits@D@std@@V?$allocator@D@2@@std@@@std@@PEAU?$_Tree_node@U?$pair@$$CBIV?$basic_string@DU?$char_traits@D@std@@V?$allocator@D@2@@std@@@std@@PEAX@2@@?$_Tree@V?$_Tmap_traits@IV?$basic_string@DU?$char_traits@D@std@@V?$allocator@D@2@@std@@U?$less@I@2@V?$allocator@U?$pair@$$CBIV?$basic_string@DU?$char_traits@D@std@@V?$allocator@D@2@@std@@@std@@@2@$0A@@std@@@std@@IEAA?AV?$_Tree_iterator@V?$_Tree_val@U?$_Tree_simple_types@U?$pair@$$CBIV?$basic_string@DU?$char_traits@D@std@@V?$allocator@D@2@@std@@@std@@@std@@@std@@@1@V?$_Tree_const_iterator@V?$_Tree_val@U?$_Tree_simple_types@U?$pair@$$CBIV?$basic_string@DU?$char_traits@D@std@@V?$allocator@D@2@@std@@@std@@@std@@@std@@@1@AEAU?$pair@$$CBIV?$basic_string@DU?$char_traits@D@std@@V?$allocator@D@2@@std@@@1@PEAU?$_Tree_node@U?$pair@$$CBIV?$basic_string@DU?$char_traits@D@std@@V?$allocator@D@2@@std@@@std@@PEAX@1@@Z 000000018002538c f i clReflectCore:DatabaseBinarySerialiser.obj
 0001:000245a4       ??$_Insert_nohint@AEAU?$pair@$$CBIV?$basic_string@DU?$char_traits@D@std@@V?$allocator@D@2@@std@@@std@@PEAU?$_Tree_node@U?$pair@$$CBIV?$basic_string@DU?$char_traits@D@std@@V?$allocator@D@2@@std@@@std@@PEAX@2@@?$_Tree@V?$_Tmap_traits@IV?$basic_string@DU?$char_traits@D@std@@V?$allocator@D@2@@std@@U?$less@I@2@V?$allocator@U?$pair@$$CBIV?$basic_string@DU?$char_traits@D@std@@V?$allocator@D@2@@std@@@std@@@2@$0A@@std@@@std@@IEAA?AU?$pair@V?$_Tree_iterator@V?$_Tree_val@U?$_Tree_simple_types@U?$pair@$$CBIV?$basic_string@DU?$char_traits@D@std@@V?$allocator@D@2@@std@@@std@@@std@@@std@@@std@@_N@1@_NAEAU?$pair@$$CBIV?$basic_string@DU?$char_traits@D@std@@V?$allocator@D@2@@std@@@1@PEAU?$_Tree_node@U?$pair@$$CBIV?$basic_string@DU?$char_traits@D@std@@V?$allocator@D@2@@std@@@std@@PEAX@1@@Z 00000001800255a4 f i clReflectCore:DatabaseBinarySerialiser.obj
 0001:000246ec       ??$_Resize@V<lambda_0f89fc9fc8c7846969402858336395bb>@@@?$vector@UEnumConstant@cldb@@V?$allocator@UEnumConstant@cldb@@@std@@@std@@AEAAX_KV<lambda_0f89fc9fc8c7846969402858336395bb>@@@Z 00000001800256ec f i clReflectCore:DatabaseBinarySerialiser.obj
 0001:000248ac       ??$_Resize@V<lambda_1d9a17ee7489db12aeb6debadf2a76d2>@@@?$vector@UIntAttribute@cldb@@V?$allocator@UIntAttribute@cldb@@@std@@@std@@AEAAX_KV<lambda_1d9a17ee7489db12aeb6debadf2a76d2>@@@Z 00000001800258ac f i clReflectCore:DatabaseBinarySerialiser.obj
 0001:00024a7c       ??$_Resize@V<lambda_2baa334141e6fc3992d08daf46f67ed3>@@@?$vector@UTypeInheritance@cldb@@V?$allocator@UTypeInheritance@cldb@@@std@@@std@@AEAAX_KV<lambda_2baa334141e6fc3992d08daf46f67ed3>@@@Z 0000000180025a7c f i clReflectCore:DatabaseBinarySerialiser.obj
 0001:00024c68       ??$_Resize@V<lambda_41f84704b49484471f71363d7896478d>@@@?$vector@UField@cldb@@V?$allocator@UField@cldb@@@std@@@std@@AEAAX_KV<lambda_41f84704b49484471f71363d7896478d>@@@Z 0000000180025c68 f i clReflectCore:DatabaseBinarySerialiser.obj
 0001:00024dec       ??$_Resize@V<lambda_582ebb5cb9b7b8422570fc7453fbb4f6>@@@?$vector@UTemplate@cldb@@V?$allocator@UTemplate@cldb@@@std@@@std@@AEAAX_KV<lambda_582ebb5cb9b7b8422570fc7453fbb4f6>@@@Z 0000000180025dec f i clReflectCore:DatabaseBinarySerialiser.obj
 0001:00024fc8       ??$_Resize@V<lambda_5f1b516951f05fda531e0c5027e9f0e1>@@@?$vector@UTextAttribute@cldb@@V?$allocator@UTextAttribute@cldb@@@std@@@std@@AEAAX_KV<lambda_5f1b516951f05fda531e0c5027e9f0e1>@@@Z 0000000180025fc8 f i clReflectCore:DatabaseBinarySerialiser.obj
 0001:000251b0       ??$_Resize@V<lambda_62ac65ba1589410dfece8f22f2492ddf>@@@?$vector@UTemplateType@cldb@@V?$allocator@UTemplateType@cldb@@@std@@@std@@AEAAX_KV<lambda_62ac65ba1589410dfece8f22f2492ddf>@@@Z 00000001800261b0 f i clReflectCore:DatabaseBinarySerialiser.obj
 0001:000253ac       ??$_Resize@V<lambda_65d042061af55f0fc0681e8e04418484>@@@?$vector@UType@cldb@@V?$allocator@UType@cldb@@@std@@@std@@AEAAX_KV<lambda_65d042061af55f0fc0681e8e04418484>@@@Z 00000001800263ac f i clReflectCore:DatabaseBinarySerialiser.obj
 0001:00025574       ??$_Resize@V<lambda_81ce4be6ac6be9aac855db2a8f6ecfb3>@@@?$vector@UPrimitiveAttribute@cldb@@V?$allocator@UPrimitiveAttribute@cldb@@@std@@@std@@AEAAX_KV<lambda_81ce4be6ac6be9aac855db2a8f6ecfb3>@@@Z 0000000180026574 f i clReflectCore:DatabaseBinarySerialiser.obj
 0001:000257a8       ??$_Resize@V<lambda_859d07532c1f0c7a121e672158d52af0>@@@?$vector@UFloatAttribute@cldb@@V?$allocator@UFloatAttribute@cldb@@@std@@@std@@AEAAX_KV<lambda_859d07532c1f0c7a121e672158d52af0>@@@Z 00000001800267a8 f i clReflectCore:DatabaseBinarySerialiser.obj
 0001:00025978       ??$_Resize@V<lambda_86fb06c36db0c13f4fdfceefa0e3e86b>@@@?$vector@UFlagAttribute@cldb@@V?$allocator@UFlagAttribute@cldb@@@std@@@std@@AEAAX_KV<lambda_86fb06c36db0c13f4fdfceefa0e3e86b>@@@Z 0000000180026978 f i clReflectCore:DatabaseBinarySerialiser.obj
 0001:00025b98       ??$_Resize@V<lambda_9663d2d3ac4551e51760a11caa6c844d>@@@?$vector@UClass@cldb@@V?$allocator@UClass@cldb@@@std@@@std@@AEAAX_KV<lambda_9663d2d3ac4551e51760a11caa6c844d>@@@Z 0000000180026b98 f i clReflectCore:DatabaseBinarySerialiser.obj
 0001:00025d98       ??$_Resize@V<lambda_c9f64c173a484c8fb55124e0166a6298>@@@?$vector@UFunction@cldb@@V?$allocator@UFunction@cldb@@@std@@@std@@AEAAX_KV<lambda_c9f64c173a484c8fb55124e0166a6298>@@@Z 0000000180026d98 f i clReflectCore:DatabaseBinarySerialiser.obj
 0001:00025f9c       ??$_Resize@V<lambda_dcc8b86c96da60b4b5dad3efd7d582ac>@@@?$vector@UEnum@cldb@@V?$allocator@UEnum@cldb@@@std@@@std@@AEAAX_KV<lambda_dcc8b86c96da60b4b5dad3efd7d582ac>@@@Z 0000000180026f9c f i clReflectCore:DatabaseBinarySerialiser.obj
 0001:00026198       ??$_Resize@V<lambda_ee76cf0b439eb3dba7defabcc61fc09a>@@@?$vector@UContainerInfo@cldb@@V?$allocator@UContainerInfo@cldb@@@std@@@std@@AEAAX_KV<lambda_ee76cf0b439eb3dba7defabcc61fc09a>@@@Z 0000000180027198 f i clReflectCore:DatabaseBinarySerialiser.obj
 0001:00026374       ??$_Resize@V<lambda_ef8da8a16c419d1a6261a68285354fc3>@@@?$vector@UNamespace@cldb@@V?$allocator@UNamespace@cldb@@@std@@@std@@AEAAX_KV<lambda_ef8da8a16c419d1a6261a68285354fc3>@@@Z 0000000180027374 f i clReflectCore:DatabaseBinarySerialiser.obj
 0001:00026550       ??$_Try_emplace@AEBI$$V@?$map@IV?$basic_string@DU?$char_traits@D@std@@V?$allocator@D@2@@std@@U?$less@I@2@V?$allocator@U?$pair@$$CBIV?$basic_string@DU?$char_traits@D@std@@V?$allocator@D@2@@std@@@std@@@2@@std@@QEAA?AU?$pair@V?$_Tree_iterator@V?$_Tree_val@U?$_Tree_simple_types@U?$pair@$$CBIV?$basic_string@DU?$char_traits@D@std@@V?$allocator@D@2@@std@@@std@@@std@@@std@@@std@@_N@1@AEBI@Z 0000000180027550 f i clReflectCore:DatabaseBinarySerialiser.obj
 0001:000265f4       ??$_Uninitialized_copy@PEAUFloatAttribute@cldb@@PEAU12@V?$allocator@UFloatAttribute@cldb@@@std@@@std@@YAPEAUFloatAttribute@cldb@@QEAU12@0PEAU12@AEAV?$allocator@UFloatAttribute@cldb@@@0@@Z 00000001800275f4 f i clReflectCore:DatabaseBinarySerialiser.obj
 0001:0002666c       ??$_Uninitialized_copy@PEAUIntAttribute@cldb@@PEAU12@V?$allocator@UIntAttribute@cldb@@@std@@@std@@YAPEAUIntAttribute@cldb@@QEAU12@0PEAU12@AEAV?$allocator@UIntAttribute@cldb@@@0@@Z 000000018002766c f i clReflectCore:DatabaseBinarySerialiser.obj
 0001:000266e4       ??$_Uninitialized_move@PEAUEnumConstant@cldb@@PEAU12@V?$allocator@UEnumConstant@cldb@@@std@@@std@@YAPEAUEnumConstant@cldb@@QEAU12@0PEAU12@AEAV?$allocator@UEnumConstant@cldb@@@0@@Z 00000001800276e4 f i clReflectCore:DatabaseBinarySerialiser.obj
 0001:00026758       ??$_Uninitialized_move@PEAUType@cldb@@PEAU12@V?$allocator@UType@cldb@@@std@@@std@@YAPEAUType@cldb@@QEAU12@0PEAU12@AEAV?$allocator@UType@cldb@@@0@@Z 0000000180027758 f i clReflectCore:DatabaseBinarySerialiser.obj
 0001:000267cc       ??$_Uninitialized_value_construct_n@PEAUField@cldb@@_KV?$allocator@UField@cldb@@@std@@@std@@YAPEAUField@cldb@@PEAU12@_KAEAV?$allocator@UField@cldb@@@0@@Z 00000001800277cc f i clReflectCore:DatabaseBinarySerialiser.obj
 0001:00026838       ??0?$vector@UClass@cldb@@V?$allocator@UClass@cldb@@@std@@@std@@QEAA@_KAEBV?$allocator@UClass@cldb@@@1@@Z 0000000180027838 f i clReflectCore:DatabaseBinarySerialiser.obj
 0001:000268f8       ??0?$vector@UContainerInfo@cldb@@V?$allocator@UContainerInfo@cldb@@@std@@@std@@QEAA@_KAEBV?$allocator@UContainerInfo@cldb@@@1@@Z 00000001800278f8 f i clReflectCore:DatabaseBinarySerialiser.obj
 0001:000269cc       ??0?$vector@UEnum@cldb@@V?$allocator@UEnum@cldb@@@std@@@std@@QEAA@_KAEBV?$allocator@UEnum@cldb@@@1@@Z 00000001800279cc f i clReflectCore:DatabaseBinarySerialiser.obj
 0001:00026a88       ??0?$vector@UEnumConstant@cldb@@V?$allocator@UEnumConstant@cldb@@@std@@@std@@QEAA@_KAEBV?$allocator@UEnumConstant@cldb@@@1@@Z 0000000180027a88 f i clReflectCore:DatabaseBinarySerialiser.obj
 0001:00026b44       ??0?$vector@UField@cldb@@V?$allocator@UField@cldb@@@std@@@std@@QEAA@_KAEBV?$allocator@UField@cldb@@@1@@Z 0000000180027b44 f i clReflectCore:DatabaseBinarySerialiser.obj
 0001:00026bc4       ??0?$vector@UFlagAttribute@cldb@@V?$allocator@UFlagAttribute@cldb@@@std@@@std@@QEAA@_KAEBV?$allocator@UFlagAttribute@cldb@@@1@@Z 0000000180027bc4 f i clReflectCore:DatabaseBinarySerialiser.obj
 0001:00026c90       ??0?$vector@UFloatAttribute@cldb@@V?$allocator@UFloatAttribute@cldb@@@std@@@std@@QEAA@_KAEBV?$allocator@UFloatAttribute@cldb@@@1@@Z 0000000180027c90 f i clReflectCore:DatabaseBinarySerialiser.obj
 0001:00026d54       ??0?$vector@UFunction@cldb@@V?$allocator@UFunction@cldb@@@std@@@std@@QEAA@_KAEBV?$allocator@UFunction@cldb@@@1@@Z 0000000180027d54 f i clReflectCore:DatabaseBinarySerialiser.obj
 0001:00026e14       ??0?$vector@UIntAttribute@cldb@@V?$allocator@UIntAttribute@cldb@@@std@@@std@@QEAA@_KAEBV?$allocator@UIntAttribute@cldb@@@1@@Z 0000000180027e14 f i clReflectCore:DatabaseBinarySerialiser.obj
 0001:00026ed8       ??0?$vector@UNamespace@cldb@@V?$allocator@UNamespace@cldb@@@std@@@std@@QEAA@_KAEBV?$allocator@UNamespace@cldb@@@1@@Z 0000000180027ed8 f i clReflectCore:DatabaseBinarySerialiser.obj
 0001:00026f90       ??0?$vector@UPrimitiveAttribute@cldb@@V?$allocator@UPrimitiveAttribute@cldb@@@std@@@std@@QEAA@_KAEBV?$allocator@UPrimitiveAttribute@cldb@@@1@@Z 0000000180027f90 f i clReflectCore:DatabaseBinarySerialiser.obj
 0001:00027074       ??0?$vector@UTemplate@cldb@@V?$allocator@UTemplate@cldb@@@std@@@std@@QEAA@_KAEBV?$allocator@UTemplate@cldb@@@1@@Z 0000000180028074 f i clReflectCore:DatabaseBinarySerialiser.obj
 0001:0002712c       ??0?$vector@UTemplateType@cldb@@V?$allocator@UTemplateType@cldb@@@std@@@std@@QEAA@_KAEBV?$allocator@UTemplateType@cldb@@@1@@Z 000000018002812c f i clReflectCore:DatabaseBinarySerialiser.obj
 0001:000271d8       ??0?$vector@UTextAttribute@cldb@@V?$allocator@UTextAttribute@cldb@@@std@@@std@@QEAA@_KAEBV?$allocator@UTextAttribute@cldb@@@1@@Z 00000001800281d8 f i clReflectCore:DatabaseBinarySerialiser.obj
 0001:000272b4       ??0?$vector@UType@cldb@@V?$allocator@UType@cldb@@@std@@@std@@QEAA@_KAEBV?$allocator@UType@cldb@@@1@@Z 00000001800282b4 f i clReflectCore:DatabaseBinarySerialiser.obj
 0001:00027374       ??0?$vector@UTypeInheritance@cldb@@V?$allocator@UTypeInheritance@cldb@@@std@@@std@@QEAA@_KAEBV?$allocator@UTypeInheritance@cldb@@@1@@Z 0000000180028374 f i clReflectCore:DatabaseBinarySerialiser.obj
 0001:00027438       ??0TemplateType@cldb@@QEAA@XZ 0000000180028438 f i clReflectCore:DatabaseBinarySerialiser.obj
 0001:000274b4       ??1?$_Uninitialized_backout_al@PEAUFlagAttribute@cldb@@V?$allocator@UFlagAttribute@cldb@@@std@@@std@@QEAA@XZ 00000001800284b4 f i clReflectCore:DatabaseBinarySerialiser.obj
 0001:000274e8       ??1?$_Uninitialized_backout_al@PEAUFloatAttribute@cldb@@V?$allocator@UFloatAttribute@cldb@@@std@@@std@@QEAA@XZ 00000001800284e8 f i clReflectCore:DatabaseBinarySerialiser.obj
 0001:0002751c       ??1?$_Uninitialized_backout_al@PEAUIntAttribute@cldb@@V?$allocator@UIntAttribute@cldb@@@std@@@std@@QEAA@XZ 000000018002851c f i clReflectCore:DatabaseBinarySerialiser.obj
 0001:00027550       ??1?$_Uninitialized_backout_al@PEAUPrimitiveAttribute@cldb@@V?$allocator@UPrimitiveAttribute@cldb@@@std@@@std@@QEAA@XZ 0000000180028550 f i clReflectCore:DatabaseBinarySerialiser.obj
 0001:00027584       ??1?$_Uninitialized_backout_al@PEAUTemplateType@cldb@@V?$allocator@UTemplateType@cldb@@@std@@@std@@QEAA@XZ 0000000180028584 f i clReflectCore:DatabaseBinarySerialiser.obj
 0001:000275dc       ??1?$_Uninitialized_backout_al@PEAUTextAttribute@cldb@@V?$allocator@UTextAttribute@cldb@@@std@@@std@@QEAA@XZ 00000001800285dc f i clReflectCore:DatabaseBinarySerialiser.obj
 0001:00027610       ??1?$vector@UClass@cldb@@V?$allocator@UClass@cldb@@@std@@@std@@QEAA@XZ 0000000180028610 f i clReflectCore:DatabaseBinarySerialiser.obj
 0001:00027618       ??1?$vector@UContainerInfo@cldb@@V?$allocator@UContainerInfo@cldb@@@std@@@std@@QEAA@XZ 0000000180028618 f i clReflectCore:DatabaseBinarySerialiser.obj
 0001:00027620       ??1?$vector@UEnum@cldb@@V?$allocator@UEnum@cldb@@@std@@@std@@QEAA@XZ 0000000180028620 f i clReflectCore:DatabaseBinarySerialiser.obj
 0001:00027628       ??1?$vector@UEnumConstant@cldb@@V?$allocator@UEnumConstant@cldb@@@std@@@std@@QEAA@XZ 0000000180028628 f i clReflectCore:DatabaseBinarySerialiser.obj
 0001:00027630       ??1?$vector@UField@cldb@@V?$allocator@UField@cldb@@@std@@@std@@QEAA@XZ 0000000180028630 f i clReflectCore:DatabaseBinarySerialiser.obj
 0001:00027638       ??1?$vector@UFlagAttribute@cldb@@V?$allocator@UFlagAttribute@cldb@@@std@@@std@@QEAA@XZ 0000000180028638 f i clReflectCore:DatabaseBinarySerialiser.obj
 0001:00027640       ??1?$vector@UFloatAttribute@cldb@@V?$allocator@UFloatAttribute@cldb@@@std@@@std@@QEAA@XZ 0000000180028640 f i clReflectCore:DatabaseBinarySerialiser.obj
 0001:00027648       ??1?$vector@UFunction@cldb@@V?$allocator@UFunction@cldb@@@std@@@std@@QEAA@XZ 0000000180028648 f i clReflectCore:DatabaseBinarySerialiser.obj
 0001:00027650       ??1?$vector@UIntAttribute@cldb@@V?$allocator@UIntAttribute@cldb@@@std@@@std@@QEAA@XZ 0000000180028650 f i clReflectCore:DatabaseBinarySerialiser.obj
 0001:00027658       ??1?$vector@UNamespace@cldb@@V?$allocator@UNamespace@cldb@@@std@@@std@@QEAA@XZ 0000000180028658 f i clReflectCore:DatabaseBinarySerialiser.obj
 0001:00027660       ??1?$vector@UPrimitiveAttribute@cldb@@V?$allocator@UPrimitiveAttribute@cldb@@@std@@@std@@QEAA@XZ 0000000180028660 f i clReflectCore:DatabaseBinarySerialiser.obj
 0001:00027668       ??1?$vector@UTemplate@cldb@@V?$allocator@UTemplate@cldb@@@std@@@std@@QEAA@XZ 0000000180028668 f i clReflectCore:DatabaseBinarySerialiser.obj
 0001:00027670       ??1?$vector@UTemplateType@cldb@@V?$allocator@UTemplateType@cldb@@@std@@@std@@QEAA@XZ 0000000180028670 f i clReflectCore:DatabaseBinarySerialiser.obj
 0001:00027688       ??1?$vector@UTextAttribute@cldb@@V?$allocator@UTextAttribute@cldb@@@std@@@std@@QEAA@XZ 0000000180028688 f i clReflectCore:DatabaseBinarySerialiser.obj
 0001:00027690       ??1?$vector@UType@cldb@@V?$allocator@UType@cldb@@@std@@@std@@QEAA@XZ 0000000180028690 f i clReflectCore:DatabaseBinarySerialiser.obj
 0001:00027698       ??1?$vector@UTypeInheritance@cldb@@V?$allocator@UTypeInheritance@cldb@@@std@@@std@@QEAA@XZ 0000000180028698 f i clReflectCore:DatabaseBinarySerialiser.obj
 0001:000276a0       ??1DatabaseTypes@meta@cldb@@QEAA@XZ 00000001800286a0 f i clReflectCore:DatabaseBinarySerialiser.obj
 0001:00027774       ??4Field@cldb@@QEAAAEAU01@AEBU01@@Z 0000000180028774 f i clReflectCore:DatabaseBinarySerialiser.obj
 0001:000277f8       ??4TemplateType@cldb@@QEAAAEAU01@AEBU01@@Z 00000001800287f8 f i clReflectCore:DatabaseBinarySerialiser.obj
 0001:000278a8       ??F?$_Tree_unchecked_const_iterator@V?$_Tree_val@U?$_Tree_simple_types@U?$pair@$$CBIV?$basic_string@DU?$char_traits@D@std@@V?$allocator@D@2@@std@@@std@@@std@@@std@@U_Iterator_base0@2@@std@@QEAAAEAV01@XZ 00000001800288a8 f i clReflectCore:DatabaseBinarySerialiser.obj
 0001:0002791c       ??_G?$pair@$$CBIV?$basic_string@DU?$char_traits@D@std@@V?$allocator@D@2@@std@@@std@@QEAAPEAXI@Z 000000018002891c f i clReflectCore:DatabaseBinarySerialiser.obj
 0001:00027aa0       ?IsBinaryDatabase@cldb@@YA_NPEBD@Z 0000000180028aa0 f   clReflectCore:DatabaseBinarySerialiser.obj
 0001:00027afc       ?ReadBinaryDatabase@cldb@@YA_NPEBDAEAVDatabase@1@@Z 0000000180028afc f   clReflectCore:DatabaseBinarySerialiser.obj
 0001:00027f38       ?WriteBinaryDatabase@cldb@@YAXPEBDAEBVDatabase@1@@Z 0000000180028f38 f   clReflectCore:DatabaseBinarySerialiser.obj
 0001:000282d8       ?_Buyheadnode@?$_Tree_comp_alloc@V?$_Tmap_traits@IV?$basic_string@DU?$char_traits@D@std@@V?$allocator@D@2@@std@@U?$less@I@2@V?$allocator@U?$pair@$$CBIV?$basic_string@DU?$char_traits@D@std@@V?$allocator@D@2@@std@@@std@@@2@$0A@@std@@@std@@QEAAPEAU?$_Tree_node@U?$pair@$$CBIV?$basic_string@DU?$char_traits@D@std@@V?$allocator@D@2@@std@@@std@@PEAX@2@XZ 00000001800292d8 f i clReflectCore:DatabaseBinarySerialiser.obj
 0001:00028310       ?_Buynode0@?$_Tree_comp_alloc@V?$_Tmap_traits@IV?$basic_string@DU?$char_traits@D@std@@V?$allocator@D@2@@std@@U?$less@I@2@V?$allocator@U?$pair@$$CBIV?$basic_string@DU?$char_traits@D@std@@V?$allocator@D@2@@std@@@std@@@2@$0A@@std@@@std@@QEAAPEAU?$_Tree_node@U?$pair@$$CBIV?$basic_string@DU?$char_traits@D@std@@V?$allocator@D@2@@std@@@std@@PEAX@2@XZ 0000000180029310 f i clReflectCore:DatabaseBinarySerialiser.obj
 0001:00028350       ?_Change_array@?$vector@UClass@cldb@@V?$allocator@UClass@cldb@@@std@@@std@@AEAAXQEAUClass@cldb@@_K1@Z 0000000180029350 f i clReflectCore:DatabaseBinarySerialiser.obj
 0001:00028424       ?_Change_array@?$vector@UContainerInfo@cldb@@V?$allocator@UContainerInfo@cldb@@@std@@@std@@AEAAXQEAUContainerInfo@cldb@@_K1@Z 0000000180029424 f i clReflectCore:DatabaseBinarySerialiser.obj
 0001:000284dc       ?_Change_array@?$vector@UEnum@cldb@@V?$allocator@UEnum@cldb@@@std@@@std@@AEAAXQEAUEnum@cldb@@_K1@Z 00000001800294dc f i clReflectCore:DatabaseBinarySerialiser.obj
 0001:000285b0       ?_Change_array@?$vector@UEnumConstant@cldb@@V?$allocator@UEnumConstant@cldb@@@std@@@std@@AEAAXQEAUEnumConstant@cldb@@_K1@Z 00000001800295b0 f i clReflectCore:DatabaseBinarySerialiser.obj
 0001:00028690       ?_Change_array@?$vector@UField@cldb@@V?$allocator@UField@cldb@@@std@@@std@@AEAAXQEAUField@cldb@@_K1@Z 0000000180029690 f i clReflectCore:DatabaseBinarySerialiser.obj
 0001:00028770       ?_Change_array@?$vector@UFlagAttribute@cldb@@V?$allocator@UFlagAttribute@cldb@@@std@@@std@@AEAAXQEAUFlagAttribute@cldb@@_K1@Z 0000000180029770 f i clReflectCore:DatabaseBinarySerialiser.obj
 0001:00028850       ?_Change_array@?$vector@UFloatAttribute@cldb@@V?$allocator@UFloatAttribute@cldb@@@std@@@std@@AEAAXQEAUFloatAttribute@cldb@@_K1@Z 0000000180029850 f i clReflectCore:DatabaseBinarySerialiser.obj
 0001:00028924       ?_Change_array@?$vector@UFunction@cldb@@V?$allocator@UFunction@cldb@@@std@@@std@@AEAAXQEAUFunction@cldb@@_K1@Z 0000000180029924 f i clReflectCore:DatabaseBinarySerialiser.obj
 0001:000289f8       ?_Change_array@?$vector@UIntAttribute@cldb@@V?$allocator@UIntAttribute@cldb@@@std@@@std@@AEAAXQEAUIntAttribute@cldb@@_K1@Z 00000001800299f8 f i clReflectCore:DatabaseBinarySerialiser.obj
 0001:00028acc       ?_Change_array@?$vector@UNamespace@cldb@@V?$allocator@UNamespace@cldb@@@std@@@std@@AEAAXQEAUNamespace@cldb@@_K1@Z 0000000180029acc f i clReflectCore:DatabaseBinarySerialiser.obj
 0001:00028ba0       ?_Change_array@?$vector@UPrimitiveAttribute@cldb@@V?$allocator@UPrimitiveAttribute@cldb@@@std@@@std@@AEAAXQEAUPrimitiveAttribute@cldb@@_K1@Z 0000000180029ba0 f i clReflectCore:DatabaseBinarySerialiser.obj
 0001:00028c80       ?_Change_array@?$vector@UTemplate@cldb@@V?$allocator@UTemplate@cldb@@@std@@@std@@AEAAXQEAUTemplate@cldb@@_K1@Z 0000000180029c80 f i clReflectCore:DatabaseBinarySerialiser.obj
 0001:00028d54       ?_Change_array@?$vector@UTemplateType@cldb@@V?$allocator@UTemplateType@cldb@@@std@@@std@@AEAAXQEAUTemplateType@cldb@@_K1@Z 0000000180029d54 f i clReflectCore:DatabaseBinarySerialiser.obj
 0001:00028e58       ?_Change_array@?$vector@UTextAttribute@cldb@@V?$allocator@UTextAttribute@cldb@@@std@@@std@@AEAAXQEAUTextAttribute@cldb@@_K1@Z 0000000180029e58 f i clReflectCore:DatabaseBinarySerialiser.obj
 0001:00028f10       ?_Change_array@?$vector@UType@cldb@@V?$allocator@UType@cldb@@@std@@@std@@AEAAXQEAUType@cldb@@_K1@Z 0000000180029f10 f i clReflectCore:DatabaseBinarySerialiser.obj
 0001:00028ff0       ?_Change_array@?$vector@UTypeInheritance@cldb@@V?$allocator@UTypeInheritance@cldb@@@std@@@std@@AEAAXQEAUTypeInheritance@cldb@@_K1@Z 0000000180029ff0 f i clReflectCore:DatabaseBinarySerialiser.obj
 0001:000290c4       ?_Destroy@?$vector@UClass@cldb@@V?$allocator@UClass@cldb@@@std@@@std@@AEAAXPEAUClass@cldb@@0@Z 000000018002a0c4 f i clReflectCore:DatabaseBinarySerialiser.obj
 0001:000290f8       ?_Destroy@?$vector@UContainerInfo@cldb@@V?$allocator@UContainerInfo@cldb@@@std@@@std@@AEAAXPEAUContainerInfo@cldb@@0@Z 000000018002a0f8 f i clReflectCore:DatabaseBinarySerialiser.obj
 0001:0002912c       ?_Destroy@?$vector@UEnum@cldb@@V?$allocator@UEnum@cldb@@@std@@@std@@AEAAXPEAUEnum@cldb@@0@Z 000000018002a12c f i clReflectCore:DatabaseBinarySerialiser.obj
 0001:00029160       ?_Destroy@?$vector@UEnumConstant@cldb@@V?$allocator@UEnumConstant@cldb@@@std@@@std@@AEAAXPEAUEnumConstant@cldb@@0@Z 000000018002a160 f i clReflectCore:DatabaseBinarySerialiser.obj
 0001:00029194       ?_Destroy@?$vector@UField@cldb@@V?$allocator@UField@cldb@@@std@@@std@@AEAAXPEAUField@cldb@@0@Z 000000018002a194 f i clReflectCore:DatabaseBinarySerialiser.obj
 0001:000291c8       ?_Destroy@?$vector@UFlagAttribute@cldb@@V?$allocator@UFlagAttribute@cldb@@@std@@@std@@AEAAXPEAUFlagAttribute@cldb@@0@Z 000000018002a1c8 f i clReflectCore:DatabaseBinarySerialiser.obj
 0001:000291fc       ?_Destroy@?$vector@UFloatAttribute@cldb@@V?$allocator@UFloatAttribute@cldb@@@std@@@std@@AEAAXPEAUFloatAttribute@cldb@@0@Z 000000018002a1fc f i clReflectCore:DatabaseBinarySerialiser.obj
 0001:00029230       ?_Destroy@?$vector@UFunction@cldb@@V?$allocator@UFunction@cldb@@@std@@@std@@AEAAXPEAUFunction@cldb@@0@Z 000000018002a230 f i clReflectCore:DatabaseBinarySerialiser.obj
 0001:00029264       ?_Destroy@?$vector@UIntAttribute@cldb@@V?$allocator@UIntAttribute@cldb@@@std@@@std@@AEAAXPEAUIntAttribute@cldb@@0@Z 000000018002a264 f i clReflectCore:DatabaseBinarySerialiser.obj
 0001:00029298       ?_Destroy@?$vector@UNamespace@cldb@@V?$allocator@UNamespace@cldb@@@std@@@std@@AEAAXPEAUNamespace@cldb@@0@Z 000000018002a298 f i clReflectCore:DatabaseBinarySerialiser.obj
 0001:000292cc       ?_Destroy@?$vector@UPrimitiveAttribute@cldb@@V?$allocator@UPrimitiveAttribute@cldb@@@std@@@std@@AEAAXPEAUPrimitiveAttribute@cldb@@0@Z 000000018002a2cc f i clReflectCore:DatabaseBinarySerialiser.obj
 0001:00029304       ?_Destroy@?$vector@UTemplate@cldb@@V?$allocator@UTemplate@cldb@@@std@@@std@@AEAAXPEAUTemplate@cldb@@0@Z 000000018002a304 f i clReflectCore:DatabaseBinarySerialiser.obj
 0001:00029338       ?_Destroy@?$vector@UTemplateType@cldb@@V?$allocator@UTemplateType@cldb@@@std@@@std@@AEAAXPEAUTemplateType@cldb@@0@Z 000000018002a338 f i clReflectCore:DatabaseBinarySerialiser.obj
 0001:00029390       ?_Destroy@?$vector@UTextAttribute@cldb@@V?$allocator@UTextAttribute@cldb@@@std@@@std@@AEAAXPEAUTextAttribute@cldb@@0@Z 000000018002a390 f i clReflectCore:DatabaseBinarySerialiser.obj
 0001:000293c4       ?_Destroy@?$vector@UType@cldb@@V?$allocator@UType@cldb@@@std@@@std@@AEAAXPEAUType@cldb@@0@Z 000000018002a3c4 f i clReflectCore:DatabaseBinarySerialiser.obj
 0001:000293f8       ?_Destroy@?$vector@UTypeInheritance@cldb@@V?$allocator@UTypeInheritance@cldb@@@std@@@std@@AEAAXPEAUTypeInheritance@cldb@@0@Z 000000018002a3f8 f i clReflectCore:DatabaseBinarySerialiser.obj
 0001:0002942c       ?_Destroy_if_node@?$_Tree@V?$_Tmap_traits@IV?$basic_string@DU?$char_traits@D@std@@V?$allocator@D@2@@std@@U?$less@I@2@V?$allocator@U?$pair@$$CBIV?$basic_string@DU?$char_traits@D@std@@V?$allocator@D@2@@std@@@std@@@2@$0A@@std@@@std@@IEAAXPEAU?$_Tree_node@U?$pair@$$CBIV?$basic_string@DU?$char_traits@D@std@@V?$allocator@D@2@@std@@@std@@PEAX@2@@Z 000000018002a42c f i clReflectCore:DatabaseBinarySerialiser.obj
 0001:00029454       ?_Erase@?$_Tree@V?$_Tmap_traits@IV?$basic_string@DU?$char_traits@D@std@@V?$allocator@D@2@@std@@U?$less@I@2@V?$allocator@U?$pair@$$CBIV?$basic_string@DU?$char_traits@D@std@@V?$allocator@D@2@@std@@@std@@@2@$0A@@std@@@std@@IEAAXPEAU?$_Tree_node@U?$pair@$$CBIV?$basic_string@DU?$char_traits@D@std@@V?$allocator@D@2@@std@@@std@@PEAX@2@@Z 000000018002a454 f i clReflectCore:DatabaseBinarySerialiser.obj
 0001:000294b4       ?_Extract@?$_Tree_val@U?$_Tree_simple_types@U?$pair@$$CBIV?$basic_string@DU?$char_traits@D@std@@V?$allocator@D@2@@std@@@std@@@std@@@std@@QEAAPEAU?$_Tree_node@U?$pair@$$CBIV?$basic_string@DU?$char_traits@D@std@@V?$allocator@D@2@@std@@@std@@PEAX@2@V?$_Tree_const_iterator@V?$_Tree_val@U?$_Tree_simple_types@U?$pair@$$CBIV?$basic_string@DU?$char_traits@D@std@@V?$allocator@D@2@@std@@@std@@@std@@@std@@@2@@Z 000000018002a4b4 f i clReflectCore:DatabaseBinarySerialiser.obj
 0001:0002990c       ?_Freenode0@?$_Tree_comp_alloc@V?$_Tmap_traits@IV?$basic_string@DU?$char_traits@D@std@@V?$allocator@D@2@@std@@U?$less@I@2@V?$allocator@U?$pair@$$CBIV?$basic_string@DU?$char_traits@D@std@@V?$allocator@D@2@@std@@@std@@@2@$0A@@std@@@std@@QEAAXPEAU?$_Tree_node@U?$pair@$$CBIV?$basic_string@DU?$char_traits@D@std@@V?$allocator@D@2@@std@@@std@@PEAX@2@@Z 000000018002a90c f i clReflectCore:DatabaseBinarySerialiser.obj
 0001:0002991c       ?_Getal@?$_Vector_alloc@U?$_Vec_base_types@UClass@cldb@@V?$allocator@UClass@cldb@@@std@@@std@@@std@@QEAAAEAV?$allocator@UClass@cldb@@@2@XZ 000000018002a91c f i clReflectCore:DatabaseBinarySerialiser.obj
 0001:00029920       ?_Getal@?$_Vector_alloc@U?$_Vec_base_types@UContainerInfo@cldb@@V?$allocator@UContainerInfo@cldb@@@std@@@std@@@std@@QEAAAEAV?$allocator@UContainerInfo@cldb@@@2@XZ 000000018002a920 f i clReflectCore:DatabaseBinarySerialiser.obj
 0001:00029924       ?_Getal@?$_Vector_alloc@U?$_Vec_base_types@UEnum@cldb@@V?$allocator@UEnum@cldb@@@std@@@std@@@std@@QEAAAEAV?$allocator@UEnum@cldb@@@2@XZ 000000018002a924 f i clReflectCore:DatabaseBinarySerialiser.obj
 0001:00029928       ?_Getal@?$_Vector_alloc@U?$_Vec_base_types@UEnumConstant@cldb@@V?$allocator@UEnumConstant@cldb@@@std@@@std@@@std@@QEAAAEAV?$allocator@UEnumConstant@cldb@@@2@XZ 000000018002a928 f i clReflectCore:DatabaseBinarySerialiser.obj
 0001:0002992c       ?_Getal@?$_Vector_alloc@U?$_Vec_base_types@UField@cldb@@V?$allocator@UField@cldb@@@std@@@std@@@std@@QEAAAEAV?$allocator@UField@cldb@@@2@XZ 000000018002a92c f i clReflectCore:DatabaseBinarySerialiser.obj
 0001:00029930       ?_Getal@?$_Vector_alloc@U?$_Vec_base_types@UFlagAttribute@cldb@@V?$allocator@UFlagAttribute@cldb@@@std@@@std@@@std@@QEAAAEAV?$allocator@UFlagAttribute@cldb@@@2@XZ 000000018002a930 f i clReflectCore:DatabaseBinarySerialiser.obj
 0001:00029934       ?_Getal@?$_Vector_alloc@U?$_Vec_base_types@UFloatAttribute@cldb@@V?$allocator@UFloatAttribute@cldb@@@std@@@std@@@std@@QEAAAEAV?$allocator@UFloatAttribute@cldb@@@2@XZ 000000018002a934 f i clReflectCore:DatabaseBinarySerialiser.obj
 0001:00029938       ?_Getal@?$_Vector_alloc@U?$_Vec_base_types@UFunction@cldb@@V?$allocator@UFunction@cldb@@@std@@@std@@@std@@QEAAAEAV?$allocator@UFunction@cldb@@@2@XZ 000000018002a938 f i clReflectCore:DatabaseBinarySerialiser.obj
 0001:0002993c       ?_Getal@?$_Vector_alloc@U?$_Vec_base_types@UIntAttribute@cldb@@V?$allocator@UIntAttribute@cldb@@@std@@@std@@@std@@QEAAAEAV?$allocator@UIntAttribute@cldb@@@2@XZ 000000018002a93c f i clReflectCore:DatabaseBinarySerialiser.obj
 0001:00029940       ?_Getal@?$_Vector_alloc@U?$_Vec_base_types@UNamespace@cldb@@V?$allocator@UNamespace@cldb@@@std@@@std@@@std@@QEAAAEAV?$allocator@UNamespace@cldb@@@2@XZ 000000018002a940 f i clReflectCore:DatabaseBinarySerialiser.obj
 0001:00029944       ?_Getal@?$_Vector_alloc@U?$_Vec_base_types@UPrimitiveAttribute@cldb@@V?$allocator@UPrimitiveAttribute@cldb@@@std@@@std@@@std@@QEAAAEAV?$allocator@UPrimitiveAttribute@cldb@@@2@XZ 000000018002a944 f i clReflectCore:DatabaseBinarySerialiser.obj
 0001:00029948       ?_Getal@?$_Vector_alloc@U?$_Vec_base_types@UTemplate@cldb@@V?$allocator@UTemplate@cldb@@@std@@@std@@@std@@QEAAAEAV?$allocator@UTemplate@cldb@@@2@XZ 000000018002a948 f i clReflectCore:DatabaseBinarySerialiser.obj
 0001:0002994c       ?_Getal@?$_Vector_alloc@U?$_Vec_base_types@UTemplateType@cldb@@V?$allocator@UTemplateType@cldb@@@std@@@std@@@std@@QEAAAEAV?$allocator@UTemplateType@cldb@@@2@XZ 000000018002a94c f i clReflectCore:DatabaseBinarySerialiser.obj
 0001:00029950       ?_Getal@?$_Vector_alloc@U?$_Vec_base_types@UTextAttribute@cldb@@V?$allocator@UTextAttribute@cldb@@@std@@@std@@@std@@QEAAAEAV?$allocator@UTextAttribute@cldb@@@2@XZ 000000018002a950 f i clReflectCore:DatabaseBinarySerialiser.obj
 0001:00029954       ?_Getal@?$_Vector_alloc@U?$_Vec_base_types@UType@cldb@@V?$allocator@UType@cldb@@@std@@@std@@@std@@QEAAAEAV?$allocator@UType@cldb@@@2@XZ 000000018002a954 f i clReflectCore:DatabaseBinarySerialiser.obj
 0001:00029958       ?_Getal@?$_Vector_alloc@U?$_Vec_base_types@UTypeInheritance@cldb@@V?$allocator@UTypeInheritance@cldb@@@std@@@std@@@std@@QEAAAEAV?$allocator@UTypeInheritance@cldb@@@2@XZ 000000018002a958 f i clReflectCore:DatabaseBinarySerialiser.obj
 0001:0002995c       ?_Tidy@?$vector@UClass@cldb@@V?$allocator@UClass@cldb@@@std@@@std@@AEAAXXZ 000000018002a95c f i clReflectCore:DatabaseBinarySerialiser.obj
 0001:00029a08       ?_Tidy@?$vector@UContainerInfo@cldb@@V?$allocator@UContainerInfo@cldb@@@std@@@std@@AEAAXXZ 000000018002aa08 f i clReflectCore:DatabaseBinarySerialiser.obj
 0001:00029a98       ?_Tidy@?$vector@UDatabaseField@meta@cldb@@V?$allocator@UDatabaseField@meta@cldb@@@std@@@std@@AEAAXXZ 000000018002aa98 f i clReflectCore:DatabaseBinarySerialiser.obj
 0001:00029b14       ?_Tidy@?$vector@UEnum@cldb@@V?$allocator@UEnum@cldb@@@std@@@std@@AEAAXXZ 000000018002ab14 f i clReflectCore:DatabaseBinarySerialiser.obj
 0001:00029bc0       ?_Tidy@?$vector@UEnumConstant@cldb@@V?$allocator@UEnumConstant@cldb@@@std@@@std@@AEAAXXZ 000000018002abc0 f i clReflectCore:DatabaseBinarySerialiser.obj
 0001:00029c70       ?_Tidy@?$vector@UField@cldb@@V?$allocator@UField@cldb@@@std@@@std@@AEAAXXZ 000000018002ac70 f i clReflectCore:DatabaseBinarySerialiser.obj
 0001:00029d28       ?_Tidy@?$vector@UFlagAttribute@cldb@@V?$allocator@UFlagAttribute@cldb@@@std@@@std@@AEAAXXZ 000000018002ad28 f i clReflectCore:DatabaseBinarySerialiser.obj
 0001:00029de0       ?_Tidy@?$vector@UFloatAttribute@cldb@@V?$allocator@UFloatAttribute@cldb@@@std@@@std@@AEAAXXZ 000000018002ade0 f i clReflectCore:DatabaseBinarySerialiser.obj
 0001:00029e90       ?_Tidy@?$vector@UFunction@cldb@@V?$allocator@UFunction@cldb@@@std@@@std@@AEAAXXZ 000000018002ae90 f i clReflectCore:DatabaseBinarySerialiser.obj
 0001:00029f3c       ?_Tidy@?$vector@UIntAttribute@cldb@@V?$allocator@UIntAttribute@cldb@@@std@@@std@@AEAAXXZ 000000018002af3c f i clReflectCore:DatabaseBinarySerialiser.obj
 0001:00029fec       ?_Tidy@?$vector@UNamespace@cldb@@V?$allocator@UNamespace@cldb@@@std@@@std@@AEAAXXZ 000000018002afec f i clReflectCore:DatabaseBinarySerialiser.obj
 0001:0002a098       ?_Tidy@?$vector@UPrimitiveAttribute@cldb@@V?$allocator@UPrimitiveAttribute@cldb@@@std@@@std@@AEAAXXZ 000000018002b098 f i clReflectCore:DatabaseBinarySerialiser.obj
 0001:0002a150       ?_Tidy@?$vector@UTemplate@cldb@@V?$allocator@UTemplate@cldb@@@std@@@std@@AEAAXXZ 000000018002b150 f i clReflectCore:DatabaseBinarySerialiser.obj
 0001:0002a1fc       ?_Tidy@?$vector@UTemplateType@cldb@@V?$allocator@UTemplateType@cldb@@@std@@@std@@AEAAXXZ 000000018002b1fc f i clReflectCore:DatabaseBinarySerialiser.obj
 0001:0002a2d8       ?_Tidy@?$vector@UTextAttribute@cldb@@V?$allocator@UTextAttribute@cldb@@@std@@@std@@AEAAXXZ 000000018002b2d8 f i clReflectCore:DatabaseBinarySerialiser.obj
 0001:0002a36c       ?_Tidy@?$vector@UType@cldb@@V?$allocator@UType@cldb@@@std@@@std@@AEAAXXZ 000000018002b36c f i clReflectCore:DatabaseBinarySerialiser.obj
 0001:0002a41c       ?_Tidy@?$vector@UTypeInheritance@cldb@@V?$allocator@UTypeInheritance@cldb@@@std@@@std@@AEAAXXZ 000000018002b41c f i clReflectCore:DatabaseBinarySerialiser.obj
 0001:0002a4cc       ?_Xlength@?$vector@UClass@cldb@@V?$allocator@UClass@cldb@@@std@@@std@@CAXXZ 000000018002b4cc f i clReflectCore:DatabaseBinarySerialiser.obj
 0001:0002a4e0       ?_Xlength@?$vector@UContainerInfo@cldb@@V?$allocator@UContainerInfo@cldb@@@std@@@std@@CAXXZ 000000018002b4e0 f i clReflectCore:DatabaseBinarySerialiser.obj
 0001:0002a4f4       ?_Xlength@?$vector@UEnum@cldb@@V?$allocator@UEnum@cldb@@@std@@@std@@CAXXZ 000000018002b4f4 f i clReflectCore:DatabaseBinarySerialiser.obj
 0001:0002a508       ?_Xlength@?$vector@UEnumConstant@cldb@@V?$allocator@UEnumConstant@cldb@@@std@@@std@@CAXXZ 000000018002b508 f i clReflectCore:DatabaseBinarySerialiser.obj
 0001:0002a51c       ?_Xlength@?$vector@UField@cldb@@V?$allocator@UField@cldb@@@std@@@std@@CAXXZ 000000018002b51c f i clReflectCore:DatabaseBinarySerialiser.obj
 0001:0002a530       ?_Xlength@?$vector@UFlagAttribute@cldb@@V?$allocator@UFlagAttribute@cldb@@@std@@@std@@CAXXZ 000000018002b530 f i clReflectCore:DatabaseBinarySerialiser.obj
 0001:0002a544       ?_Xlength@?$vector@UFloatAttribute@cldb@@V?$allocator@UFloatAttribute@cldb@@@std@@@std@@CAXXZ 000000018002b544 f i clReflectCore:DatabaseBinarySerialiser.obj
 0001:0002a558       ?_Xlength@?$vector@UFunction@cldb@@V?$allocator@UFunction@cldb@@@std@@@std@@CAXXZ 000000018002b558 f i clReflectCore:DatabaseBinarySerialiser.obj
 0001:0002a56c       ?_Xlength@?$vector@UIntAttribute@cldb@@V?$allocator@UIntAttribute@cldb@@@std@@@std@@CAXXZ 000000018002b56c f i clReflectCore:DatabaseBinarySerialiser.obj
 0001:0002a580       ?_Xlength@?$vector@UNamespace@cldb@@V?$allocator@UNamespace@cldb@@@std@@@std@@CAXXZ 000000018002b580 f i clReflectCore:DatabaseBinarySerialiser.obj
 0001:0002a594       ?_Xlength@?$vector@UPrimitiveAttribute@cldb@@V?$allocator@UPrimitiveAttribute@cldb@@@std@@@std@@CAXXZ 000000018002b594 f i clReflectCore:DatabaseBinarySerialiser.obj
 0001:0002a5a8       ?_Xlength@?$vector@UTemplate@cldb@@V?$allocator@UTemplate@cldb@@@std@@@std@@CAXXZ 000000018002b5a8 f i clReflectCore:DatabaseBinarySerialiser.obj
 0001:0002a5bc       ?_Xlength@?$vector@UTemplateType@cldb@@V?$allocator@UTemplateType@cldb@@@std@@@std@@CAXXZ 000000018002b5bc f i clReflectCore:DatabaseBinarySerialiser.obj
 0001:0002a5d0       ?_Xlength@?$vector@UTextAttribute@cldb@@V?$allocator@UTextAttribute@cldb@@@std@@@std@@CAXXZ 000000018002b5d0 f i clReflectCore:DatabaseBinarySerialiser.obj
 0001:0002a5e4       ?_Xlength@?$vector@UType@cldb@@V?$allocator@UType@cldb@@@std@@@std@@CAXXZ 000000018002b5e4 f i clReflectCore:DatabaseBinarySerialiser.obj
 0001:0002a5f8       ?_Xlength@?$vector@UTypeInheritance@cldb@@V?$allocator@UTypeInheritance@cldb@@@std@@@std@@CAXXZ 000000018002b5f8 f i clReflectCore:DatabaseBinarySerialiser.obj
 0001:0002a60c       ?allocate@?$allocator@UClass@cldb@@@std@@QEAAPEAUClass@cldb@@_K@Z 000000018002b60c f i clReflectCore:DatabaseBinarySerialiser.obj
 0001:0002a678       ?allocate@?$allocator@UContainerInfo@cldb@@@std@@QEAAPEAUContainerInfo@cldb@@_K@Z 000000018002b678 f i clReflectCore:DatabaseBinarySerialiser.obj
 0001:0002a6e8       ?allocate@?$allocator@UEnum@cldb@@@std@@QEAAPEAUEnum@cldb@@_K@Z 000000018002b6e8 f i clReflectCore:DatabaseBinarySerialiser.obj
 0001:0002a754       ?allocate@?$allocator@UEnumConstant@cldb@@@std@@QEAAPEAUEnumConstant@cldb@@_K@Z 000000018002b754 f i clReflectCore:DatabaseBinarySerialiser.obj
 0001:0002a7c4       ?allocate@?$allocator@UField@cldb@@@std@@QEAAPEAUField@cldb@@_K@Z 000000018002b7c4 f i clReflectCore:DatabaseBinarySerialiser.obj
 0001:0002a834       ?allocate@?$allocator@UFlagAttribute@cldb@@@std@@QEAAPEAUFlagAttribute@cldb@@_K@Z 000000018002b834 f i clReflectCore:DatabaseBinarySerialiser.obj
 0001:0002a8a4       ?allocate@?$allocator@UFloatAttribute@cldb@@@std@@QEAAPEAUFloatAttribute@cldb@@_K@Z 000000018002b8a4 f i clReflectCore:DatabaseBinarySerialiser.obj
 0001:0002a910       ?allocate@?$allocator@UFunction@cldb@@@std@@QEAAPEAUFunction@cldb@@_K@Z 000000018002b910 f i clReflectCore:DatabaseBinarySerialiser.obj
 0001:0002a97c       ?allocate@?$allocator@UIntAttribute@cldb@@@std@@QEAAPEAUIntAttribute@cldb@@_K@Z 000000018002b97c f i clReflectCore:DatabaseBinarySerialiser.obj
 0001:0002a9e8       ?allocate@?$allocator@UNamespace@cldb@@@std@@QEAAPEAUNamespace@cldb@@_K@Z 000000018002b9e8 f i clReflectCore:DatabaseBinarySerialiser.obj
 0001:0002aa54       ?allocate@?$allocator@UPrimitiveAttribute@cldb@@@std@@QEAAPEAUPrimitiveAttribute@cldb@@_K@Z 000000018002ba54 f i clReflectCore:DatabaseBinarySerialiser.obj
 0001:0002aac4       ?allocate@?$allocator@UTemplate@cldb@@@std@@QEAAPEAUTemplate@cldb@@_K@Z 000000018002bac4 f i clReflectCore:DatabaseBinarySerialiser.obj
 0001:0002ab30       ?allocate@?$allocator@UTemplateType@cldb@@@std@@QEAAPEAUTemplateType@cldb@@_K@Z 000000018002bb30 f i clReflectCore:DatabaseBinarySerialiser.obj
 0001:0002aba0       ?allocate@?$allocator@UTextAttribute@cldb@@@std@@QEAAPEAUTextAttribute@cldb@@_K@Z 000000018002bba0 f i clReflectCore:DatabaseBinarySerialiser.obj
 0001:0002ac10       ?allocate@?$allocator@UType@cldb@@@std@@QEAAPEAUType@cldb@@_K@Z 000000018002bc10 f i clReflectCore:DatabaseBinarySerialiser.obj
 0001:0002ac80       ?allocate@?$allocator@UTypeInheritance@cldb@@@std@@QEAAPEAUTypeInheritance@cldb@@_K@Z 000000018002bc80 f i clReflectCore:DatabaseBinarySerialiser.obj
 0001:0002acec       ?clear@?$_Tree@V?$_Tmap_traits@IV?$basic_string@DU?$char_traits@D@std@@V?$allocator@D@2@@std@@U?$less@I@2@V?$allocator@U?$pair@$$CBIV?$basic_string@DU?$char_traits@D@std@@V?$allocator@D@2@@std@@@std@@@2@$0A@@std@@@std@@QEAAXXZ 000000018002bcec f i clReflectCore:DatabaseBinarySerialiser.obj
 0001:0002ad84       ?deallocate@?$allocator@U?$_Tree_node@U?$pair@$$CBIV?$basic_string@DU?$char_traits@D@std@@V?$allocator@D@2@@std@@@std@@PEAX@std@@@std@@QEAAXQEAU?$_Tree_node@U?$pair@$$CBIV?$basic_string@DU?$char_traits@D@std@@V?$allocator@D@2@@std@@@std@@PEAX@2@_K@Z 000000018002bd84 f i clReflectCore:DatabaseBinarySerialiser.obj
 0001:0002adc8       ?deallocate@?$allocator@UClass@cldb@@@std@@QEAAXQEAUClass@cldb@@_K@Z 000000018002bdc8 f i clReflectCore:DatabaseBinarySerialiser.obj
 0001:0002ae08       ?deallocate@?$allocator@UContainerInfo@cldb@@@std@@QEAAXQEAUContainerInfo@cldb@@_K@Z 000000018002be08 f i clReflectCore:DatabaseBinarySerialiser.obj
 0001:0002ae4c       ?deallocate@?$allocator@UEnum@cldb@@@std@@QEAAXQEAUEnum@cldb@@_K@Z 000000018002be4c f i clReflectCore:DatabaseBinarySerialiser.obj
 0001:0002ae8c       ?deallocate@?$allocator@UEnumConstant@cldb@@@std@@QEAAXQEAUEnumConstant@cldb@@_K@Z 000000018002be8c f i clReflectCore:DatabaseBinarySerialiser.obj
 0001:0002aed0       ?deallocate@?$allocator@UField@cldb@@@std@@QEAAXQEAUField@cldb@@_K@Z 000000018002bed0 f i clReflectCore:DatabaseBinarySerialiser.obj
 0001:0002af14       ?deallocate@?$allocator@UFlagAttribute@cldb@@@std@@QEAAXQEAUFlagAttribute@cldb@@_K@Z 000000018002bf14 f i clReflectCore:DatabaseBinarySerialiser.obj
 0001:0002af58       ?deallocate@?$allocator@UFloatAttribute@cldb@@@std@@QEAAXQEAUFloatAttribute@cldb@@_K@Z 000000018002bf58 f i clReflectCore:DatabaseBinarySerialiser.obj
 0001:0002af98       ?deallocate@?$allocator@UFunction@cldb@@@std@@QEAAXQEAUFunction@cldb@@_K@Z 000000018002bf98 f i clReflectCore:DatabaseBinarySerialiser.obj
 0001:0002afd8       ?deallocate@?$allocator@UIntAttribute@cldb@@@std@@QEAAXQEAUIntAttribute@cldb@@_K@Z 000000018002bfd8 f i clReflectCore:DatabaseBinarySerialiser.obj
 0001:0002b018       ?deallocate@?$allocator@UNamespace@cldb@@@std@@QEAAXQEAUNamespace@cldb@@_K@Z 000000018002c018 f i clReflectCore:DatabaseBinarySerialiser.obj
 0001:0002b058       ?deallocate@?$allocator@UPrimitiveAttribute@cldb@@@std@@QEAAXQEAUPrimitiveAttribute@cldb@@_K@Z 000000018002c058 f i clReflectCore:DatabaseBinarySerialiser.obj
 0001:0002b09c       ?deallocate@?$allocator@UTemplate@cldb@@@std@@QEAAXQEAUTemplate@cldb@@_K@Z 000000018002c09c f i clReflectCore:DatabaseBinarySerialiser.obj
 0001:0002b0dc       ?deallocate@?$allocator@UTemplateType@cldb@@@std@@QEAAXQEAUTemplateType@cldb@@_K@Z 000000018002c0dc f i clReflectCore:DatabaseBinarySerialiser.obj
 0001:0002b120       ?deallocate@?$allocator@UTextAttribute@cldb@@@std@@QEAAXQEAUTextAttribute@cldb@@_K@Z 000000018002c120 f i clReflectCore:DatabaseBinarySerialiser.obj
 0001:0002b164       ?deallocate@?$allocator@UType@cldb@@@std@@QEAAXQEAUType@cldb@@_K@Z 000000018002c164 f i clReflectCore:DatabaseBinarySerialiser.obj
 0001:0002b1a8       ?deallocate@?$allocator@UTypeInheritance@cldb@@@std@@QEAAXQEAUTypeInheritance@cldb@@_K@Z 000000018002c1a8 f i clReflectCore:DatabaseBinarySerialiser.obj
 0001:0002b1e8       ?erase@?$_Tree@V?$_Tmap_traits@IV?$basic_string@DU?$char_traits@D@std@@V?$allocator@D@2@@std@@U?$less@I@2@V?$allocator@U?$pair@$$CBIV?$basic_string@DU?$char_traits@D@std@@V?$allocator@D@2@@std@@@std@@@2@$0A@@std@@@std@@QEAA?AV?$_Tree_iterator@V?$_Tree_val@U?$_Tree_simple_types@U?$pair@$$CBIV?$basic_string@DU?$char_traits@D@std@@V?$allocator@D@2@@std@@@std@@@std@@@std@@@2@V?$_Tree_const_iterator@V?$_Tree_val@U?$_Tree_simple_types@U?$pair@$$CBIV?$basic_string@DU?$char_traits@D@std@@V?$allocator@D@2@@std@@@std@@@std@@@std@@@2@0@Z 000000018002c1e8 f i clReflectCore:DatabaseBinarySerialiser.obj
 0001:0002b29c       ?erase@?$_Tree@V?$_Tmap_traits@IV?$basic_string@DU?$char_traits@D@std@@V?$allocator@D@2@@std@@U?$less@I@2@V?$allocator@U?$pair@$$CBIV?$basic_string@DU?$char_traits@D@std@@V?$allocator@D@2@@std@@@std@@@2@$0A@@std@@@std@@QEAA?AV?$_Tree_iterator@V?$_Tree_val@U?$_Tree_simple_types@U?$pair@$$CBIV?$basic_string@DU?$char_traits@D@std@@V?$allocator@D@2@@std@@@std@@@std@@@std@@@2@V?$_Tree_const_iterator@V?$_Tree_val@U?$_Tree_simple_types@U?$pair@$$CBIV?$basic_string@DU?$char_traits@D@std@@V?$allocator@D@2@@std@@@std@@@std@@@std@@@2@@Z 000000018002c29c f i clReflectCore:DatabaseBinarySerialiser.obj
 0001:0002b32c       ??$_Reallocate_grow_by@V<lambda_16d2cb92461ac9818af78a76c749bd7f>@@_K_KPEBD_K@?$basic_string@DU?$char_traits@D@std@@V?$allocator@D@2@@std@@QEAAAEAV01@_KV<lambda_16d2cb92461ac9818af78a76c749bd7f>@@_K2PEBD2@Z 000000018002c32c f i clReflectCore:FileUtils.obj
 0001:0002b4d8       ??$_Traits_find@U?$char_traits@D@std@@@std@@YA_KQEBD_K101@Z 000000018002c4d8 f i clReflectCore:FileUtils.obj
 0001:0002b584       ?ConsumeToken@@YAPEBDPEBDDPEADH@Z 000000018002c584 f   clReflectCore:FileUtils.obj
 0001:0002b5ac       ?ReadLine@@YAPEADPEAU_iobuf@@@Z 000000018002c5ac f   clReflectCore:FileUtils.obj
 0001:0002b630       ?SkipWhitespace@@YAPEBDPEBD@Z 000000018002c630 f   clReflectCore:FileUtils.obj
 0001:0002b648       ?StringReplace@@YA?AV?$basic_string@DU?$char_traits@D@std@@V?$allocator@D@2@@std@@AEBV12@00@Z 000000018002c648 f   clReflectCore:FileUtils.obj
 0001:0002b728       ?hextoi64@@YA_KPEBD@Z      000000018002c728 f   clReflectCore:FileUtils.obj
 0001:0002b7b0       ?hextoi@@YAIPEBD@Z         000000018002c7b0 f   clReflectCore:FileUtils.obj
 0001:0002b82c       ?itoa@@YAPEBDI@Z           000000018002c82c f   clReflectCore:FileUtils.obj
 0001:0002b840       ?itohex@@YAPEBDI@Z         000000018002c840 f   clReflectCore:FileUtils.obj
 0001:0002b884       ?replace@?$basic_string@DU?$char_traits@D@std@@V?$allocator@D@2@@std@@QEAAAEAV12@_K_KQEBD0@Z 000000018002c884 f i clReflectCore:FileUtils.obj
 0001:0002ba08       ?startswith@@YA_NAEBV?$basic_string@DU?$char_traits@D@std@@V?$allocator@D@2@@std@@PEBD@Z 000000018002ca08 f   clReflectCore:FileUtils.obj
 0001:0002ba18       ?startswith@@YA_NPEBD0@Z   000000018002ca18 f   clReflectCore:FileUtils.obj
 0001:0002ba34       ??$Fields@$01@DatabaseType@meta@cldb@@QEAAAEAU012@AEAY01$$CBUDatabaseField@12@@Z 000000018002ca34 f i clReflectCore:DatabaseMetadata.obj
 0001:0002bab4       ??$Fields@$02@DatabaseType@meta@cldb@@QEAAAEAU012@AEAY02$$CBUDatabaseField@12@@Z 000000018002cab4 f i clReflectCore:DatabaseMetadata.obj
 0001:0002bb34       ??$Fields@$03@DatabaseType@meta@cldb@@QEAAAEAU012@AEAY03$$CBUDatabaseField@12@@Z 000000018002cb34 f i clReflectCore:DatabaseMetadata.obj
 0001:0002bbb4       ??$Fields@$04@DatabaseType@meta@cldb@@QEAAAEAU012@AEAY04$$CBUDatabaseField@12@@Z 000000018002cbb4 f i clReflectCore:DatabaseMetadata.obj
 0001:0002bc34       ??$_Resize@V<lambda_b968c51225d46dce47aea77570e0bc54>@@@?$vector@UDatabaseField@meta@cldb@@V?$allocator@UDatabaseField@meta@cldb@@@std@@@std@@AEAAX_KV<lambda_b968c51225d46dce47aea77570e0bc54>@@@Z 000000018002cc34 f i clReflectCore:DatabaseMetadata.obj
 0001:0002bda0       ??0DatabaseTypes@meta@cldb@@QEAA@XZ 000000018002cda0 f   clReflectCore:DatabaseMetadata.obj
 0001:0002c724       ??1DatabaseType@meta@cldb@@QEAA@XZ 000000018002d724 f i clReflectCore:DatabaseMetadata.obj
 0001:0002c730       ?_Change_array@?$vector@UDatabaseField@meta@cldb@@V?$allocator@UDatabaseField@meta@cldb@@@std@@@std@@AEAAXQEAUDatabaseField@meta@cldb@@_K1@Z 000000018002d730 f i clReflectCore:DatabaseMetadata.obj
 0001:0002c7e4       ?_Getal@?$_Vector_alloc@U?$_Vec_base_types@UDatabaseField@meta@cldb@@V?$allocator@UDatabaseField@meta@cldb@@@std@@@std@@@std@@QEAAAEAV?$allocator@UDatabaseField@meta@cldb@@@2@XZ 000000018002d7e4 f i clReflectCore:DatabaseMetadata.obj
 0001:0002c7e8       ?_Xlength@?$vector@UDatabaseField@meta@cldb@@V?$allocator@UDatabaseField@meta@cldb@@@std@@@std@@CAXXZ 000000018002d7e8 f i clReflectCore:DatabaseMetadata.obj
 0001:0002c7fc       ?allocate@?$allocator@UDatabaseField@meta@cldb@@@std@@QEAAPEAUDatabaseField@meta@cldb@@_K@Z 000000018002d7fc f i clReflectCore:DatabaseMetadata.obj
 0001:0002c86c       ?deallocate@?$allocator@UDatabaseField@meta@cldb@@@std@@QEAAXQEAUDatabaseField@meta@cldb@@_K@Z 000000018002d86c f i clReflectCore:DatabaseMetadata.obj
 0001:0002cfb0       ??0Attribute@clcpp@@QEAA@W4Kind@Primitive@1@@Z 000000018002dfb0 f   clReflectCpp:clcpp.obj
 0001:0002cfc8       ??0Attribute@clcpp@@QEAA@XZ 000000018002dfc8 f   clReflectCpp:clcpp.obj
 0001:0002cfe4       ??0Class@clcpp@@QEAA@XZ    000000018002dfe4 f   clReflectCpp:clcpp.obj
 0001:0002d07c       ??0ContainerInfo@clcpp@@QEAA@XZ 000000018002e07c f   clReflectCpp:clcpp.obj
 0001:0002d0a0       ??0Database@clcpp@@QEAA@XZ 000000018002e0a0 f   clReflectCpp:clcpp.obj
 0001:0002d0b0       ??0DatabaseFileHeader@internal@clcpp@@QEAA@XZ 000000018002e0b0 f   clReflectCpp:clcpp.obj
 0001:0002d0d4       ??0DatabaseMem@internal@clcpp@@QEAA@XZ 000000018002e0d4 f   clReflectCpp:clcpp.obj
 0001:0002d228       ??0Enum@clcpp@@QEAA@XZ     000000018002e228 f   clReflectCpp:clcpp.obj
 0001:0002d264       ??0EnumConstant@clcpp@@QEAA@XZ 000000018002e264 f   clReflectCpp:clcpp.obj
 0001:0002d284       ??0Field@clcpp@@QEAA@XZ    000000018002e284 f   clReflectCpp:clcpp.obj
 0001:0002d2d0       ??0Function@clcpp@@QEAA@XZ 000000018002e2d0 f   clReflectCpp:clcpp.obj
 0001:0002d310       ??0Name@clcpp@@QEAA@XZ     000000018002e310 f   clReflectCpp:clcpp.obj
 0001:0002d31c       ??0Namespace@clcpp@@QEAA@XZ 000000018002e31c f   clReflectCpp:clcpp.obj
 0001:0002d394       ??0Primitive@clcpp@@QEAA@W4Kind@01@@Z 000000018002e394 f   clReflectCpp:clcpp.obj
 0001:0002d3bc       ??0Qualifier@clcpp@@QEAA@W4Operator@01@_N@Z 000000018002e3bc f   clReflectCpp:clcpp.obj
 0001:0002d3c8       ??0Qualifier@clcpp@@QEAA@XZ 000000018002e3c8 f   clReflectCpp:clcpp.obj
 0001:0002d3d4       ??0Range@clcpp@@QEAA@XZ    000000018002e3d4 f   clReflectCpp:clcpp.obj
 0001:0002d3e0       ??0Template@clcpp@@QEAA@XZ 000000018002e3e0 f   clReflectCpp:clcpp.obj
 0001:0002d40c       ??0TemplateType@clcpp@@QEAA@XZ 000000018002e40c f   clReflectCpp:clcpp.obj
 0001:0002d450       ??0Type@clcpp@@QEAA@W4Kind@Primitive@1@@Z 000000018002e450 f   clReflectCpp:clcpp.obj
 0001:0002d47c       ??0Type@clcpp@@QEAA@XZ     000000018002e47c f   clReflectCpp:clcpp.obj
 0001:0002d4ac       ??1Database@clcpp@@QEAA@XZ 000000018002e4ac f   clReflectCpp:clcpp.obj
 0001:0002d4c4       ?AsClass@Type@clcpp@@QEBAPEBUClass@2@XZ 000000018002e4c4 f   clReflectCpp:clcpp.obj
 0001:0002d4e4       ?AsEnum@Type@clcpp@@QEBAPEBUEnum@2@XZ 000000018002e4e4 f   clReflectCpp:clcpp.obj
 0001:0002d504       ?AsFloatAttribute@Attribute@clcpp@@QEBAPEBUFloatAttribute@2@XZ 000000018002e504 f   clReflectCpp:clcpp.obj
 0001:0002d524       ?AsIntAttribute@Attribute@clcpp@@QEBAPEBUIntAttribute@2@XZ 000000018002e524 f   clReflectCpp:clcpp.obj
 0001:0002d544       ?AsPrimitiveAttribute@Attribute@clcpp@@QEBAPEBUPrimitiveAttribute@2@XZ 000000018002e544 f   clReflectCpp:clcpp.obj
 0001:0002d564       ?AsTemplateType@Type@clcpp@@QEBAPEBUTemplateType@2@XZ 000000018002e564 f   clReflectCpp:clcpp.obj
 0001:0002d584       ?AsTextAttribute@Attribute@clcpp@@QEBAPEBUTextAttribute@2@XZ 000000018002e584 f   clReflectCpp:clcpp.obj
 0001:0002d5a4       ?Assert@internal@clcpp@@YAX_N@Z 000000018002e5a4 f   clReflectCpp:clcpp.obj
 0001:0002d5c0       ?DerivesFrom@Type@clcpp@@QEBA_NI@Z 000000018002e5c0 f   clReflectCpp:clcpp.obj
 0001:0002d640       ?FindOverloadedPrimitive@internal@clcpp@@YA?AURange@2@AEBU?$CArray@PEBUPrimitive@clcpp@@@2@I@Z 000000018002e640 f   clReflectCpp:clcpp.obj
 0001:0002d694       ?FindPrimitive@internal@clcpp@@YAPEBUPrimitive@2@AEBU?$CArray@PEBUPrimitive@clcpp@@@2@I@Z 000000018002e694 f   clReflectCpp:clcpp.obj
 0001:0002d6d0       ?GetFunction@Database@clcpp@@QEBAPEBUFunction@2@I@Z 000000018002e6d0 f   clReflectCpp:clcpp.obj
 0001:0002d720       ?GetFunctions@Database@clcpp@@QEBAPEBUFunction@2@AEAI@Z 000000018002e720 f   clReflectCpp:clcpp.obj
 0001:0002d738       ?GetGlobalNamespace@Database@clcpp@@QEBAPEBUNamespace@2@XZ 000000018002e738 f   clReflectCpp:clcpp.obj
 0001:0002d750       ?GetName@Database@clcpp@@QEBA?AUName@2@I@Z 000000018002e750 f   clReflectCpp:clcpp.obj
 0001:0002d7b8       ?GetName@Database@clcpp@@QEBA?AUName@2@PEBD@Z 000000018002e7b8 f   clReflectCpp:clcpp.obj
 0001:0002d808       ?GetNamespace@Database@clcpp@@QEBAPEBUNamespace@2@I@Z 000000018002e808 f   clReflectCpp:clcpp.obj
 0001:0002d85c       ?GetOverloadedFunction@Database@clcpp@@QEBA?AURange@2@I@Z 000000018002e85c f   clReflectCpp:clcpp.obj
 0001:0002d8c8       ?GetTemplate@Database@clcpp@@QEBAPEBUTemplate@2@I@Z 000000018002e8c8 f   clReflectCpp:clcpp.obj
 0001:0002d91c       ?GetType@Database@clcpp@@QEBAPEBUType@2@I@Z 000000018002e91c f   clReflectCpp:clcpp.obj
 0001:0002d94c       ?GetTypes@Database@clcpp@@QEBAPEAPEBUType@2@AEAI@Z 000000018002e94c f   clReflectCpp:clcpp.obj
 0001:0002d964       ?GetValueName@Enum@clcpp@@QEBAPEBDH@Z 000000018002e964 f   clReflectCpp:clcpp.obj
 0001:0002d9bc       ?HashData@internal@clcpp@@YAIPEBXHI@Z 000000018002e9bc f   clReflectCpp:clcpp.obj
 0001:0002d9c4       ?HashNameString@internal@clcpp@@YAIPEBDI@Z 000000018002e9c4 f   clReflectCpp:clcpp.obj
 0001:0002d9e4       ?IsFunctionParameter@Field@clcpp@@QEBA_NXZ 000000018002e9e4 f   clReflectCpp:clcpp.obj
 0001:0002d9ec       ?Load@Database@clcpp@@QEAA_NPEAUIFile@2@PEAUIAllocator@2@I@Z 000000018002e9ec f   clReflectCpp:clcpp.obj
 0001:0002da3c       ?Load@Database@clcpp@@QEAA_NPEAUIFile@2@PEAUIAllocator@2@_KI@Z 000000018002ea3c f   clReflectCpp:clcpp.obj
 0001:0002dde8       ?MixHashes@internal@clcpp@@YAIII@Z 000000018002ede8 f   clReflectCpp:clcpp.obj
 0001:0002df28       ?SetTypes@Database@clcpp@@QEAAXPEAPEBUType@2@I@Z 000000018002ef28 f   clReflectCpp:clcpp.obj
 0001:0002df40       ?UnLoad@Database@clcpp@@QEAA_NXZ 000000018002ef40 f   clReflectCpp:clcpp.obj
 0001:0002dfb1       GetModuleHandleA           000000018002efb1 f   kernel32:KERNEL32.dll
 0001:0002dfb7       ExitProcess                000000018002efb7 f   kernel32:KERNEL32.dll
 0001:0002dfbd       ?_Xlength_error@std@@YAXPEBD@Z 000000018002efbd f   msvcprt:MSVCP140.dll
 0001:0002dfc3       ?_Xout_of_range@std@@YAXPEBD@Z 000000018002efc3 f   msvcprt:MSVCP140.dll
 0001:0002dfcc       ??2@YAPEAX_K@Z             000000018002efcc f   MSVCRT:new_scalar.obj
 0001:0002e008       ??3@YAXPEAX_K@Z            000000018002f008 f   MSVCRT:delete_scalar_size.obj
 0001:0002e170       ??$__crt_fast_decode_pointer@P6AHPEAU_RTL_CONDITION_VARIABLE@@PEAU_RTL_CRITICAL_SECTION@@K@Z@@YAP6AHPEAU_RTL_CONDITION_VARIABLE@@PEAU_RTL_CRITICAL_SECTION@@K@ZQ6AH01K@Z@Z 000000018002f170 f i MSVCRT:thread_safe_statics.obj
 0001:0002e188       ??$__crt_fast_decode_pointer@P6AXPEAU_RTL_CONDITION_VARIABLE@@@Z@@YAP6AXPEAU_RTL_CONDITION_VARIABLE@@@ZQ6AX0@Z@Z 000000018002f188 f i MSVCRT:thread_safe_statics.obj
 0001:0002e1a0       ??$__crt_fast_encode_pointer@P6AHPEAU_RTL_CONDITION_VARIABLE@@PEAU_RTL_CRITICAL_SECTION@@K@Z@@YAP6AHPEAU_RTL_CONDITION_VARIABLE@@PEAU_RTL_CRITICAL_SECTION@@K@ZQ6AH01K@Z@Z 000000018002f1a0 f i MSVCRT:thread_safe_statics.obj
 0001:0002e1c0       ??$__crt_fast_encode_pointer@P6AXPEAU_RTL_CONDITION_VARIABLE@@@Z@@YAP6AXPEAU_RTL_CONDITION_VARIABLE@@@ZQ6AX0@Z@Z 000000018002f1c0 f i MSVCRT:thread_safe_statics.obj
 0001:0002e1e0       ?__crt_rotate_pointer_value@@YA_K_KH@Z 000000018002f1e0 f i MSVCRT:thread_safe_statics.obj
 0001:0002e320       ?__scrt_is_event_api_used@@YA_NQEAX@Z 000000018002f320 f i MSVCRT:thread_safe_statics.obj
 0001:0002e350       _Init_thread_abort         000000018002f350 f   MSVCRT:thread_safe_statics.obj
 0001:0002e380       _Init_thread_footer        000000018002f380 f   MSVCRT:thread_safe_statics.obj
 0001:0002e3e0       _Init_thread_header        000000018002f3e0 f   MSVCRT:thread_safe_statics.obj
 0001:0002e448       _Init_thread_lock          000000018002f448 f   MSVCRT:thread_safe_statics.obj
 0001:0002e458       _Init_thread_notify        000000018002f458 f   MSVCRT:thread_safe_statics.obj
 0001:0002e4a8       _Init_thread_unlock        000000018002f4a8 f   MSVCRT:thread_safe_statics.obj
 0001:0002e4b8       _Init_thread_wait          000000018002f4b8 f   MSVCRT:thread_safe_statics.obj
 0001:0002e530       __GSHandlerCheck           000000018002f530 f   MSVCRT:gshandler.obj
 0001:0002e550       __GSHandlerCheckCommon     000000018002f550 f   MSVCRT:gshandler.obj
 0001:0002e5ac       __GSHandlerCheck_EH        000000018002f5ac f   MSVCRT:gshandlereh.obj
 0001:0002e640       __security_check_cookie    000000018002f640 f   MSVCRT:amdsecgs.obj
 0001:0002e664       ??__C@YAXPEAX0_K1P6AX00@ZP6AX0@Z@Z 000000018002f664 f   MSVCRT:ehvccctr.obj
 0001:0002e6d8       ??__C@YAXPEAX0_KHP6AX00@ZP6AX0@Z@Z 000000018002f6d8 f   MSVCRT:ehvccctr.obj
 0001:0002e6e0       ??_M@YAXPEAX_K1P6AX0@Z@Z   000000018002f6e0 f   MSVCRT:ehvecdtr.obj
 0001:0002e74c       ??_M@YAXPEAX_KHP6AX0@Z@Z   000000018002f74c f   MSVCRT:ehvecdtr.obj
 0001:0002e770       ?__ArrayUnwind@@YAXPEAX_K1P6AX0@Z@Z 000000018002f770 f   MSVCRT:ehvecdtr.obj
 0001:0002e7d4       ??1type_info@@UEAA@XZ      000000018002f7d4 f   MSVCRT:std_type_info_static.obj
 0001:0002e7e0       ??_Etype_info@@UEAAPEAXI@Z 000000018002f7e0 f i MSVCRT:std_type_info_static.obj
 0001:0002e7e0       ??_Gtype_info@@UEAAPEAXI@Z 000000018002f7e0 f i MSVCRT:std_type_info_static.obj
 0001:0002eb58       _CRT_INIT                  000000018002fb58 f   MSVCRT:dll_dllmain.obj
 0001:0002eb60       _DllMainCRTStartup         000000018002fb60 f   MSVCRT:dll_dllmain.obj
 0001:0002eba0       ??$__crt_fast_decode_pointer@PEAP6AXXZ@@YAPEAP6AXXZQEAP6AXXZ@Z 000000018002fba0 f i MSVCRT:utility.obj
 0001:0002ebb8       ??$__crt_fast_encode_pointer@PEAP6AXXZ@@YAPEAP6AXXZQEAP6AXXZ@Z 000000018002fbb8 f i MSVCRT:utility.obj
 0001:0002ebd8       ?configure_argv@__scrt_narrow_argv_policy@@SAHXZ 000000018002fbd8 f i MSVCRT:utility.obj
 0001:0002ec38       ?initialize_environment@__scrt_narrow_environment_policy@@SAHXZ 000000018002fc38 f i MSVCRT:utility.obj
 0001:0002ec70       NtCurrentTeb               000000018002fc70 f i MSVCRT:utility.obj
 0001:0002ec7c       __scrt_acquire_startup_lock 000000018002fc7c f   MSVCRT:utility.obj
 0001:0002ecb8       __scrt_dllmain_after_initialize_c 000000018002fcb8 f   MSVCRT:utility.obj
 0001:0002ecec       __scrt_dllmain_before_initialize_c 000000018002fcec f   MSVCRT:utility.obj
 0001:0002ed04       __scrt_dllmain_crt_thread_attach 000000018002fd04 f   MSVCRT:utility.obj
 0001:0002ed2c       __scrt_dllmain_crt_thread_detach 000000018002fd2c f   MSVCRT:utility.obj
 0001:0002ed44       __scrt_dllmain_exception_filter 000000018002fd44 f   MSVCRT:utility.obj
 0001:0002eda4       __scrt_dllmain_uninitialize_c 000000018002fda4 f   MSVCRT:utility.obj
 0001:0002edd4       __scrt_dllmain_uninitialize_critical 000000018002fdd4 f   MSVCRT:utility.obj
 0001:0002ede8       __scrt_initialize_crt      000000018002fde8 f   MSVCRT:utility.obj
 0001:0002ee34       __scrt_initialize_onexit_tables 000000018002fe34 f   MSVCRT:utility.obj
 0001:0002ef0c       __scrt_is_nonwritable_in_current_image 000000018002ff0c f   MSVCRT:utility.obj
 0001:0002efa8       __scrt_release_startup_lock 000000018002ffa8 f   MSVCRT:utility.obj
 0001:0002efcc       __scrt_uninitialize_crt    000000018002ffcc f   MSVCRT:utility.obj
 0001:0002eff8       _onexit                    000000018002fff8 f   MSVCRT:utility.obj
 0001:0002f048       at_quick_exit              0000000180030048 f   MSVCRT:utility.obj
 0001:0002f080       atexit                     0000000180030080 f   MSVCRT:utility.obj
 0001:0002f098       __raise_securityfailure    0000000180030098 f   MSVCRT:gs_report.obj
 0001:0002f0cc       __report_gsfailure         00000001800300cc f   MSVCRT:gs_report.obj
 0001:0002f1a0       __report_rangecheckfailure 00000001800301a0 f   MSVCRT:gs_report.obj
 0001:0002f1b4       __report_securityfailure   00000001800301b4 f   MSVCRT:gs_report.obj
 0001:0002f250       __report_securityfailureEx 0000000180030250 f   MSVCRT:gs_report.obj
 0001:0002f444       ??_L@YAXPEAX_K1P6AX0@Z2@Z  0000000180030444 f   MSVCRT:ehvecctr.obj
 0001:0002f4b4       ??_L@YAXPEAX_KHP6AX0@Z2@Z  00000001800304b4 f   MSVCRT:ehvecctr.obj
 0001:0002f4bc       ??_U@YAPEAX_K@Z            00000001800304bc f   MSVCRT:new_array.obj
 0001:0002f4c4       ??_V@YAXPEAX@Z             00000001800304c4 f   MSVCRT:delete_array.obj
 0001:0002f4cc       ??0bad_alloc@std@@AEAA@QEBD@Z 00000001800304cc f i MSVCRT:throw_bad_alloc.obj
 0001:0002f4e4       ??0bad_alloc@std@@QEAA@AEBV01@@Z 00000001800304e4 f i MSVCRT:throw_bad_alloc.obj
 0001:0002f524       ??0bad_alloc@std@@QEAA@XZ  0000000180030524 f i MSVCRT:throw_bad_alloc.obj
 0001:0002f544       ??0bad_array_new_length@std@@QEAA@AEBV01@@Z 0000000180030544 f i MSVCRT:throw_bad_alloc.obj
 0001:0002f584       ??0bad_array_new_length@std@@QEAA@XZ 0000000180030584 f i MSVCRT:throw_bad_alloc.obj
 0001:0002f5a4       ??0exception@std@@QEAA@AEBV01@@Z 00000001800305a4 f i MSVCRT:throw_bad_alloc.obj
 0001:0002f5dc       ??0exception@std@@QEAA@QEBDH@Z 00000001800305dc f i MSVCRT:throw_bad_alloc.obj
 0001:0002f5f4       ??1bad_alloc@std@@UEAA@XZ  00000001800305f4 f i MSVCRT:throw_bad_alloc.obj
 0001:0002f608       ??1bad_array_new_length@std@@UEAA@XZ 0000000180030608 f i MSVCRT:throw_bad_alloc.obj
 0001:0002f61c       ??1exception@std@@UEAA@XZ  000000018003061c f i MSVCRT:throw_bad_alloc.obj
 0001:0002f630       ??_Ebad_alloc@std@@UEAAPEAXI@Z 0000000180030630 f i MSVCRT:throw_bad_alloc.obj
 0001:0002f630       ??_Gbad_alloc@std@@UEAAPEAXI@Z 0000000180030630 f i MSVCRT:throw_bad_alloc.obj
 0001:0002f674       ??_Ebad_array_new_length@std@@UEAAPEAXI@Z 0000000180030674 f i MSVCRT:throw_bad_alloc.obj
 0001:0002f674       ??_Gbad_array_new_length@std@@UEAAPEAXI@Z 0000000180030674 f i MSVCRT:throw_bad_alloc.obj
 0001:0002f6b8       ??_Eexception@std@@UEAAPEAXI@Z 00000001800306b8 f i MSVCRT:throw_bad_alloc.obj
 0001:0002f6b8       ??_Gexception@std@@UEAAPEAXI@Z 00000001800306b8 f i MSVCRT:throw_bad_alloc.obj
 0001:0002f6fc       ?__scrt_throw_std_bad_alloc@@YAXXZ 00000001800306fc f   MSVCRT:throw_bad_alloc.obj
 0001:0002f71c       ?__scrt_throw_std_bad_array_new_length@@YAXXZ 000000018003071c f   MSVCRT:throw_bad_alloc.obj
 0001:0002f73c       ?what@exception@std@@UEBAPEBDXZ 000000018003073c f i MSVCRT:throw_bad_alloc.obj
 0001:0002f750       ??3@YAXPEAX@Z              0000000180030750 f   MSVCRT:delete_scalar.obj
 0001:0002f758       __crt_debugger_hook        0000000180030758 f   MSVCRT:utility_desktop.obj
 0001:0002f760       __scrt_fastfail            0000000180030760 f   MSVCRT:utility_desktop.obj
 0001:0002f8ac       __scrt_get_show_window_mode 00000001800308ac f   MSVCRT:utility_desktop.obj
 0001:0002f8e8       __scrt_initialize_mta      00000001800308e8 f   MSVCRT:utility_desktop.obj
 0001:0002f8f0       __scrt_initialize_winrt    00000001800308f0 f   MSVCRT:utility_desktop.obj
 0001:0002f8f4       __scrt_is_managed_app      00000001800308f4 f   MSVCRT:utility_desktop.obj
 0001:0002f948       __scrt_set_unhandled_exception_filter 0000000180030948 f   MSVCRT:utility_desktop.obj
 0001:0002f958       __scrt_stub_for_initialize_mta 0000000180030958 f   MSVCRT:utility_desktop.obj
 0001:0002f958       __scrt_exe_initialize_mta  0000000180030958 f   MSVCRT:utility_desktop.obj
 0001:0002f95c       __scrt_unhandled_exception_filter 000000018003095c f   MSVCRT:utility_desktop.obj
 0001:0002f994       _guard_check_icall_nop     0000000180030994 f i MSVCRT:guard_support.obj
 0001:0002f998       ReadNoFence64              0000000180030998 f i MSVCRT:guard_support.obj
 0001:0002f99c       ReadPointerNoFence         000000018003099c f i MSVCRT:guard_support.obj
 0001:0002f9a0       _guard_icall_checks_enforced 00000001800309a0 f i MSVCRT:guard_support.obj
 0001:0002f9b8       _guard_rf_checks_enforced  00000001800309b8 f i MSVCRT:guard_support.obj
 0001:0002fa28       __security_init_cookie     0000000180030a28 f   MSVCRT:gs_support.obj
 0001:0002fad4       DllMain                    0000000180030ad4 f   MSVCRT:dll_dllmain_stub.obj
 0001:0002faf8       ?__scrt_initialize_type_info@@YAXXZ 0000000180030af8 f   MSVCRT:tncleanup.obj
 0001:0002fb08       ?__scrt_uninitialize_type_info@@YAXXZ 0000000180030b08 f   MSVCRT:tncleanup.obj
 0001:0002fb14       __scrt_initialize_default_local_stdio_options 0000000180030b14 f   MSVCRT:default_local_stdio_options.obj
 0001:0002fb30       __scrt_get_dyn_tls_init_callback 0000000180030b30 f   MSVCRT:dyn_tls_init.obj
 0001:0002fb38       _RTC_Initialize            0000000180030b38 f   MSVCRT:initsect.obj
 0001:0002fb74       _RTC_Terminate             0000000180030b74 f   MSVCRT:initsect.obj
 0001:0002fbb0       __isa_available_init       0000000180030bb0 f   MSVCRT:cpu_disp.obj
 0001:0002fd2c       _get_startup_argv_mode     0000000180030d2c f   MSVCRT:argv_mode.obj
 0001:0002fd34       __scrt_is_ucrt_dll_in_use  0000000180030d34 f   MSVCRT:ucrt_detection.obj
 0001:0002fd40       __std_terminate            0000000180030d40 f   vcruntime:VCRUNTIME140.dll
 0001:0002fd46       memcmp                     0000000180030d46 f   vcruntime:VCRUNTIME140.dll
 0001:0002fd4c       memcpy                     0000000180030d4c f   vcruntime:VCRUNTIME140.dll
 0001:0002fd52       memmove                    0000000180030d52 f   vcruntime:VCRUNTIME140.dll
 0001:0002fd58       _CxxThrowException         0000000180030d58 f   vcruntime:VCRUNTIME140.dll
 0001:0002fd5e       __CxxFrameHandler3         0000000180030d5e f   vcruntime:VCRUNTIME140.dll
 0001:0002fd64       _purecall                  0000000180030d64 f   vcruntime:VCRUNTIME140.dll
 0001:0002fd6a       memset                     0000000180030d6a f   vcruntime:VCRUNTIME140.dll
 0001:0002fd70       memchr                     0000000180030d70 f   vcruntime:VCRUNTIME140.dll
 0001:0002fd76       strstr                     0000000180030d76 f   vcruntime:VCRUNTIME140.dll
 0001:0002fd7c       __C_specific_handler       0000000180030d7c f   vcruntime:VCRUNTIME140.dll
 0001:0002fd82       __std_exception_copy       0000000180030d82 f   vcruntime:VCRUNTIME140.dll
 0001:0002fd88       __std_exception_destroy    0000000180030d88 f   vcruntime:VCRUNTIME140.dll
 0001:0002fd8e       __std_type_info_destroy_list 0000000180030d8e f   vcruntime:VCRUNTIME140.dll
 0001:0002fd94       _invalid_parameter_noinfo_noreturn 0000000180030d94 f   ucrt:api-ms-win-crt-runtime-l1-1-0.dll
 0001:0002fd9a       fclose                     0000000180030d9a f   ucrt:api-ms-win-crt-stdio-l1-1-0.dll
 0001:0002fda0       fopen                      0000000180030da0 f   ucrt:api-ms-win-crt-stdio-l1-1-0.dll
 0001:0002fda6       fwrite                     0000000180030da6 f   ucrt:api-ms-win-crt-stdio-l1-1-0.dll
 0001:0002fdac       __stdio_common_vfscanf     0000000180030dac f   ucrt:api-ms-win-crt-stdio-l1-1-0.dll
 0001:0002fdb2       __stdio_common_vsnprintf_s 0000000180030db2 f   ucrt:api-ms-win-crt-stdio-l1-1-0.dll
 0001:0002fdb8       strlen                     0000000180030db8 f   ucrt:api-ms-win-crt-string-l1-1-0.dll
 0001:0002fdbe       free                       0000000180030dbe f   ucrt:api-ms-win-crt-heap-l1-1-0.dll
 0001:0002fdc4       malloc                     0000000180030dc4 f   ucrt:api-ms-win-crt-heap-l1-1-0.dll
 0001:0002fdca       __acrt_iob_func            0000000180030dca f   ucrt:api-ms-win-crt-stdio-l1-1-0.dll
 0001:0002fdd0       fflush                     0000000180030dd0 f   ucrt:api-ms-win-crt-stdio-l1-1-0.dll
 0001:0002fdd6       fputs                      0000000180030dd6 f   ucrt:api-ms-win-crt-stdio-l1-1-0.dll
 0001:0002fddc       strcat                     0000000180030ddc f   ucrt:api-ms-win-crt-string-l1-1-0.dll
 0001:0002fde2       atoi                       0000000180030de2 f   ucrt:api-ms-win-crt-convert-l1-1-0.dll
 0001:0002fde8       __stdio_common_vfprintf    0000000180030de8 f   ucrt:api-ms-win-crt-stdio-l1-1-0.dll
 0001:0002fdee       __stdio_common_vsscanf     0000000180030dee f   ucrt:api-ms-win-crt-stdio-l1-1-0.dll
 0001:0002fdf4       strcpy                     0000000180030df4 f   ucrt:api-ms-win-crt-string-l1-1-0.dll
 0001:0002fdfa       strtok                     0000000180030dfa f   ucrt:api-ms-win-crt-string-l1-1-0.dll
 0001:0002fe00       fread                      0000000180030e00 f   ucrt:api-ms-win-crt-stdio-l1-1-0.dll
 0001:0002fe06       fgetc                      0000000180030e06 f   ucrt:api-ms-win-crt-stdio-l1-1-0.dll
 0001:0002fe0c       _itoa                      0000000180030e0c f   ucrt:api-ms-win-crt-convert-l1-1-0.dll
 0001:0002fe12       tolower                    0000000180030e12 f   ucrt:api-ms-win-crt-string-l1-1-0.dll
 0001:0002fe18       _callnewh                  0000000180030e18 f   ucrt:api-ms-win-crt-heap-l1-1-0.dll
 0001:0002fe1e       terminate                  0000000180030e1e f   ucrt:api-ms-win-crt-runtime-l1-1-0.dll
 0001:0002fe24       _initterm                  0000000180030e24 f   ucrt:api-ms-win-crt-runtime-l1-1-0.dll
 0001:0002fe2a       _initterm_e                0000000180030e2a f   ucrt:api-ms-win-crt-runtime-l1-1-0.dll
 0001:0002fe30       _seh_filter_dll            0000000180030e30 f   ucrt:api-ms-win-crt-runtime-l1-1-0.dll
 0001:0002fe36       _configure_narrow_argv     0000000180030e36 f   ucrt:api-ms-win-crt-runtime-l1-1-0.dll
 0001:0002fe3c       _initialize_narrow_environment 0000000180030e3c f   ucrt:api-ms-win-crt-runtime-l1-1-0.dll
 0001:0002fe42       _initialize_onexit_table   0000000180030e42 f   ucrt:api-ms-win-crt-runtime-l1-1-0.dll
 0001:0002fe48       _register_onexit_function  0000000180030e48 f   ucrt:api-ms-win-crt-runtime-l1-1-0.dll
 0001:0002fe4e       _execute_onexit_table      0000000180030e4e f   ucrt:api-ms-win-crt-runtime-l1-1-0.dll
 0001:0002fe54       _crt_atexit                0000000180030e54 f   ucrt:api-ms-win-crt-runtime-l1-1-0.dll
 0001:0002fe5a       _crt_at_quick_exit         0000000180030e5a f   ucrt:api-ms-win-crt-runtime-l1-1-0.dll
 0001:0002fe60       _cexit                     0000000180030e60 f   ucrt:api-ms-win-crt-runtime-l1-1-0.dll
 0001:0002fe66       CloseHandle                0000000180030e66 f   kernel32:KERNEL32.dll
 0001:0002fe6c       EnterCriticalSection       0000000180030e6c f   kernel32:KERNEL32.dll
 0001:0002fe72       LeaveCriticalSection       0000000180030e72 f   kernel32:KERNEL32.dll
 0001:0002fe78       InitializeCriticalSectionAndSpinCount 0000000180030e78 f   kernel32:KERNEL32.dll
 0001:0002fe7e       DeleteCriticalSection      0000000180030e7e f   kernel32:KERNEL32.dll
 0001:0002fe84       SetEvent                   0000000180030e84 f   kernel32:KERNEL32.dll
 0001:0002fe8a       ResetEvent                 0000000180030e8a f   kernel32:KERNEL32.dll
 0001:0002fe90       WaitForSingleObjectEx      0000000180030e90 f   kernel32:KERNEL32.dll
 0001:0002fe96       CreateEventW               0000000180030e96 f   kernel32:KERNEL32.dll
 0001:0002fe9c       GetModuleHandleW           0000000180030e9c f   kernel32:KERNEL32.dll
 0001:0002fea2       GetProcAddress             0000000180030ea2 f   kernel32:KERNEL32.dll
 0001:0002fea8       RtlCaptureContext          0000000180030ea8 f   kernel32:KERNEL32.dll
 0001:0002feae       RtlLookupFunctionEntry     0000000180030eae f   kernel32:KERNEL32.dll
 0001:0002feb4       RtlVirtualUnwind           0000000180030eb4 f   kernel32:KERNEL32.dll
 0001:0002feba       UnhandledExceptionFilter   0000000180030eba f   kernel32:KERNEL32.dll
 0001:0002fec0       SetUnhandledExceptionFilter 0000000180030ec0 f   kernel32:KERNEL32.dll
 0001:0002fec6       GetCurrentProcess          0000000180030ec6 f   kernel32:KERNEL32.dll
 0001:0002fecc       TerminateProcess           0000000180030ecc f   kernel32:KERNEL32.dll
 0001:0002fed2       IsProcessorFeaturePresent  0000000180030ed2 f   kernel32:KERNEL32.dll
 0001:0002fed8       IsDebuggerPresent          0000000180030ed8 f   kernel32:KERNEL32.dll
 0001:0002fede       GetStartupInfoW            0000000180030ede f   kernel32:KERNEL32.dll
 0001:0002fee4       QueryPerformanceCounter    0000000180030ee4 f   kernel32:KERNEL32.dll
 0001:0002feea       GetCurrentProcessId        0000000180030eea f   kernel32:KERNEL32.dll
 0001:0002fef0       GetCurrentThreadId         0000000180030ef0 f   kernel32:KERNEL32.dll
 0001:0002fef6       GetSystemTimeAsFileTime    0000000180030ef6 f   kernel32:KERNEL32.dll
 0001:0002fefc       DisableThreadLibraryCalls  0000000180030efc f   kernel32:KERNEL32.dll
 0001:0002ff02       InitializeSListHead        0000000180030f02 f   kernel32:KERNEL32.dll
 0001:0002ff08       __vcrt_initialize          0000000180030f08 f   MSVCRT:ucrt_stubs.obj
 0001:0002ff08       __acrt_initialize          0000000180030f08 f   MSVCRT:ucrt_stubs.obj
 0001:0002ff08       __scrt_stub_for_acrt_initialize 0000000180030f08 f   MSVCRT:ucrt_stubs.obj
 0001:0002ff0c       __scrt_stub_for_acrt_thread_attach 0000000180030f0c f   MSVCRT:ucrt_stubs.obj
 0001:0002ff0c       __acrt_thread_attach       0000000180030f0c f   MSVCRT:ucrt_stubs.obj
 0001:0002ff0c       __vcrt_thread_attach       0000000180030f0c f   MSVCRT:ucrt_stubs.obj
 0001:0002ff10       __acrt_thread_detach       0000000180030f10 f   MSVCRT:ucrt_stubs.obj
 0001:0002ff10       __vcrt_thread_detach       0000000180030f10 f   MSVCRT:ucrt_stubs.obj
 0001:0002ff10       __scrt_stub_for_acrt_thread_detach 0000000180030f10 f   MSVCRT:ucrt_stubs.obj
 0001:0002ff14       __vcrt_uninitialize        0000000180030f14 f   MSVCRT:ucrt_stubs.obj
 0001:0002ff14       __acrt_uninitialize        0000000180030f14 f   MSVCRT:ucrt_stubs.obj
 0001:0002ff14       __scrt_stub_for_acrt_uninitialize 0000000180030f14 f   MSVCRT:ucrt_stubs.obj
 0001:0002ff18       __scrt_stub_for_acrt_uninitialize_critical 0000000180030f18 f   MSVCRT:ucrt_stubs.obj
 0001:0002ff18       __acrt_uninitialize_critical 0000000180030f18 f   MSVCRT:ucrt_stubs.obj
 0001:0002ff18       __vcrt_uninitialize_critical 0000000180030f18 f   MSVCRT:ucrt_stubs.obj
 0001:0002ff1c       __scrt_stub_for_is_c_termination_complete 0000000180030f1c f   MSVCRT:ucrt_stubs.obj
 0001:0002ff1c       _is_c_termination_complete 0000000180030f1c f   MSVCRT:ucrt_stubs.obj
 0001:0002ff30       _guard_dispatch_icall_nop  0000000180030f30 f   MSVCRT:guard_dispatch.obj
 0002:00000000       __imp_GetModuleHandleA     0000000180034000     kernel32:KERNEL32.dll
 0002:00000008       __imp_ExitProcess          0000000180034008     kernel32:KERNEL32.dll
 0002:00000010       __imp_DisableThreadLibraryCalls 0000000180034010     kernel32:KERNEL32.dll
 0002:00000018       __imp_GetSystemTimeAsFileTime 0000000180034018     kernel32:KERNEL32.dll
 0002:00000020       __imp_GetCurrentThreadId   0000000180034020     kernel32:KERNEL32.dll
 0002:00000028       __imp_GetCurrentProcessId  0000000180034028     kernel32:KERNEL32.dll
 0002:00000030       __imp_QueryPerformanceCounter 0000000180034030     kernel32:KERNEL32.dll
 0002:00000038       __imp_GetStartupInfoW      0000000180034038     kernel32:KERNEL32.dll
 0002:00000040       __imp_IsDebuggerPresent    0000000180034040     kernel32:KERNEL32.dll
 0002:00000048       __imp_IsProcessorFeaturePresent 0000000180034048     kernel32:KERNEL32.dll
 0002:00000050       __imp_TerminateProcess     0000000180034050     kernel32:KERNEL32.dll
 0002:00000058       __imp_GetCurrentProcess    0000000180034058     kernel32:KERNEL32.dll
 0002:00000060       __imp_SetUnhandledExceptionFilter 0000000180034060     kernel32:KERNEL32.dll
 0002:00000068       __imp_UnhandledExceptionFilter 0000000180034068     kernel32:KERNEL32.dll
 0002:00000070       __imp_RtlVirtualUnwind     0000000180034070     kernel32:KERNEL32.dll
 0002:00000078       __imp_RtlLookupFunctionEntry 0000000180034078     kernel32:KERNEL32.dll
 0002:00000080       __imp_RtlCaptureContext    0000000180034080     kernel32:KERNEL32.dll
 0002:00000088       __imp_GetProcAddress       0000000180034088     kernel32:KERNEL32.dll
 0002:00000090       __imp_GetModuleHandleW     0000000180034090     kernel32:KERNEL32.dll
 0002:00000098       __imp_CreateEventW         0000000180034098     kernel32:KERNEL32.dll
 0002:000000a0       __imp_WaitForSingleObjectEx 00000001800340a0     kernel32:KERNEL32.dll
 0002:000000a8       __imp_ResetEvent           00000001800340a8     kernel32:KERNEL32.dll
 0002:000000b0       __imp_SetEvent             00000001800340b0     kernel32:KERNEL32.dll
 0002:000000b8       __imp_DeleteCriticalSection 00000001800340b8     kernel32:KERNEL32.dll
 0002:000000c0       __imp_InitializeCriticalSectionAndSpinCount 00000001800340c0     kernel32:KERNEL32.dll
 0002:000000c8       __imp_LeaveCriticalSection 00000001800340c8     kernel32:KERNEL32.dll
 0002:000000d0       __imp_EnterCriticalSection 00000001800340d0     kernel32:KERNEL32.dll
 0002:000000d8       __imp_CloseHandle          00000001800340d8     kernel32:KERNEL32.dll
 0002:000000e0       __imp_InitializeSListHead  00000001800340e0     kernel32:KERNEL32.dll
 0002:000000e8       \177KERNEL32_NULL_THUNK_DATA 00000001800340e8     kernel32:KERNEL32.dll
 0002:000000f0       __imp_?_Xlength_error@std@@YAXPEBD@Z 00000001800340f0     msvcprt:MSVCP140.dll
 0002:000000f8       __imp_?_Xout_of_range@std@@YAXPEBD@Z 00000001800340f8     msvcprt:MSVCP140.dll
 0002:00000100       \177MSVCP140_NULL_THUNK_DATA 0000000180034100     msvcprt:MSVCP140.dll
 0002:00000108       __imp_memset               0000000180034108     vcruntime:VCRUNTIME140.dll
 0002:00000110       __imp_memchr               0000000180034110     vcruntime:VCRUNTIME140.dll
 0002:00000118       __imp___std_terminate      0000000180034118     vcruntime:VCRUNTIME140.dll
 0002:00000120       __imp_memcmp               0000000180034120     vcruntime:VCRUNTIME140.dll
 0002:00000128       __imp_memcpy               0000000180034128     vcruntime:VCRUNTIME140.dll
 0002:00000130       __imp_memmove              0000000180034130     vcruntime:VCRUNTIME140.dll
 0002:00000138       __imp__CxxThrowException   0000000180034138     vcruntime:VCRUNTIME140.dll
 0002:00000140       __imp___CxxFrameHandler3   0000000180034140     vcruntime:VCRUNTIME140.dll
 0002:00000148       __imp___std_exception_destroy 0000000180034148     vcruntime:VCRUNTIME140.dll
 0002:00000150       __imp__purecall            0000000180034150     vcruntime:VCRUNTIME140.dll
 0002:00000158       __imp_strstr               0000000180034158     vcruntime:VCRUNTIME140.dll
 0002:00000160       __imp___C_specific_handler 0000000180034160     vcruntime:VCRUNTIME140.dll
 0002:00000168       __imp___std_type_info_destroy_list 0000000180034168     vcruntime:VCRUNTIME140.dll
 0002:00000170       __imp___std_exception_copy 0000000180034170     vcruntime:VCRUNTIME140.dll
 0002:00000178       \177VCRUNTIME140_NULL_THUNK_DATA 0000000180034178     vcruntime:VCRUNTIME140.dll
 0002:00000180       __imp_atoi                 0000000180034180     ucrt:api-ms-win-crt-convert-l1-1-0.dll
 0002:00000188       __imp__itoa                0000000180034188     ucrt:api-ms-win-crt-convert-l1-1-0.dll
 0002:00000190       \177api-ms-win-crt-convert-l1-1-0_NULL_THUNK_DATA 0000000180034190     ucrt:api-ms-win-crt-convert-l1-1-0.dll
 0002:00000198       __imp__callnewh            0000000180034198     ucrt:api-ms-win-crt-heap-l1-1-0.dll
 0002:000001a0       __imp_free                 00000001800341a0     ucrt:api-ms-win-crt-heap-l1-1-0.dll
 0002:000001a8       __imp_malloc               00000001800341a8     ucrt:api-ms-win-crt-heap-l1-1-0.dll
 0002:000001b0       \177api-ms-win-crt-heap-l1-1-0_NULL_THUNK_DATA 00000001800341b0     ucrt:api-ms-win-crt-heap-l1-1-0.dll
 0002:000001b8       __imp__crt_atexit          00000001800341b8     ucrt:api-ms-win-crt-runtime-l1-1-0.dll
 0002:000001c0       __imp__execute_onexit_table 00000001800341c0     ucrt:api-ms-win-crt-runtime-l1-1-0.dll
 0002:000001c8       __imp_terminate            00000001800341c8     ucrt:api-ms-win-crt-runtime-l1-1-0.dll
 0002:000001d0       __imp__cexit               00000001800341d0     ucrt:api-ms-win-crt-runtime-l1-1-0.dll
 0002:000001d8       __imp__crt_at_quick_exit   00000001800341d8     ucrt:api-ms-win-crt-runtime-l1-1-0.dll
 0002:000001e0       __imp__register_onexit_function 00000001800341e0     ucrt:api-ms-win-crt-runtime-l1-1-0.dll
 0002:000001e8       __imp__initialize_onexit_table 00000001800341e8     ucrt:api-ms-win-crt-runtime-l1-1-0.dll
 0002:000001f0       __imp__initialize_narrow_environment 00000001800341f0     ucrt:api-ms-win-crt-runtime-l1-1-0.dll
 0002:000001f8       __imp__seh_filter_dll      00000001800341f8     ucrt:api-ms-win-crt-runtime-l1-1-0.dll
 0002:00000200       __imp__initterm_e          0000000180034200     ucrt:api-ms-win-crt-runtime-l1-1-0.dll
 0002:00000208       __imp__initterm            0000000180034208     ucrt:api-ms-win-crt-runtime-l1-1-0.dll
 0002:00000210       __imp__configure_narrow_argv 0000000180034210     ucrt:api-ms-win-crt-runtime-l1-1-0.dll
 0002:00000218       __imp__invalid_parameter_noinfo_noreturn 0000000180034218     ucrt:api-ms-win-crt-runtime-l1-1-0.dll
 0002:00000220       \177api-ms-win-crt-runtime-l1-1-0_NULL_THUNK_DATA 0000000180034220     ucrt:api-ms-win-crt-runtime-l1-1-0.dll
 0002:00000228       __imp_fwrite               0000000180034228     ucrt:api-ms-win-crt-stdio-l1-1-0.dll
 0002:00000230       __imp___stdio_common_vfscanf 0000000180034230     ucrt:api-ms-win-crt-stdio-l1-1-0.dll
 0002:00000238       __imp___stdio_common_vsnprintf_s 0000000180034238     ucrt:api-ms-win-crt-stdio-l1-1-0.dll
 0002:00000240       __imp___acrt_iob_func      0000000180034240     ucrt:api-ms-win-crt-stdio-l1-1-0.dll
 0002:00000248       __imp_fflush               0000000180034248     ucrt:api-ms-win-crt-stdio-l1-1-0.dll
 0002:00000250       __imp_fopen                0000000180034250     ucrt:api-ms-win-crt-stdio-l1-1-0.dll
 0002:00000258       __imp_fclose               0000000180034258     ucrt:api-ms-win-crt-stdio-l1-1-0.dll
 0002:00000260       __imp_fputs                0000000180034260     ucrt:api-ms-win-crt-stdio-l1-1-0.dll
 0002:00000268       __imp_fgetc                0000000180034268     ucrt:api-ms-win-crt-stdio-l1-1-0.dll
 0002:00000270       __imp_fread                0000000180034270     ucrt:api-ms-win-crt-stdio-l1-1-0.dll
 0002:00000278       __imp___stdio_common_vfprintf 0000000180034278     ucrt:api-ms-win-crt-stdio-l1-1-0.dll
 0002:00000280       __imp___stdio_common_vsscanf 0000000180034280     ucrt:api-ms-win-crt-stdio-l1-1-0.dll
 0002:00000288       \177api-ms-win-crt-stdio-l1-1-0_NULL_THUNK_DATA 0000000180034288     ucrt:api-ms-win-crt-stdio-l1-1-0.dll
 0002:00000290       __imp_strcat               0000000180034290     ucrt:api-ms-win-crt-string-l1-1-0.dll
 0002:00000298       __imp_tolower              0000000180034298     ucrt:api-ms-win-crt-string-l1-1-0.dll
 0002:000002a0       __imp_strtok               00000001800342a0     ucrt:api-ms-win-crt-string-l1-1-0.dll
 0002:000002a8       __imp_strlen               00000001800342a8     ucrt:api-ms-win-crt-string-l1-1-0.dll
 0002:000002b0       __imp_strcpy               00000001800342b0     ucrt:api-ms-win-crt-string-l1-1-0.dll
 0002:000002b8       \177api-ms-win-crt-string-l1-1-0_NULL_THUNK_DATA 00000001800342b8     ucrt:api-ms-win-crt-string-l1-1-0.dll
 0002:000002c0       __guard_check_icall_fptr   00000001800342c0     MSVCRT:guard_support.obj
 0002:000002c8       __guard_dispatch_icall_fptr 00000001800342c8     MSVCRT:guard_support.obj
 0002:000002d0       __xc_a                     00000001800342d0     MSVCRT:initializers.obj
 0002:00000388       __xc_z                     0000000180034388     MSVCRT:initializers.obj
 0002:00000390       __xi_a                     0000000180034390     MSVCRT:initializers.obj
 0002:000003a0       __xi_z                     00000001800343a0     MSVCRT:initializers.obj
 0002:000003a8       __xl_a                     00000001800343a8     MSVCRT:tlssup.obj
 0002:000003b0       __xl_z                     00000001800343b0     MSVCRT:tlssup.obj
 0002:000003b8       __xp_a                     00000001800343b8     MSVCRT:initializers.obj
 0002:000003c0       __xp_z                     00000001800343c0     MSVCRT:initializers.obj
 0002:000003c8       __xt_a                     00000001800343c8     MSVCRT:initializers.obj
 0002:000003d0       __xt_z                     00000001800343d0     MSVCRT:initializers.obj
 0002:00000730       ??_C@_00CNPNBAHC@@         0000000180034730     CodeGen.obj
 0002:00000734       ??_C@_01GPOEFGEJ@?7@       0000000180034734     CodeGen.obj
 0002:00000738       ??_C@_02PCIJFNDE@?$AN?6@   0000000180034738     CodeGen.obj
 0002:0000073c       ??_C@_01HCONENDN@?$HL@     000000018003473c     CodeGen.obj
 0002:00000740       ??_C@_01CELHOKLL@?$HN@     0000000180034740     CodeGen.obj
 0002:00000744       ??_C@_02GMLFBBN@wb@        0000000180034744     CodeGen.obj
 0002:00000748       ??_C@_02MOLJINC@?3?3@      0000000180034748     CodeGen.obj
 0002:0000074c       ??_C@_05MOMCPAKP@clcpp@    000000018003474c     CodeGen.obj
 0002:00000758       ??_C@_0N@BGEMPGOH@namespace?5?$CFs@ 0000000180034758     CodeGen.obj
 0002:00000768       ??_C@_0BO@PHPIKHMB@?$CDif?5defined?$CICLCPP_USING_MSVC?$CJ@ 0000000180034768     CodeGen.obj
 0002:00000788       ??_C@_08PMHBDHAC@enum?5?$CFs?$DL@ 0000000180034788     CodeGen.obj
 0002:00000794       ??_C@_06CCBIAIJP@?$CDendif@ 0000000180034794     CodeGen.obj
 0002:000007a0       ??_C@_09OMKNAGIP@class?5?$CFs?$DL@ 00000001800347a0     CodeGen.obj
 0002:000007b0       ??_C@_0L@CADKHLDC@struct?5?$CFs?$DL@ 00000001800347b0     CodeGen.obj
 0002:000007c0       ??_C@_0P@HJLBGBHJ@enum?5class?5?$CFs?$DL@ 00000001800347c0     CodeGen.obj
 0002:000007d0       ??_C@_0BA@HEHBDAHM@enum?5struct?5?$CFs?$DL@ 00000001800347d0     CodeGen.obj
 0002:000007e0       ??_C@_0EG@NAJNOICJ@template?5?$DM?$DO?5const?5Type?$CK?5GetType@ 00000001800347e0     CodeGen.obj
 0002:00000830       ??_C@_0EC@JDMHLLOH@template?5?$DM?$DO?5unsigned?5int?5GetTyp@ 0000000180034830     CodeGen.obj
 0002:00000880       ??_C@_0EK@CBLGEKGB@template?5?$DM?$DO?5constexpr?5unsigned?5@ 0000000180034880     CodeGen.obj
 0002:000008d0       ??_C@_0CL@MNOMFEFC@?1?1?5Generated?5by?5clmerge?4exe?5?9?5d@ 00000001800348d0     CodeGen.obj
 0002:00000900       ??_C@_0BJ@PIGPODN@?$CDinclude?5?$DMclcpp?1clcpp?4h?$DO@ 0000000180034900     CodeGen.obj
 0002:00000920       ??_C@_0CM@DIPAKEHK@?1?1?5Forward?5declarations?5for?5all@ 0000000180034920     CodeGen.obj
 0002:0000094c       ??_C@_05ICAEIJKB@?1?1?5?$CFx@ 000000018003494c     CodeGen.obj
 0002:00000954       ??_C@_02JDPG@rb@           0000000180034954     CodeGen.obj
 0002:00000958       ??_C@_04GHJNJNPO@main@     0000000180034958     CodeGen.obj
 0002:00000960       ??_C@_0BF@BOMAFJJG@Generating?5File?3?5?$CFs?6@ 0000000180034960     CodeGen.obj
 0002:00000978       ??_C@_0BP@PNDDGOPH@?1?1?5Array?5of?5type?5name?5pointers@ 0000000180034978     CodeGen.obj
 0002:00000998       ??_C@_0CE@CAEOFILI@static?5const?5int?5clcppNbTypes?5?$DN@ 0000000180034998     CodeGen.obj
 0002:000009c0       ??_C@_0DP@GGPFDEF@static?5const?5clcpp?3?3Type?$CK?5clcpp@ 00000001800349c0     CodeGen.obj
 0002:00000a00       ??_C@_0DB@ILKJBEJB@void?5clcppInitGetType?$CIconst?5clc@ 0000000180034a00     CodeGen.obj
 0002:00000a38       ??_C@_0DO@PPONPELO@?1?1?5Populate?5the?5type?5pointer?5ar@ 0000000180034a38     CodeGen.obj
 0002:00000a78       ??_C@_0N@GNDGFNMD@if?5?$CIdb?5?$CB?$DN?50?$CJ@ 0000000180034a78     CodeGen.obj
 0002:00000a88       ??_C@_0CH@NPNPAJBD@clcppTypePtrs?$FL?$CFd?$FN?5?$DN?5db?9?$DOGetType@ 0000000180034a88     CodeGen.obj
 0002:00000ab0       ??_C@_0DD@IPKOAKLM@?1?1?5Specialisations?5for?5GetType?5@ 0000000180034ab0     CodeGen.obj
 0002:00000ae8       ??_C@_0BA@PIMNCNNK@namespace?5clcpp@ 0000000180034ae8     CodeGen.obj
 0002:00000af8       ??_C@_0CP@BOOGPCMB@?1?1?5Specialisations?5for?5constexp@ 0000000180034af8     CodeGen.obj
 0002:00000b28       ??_C@_0BI@CFPLBAOH@invalid?5string?5position@ 0000000180034b28     CodeGen.obj
 0002:00000b40       ??_C@_0BD@OLBABOEK@vector?$DMT?$DO?5too?5long@ 0000000180034b40     CodeGen.obj
 0002:00000b58       ??_C@_0BA@JFNIOLAK@string?5too?5long@ 0000000180034b58     CodeGen.obj
 0002:00000b68       ??_C@_0BE@JONHPENG@map?1set?$DMT?$DO?5too?5long@ 0000000180034b68     CodeGen.obj
 0002:00000b80       __xmm@000000000000000f0000000000000000 0000000180034b80     CodeGen.obj
 0002:00001750       ??_7Attribute@cldb@@6B@    0000000180035750     DatabaseMerge.obj
 0002:00001760       ??_7FlagAttribute@cldb@@6B@ 0000000180035760     DatabaseMerge.obj
 0002:00001770       ??_7IntAttribute@cldb@@6B@ 0000000180035770     DatabaseMerge.obj
 0002:00001780       ??_7FloatAttribute@cldb@@6B@ 0000000180035780     DatabaseMerge.obj
 0002:00001790       ??_7PrimitiveAttribute@cldb@@6B@ 0000000180035790     DatabaseMerge.obj
 0002:000017a0       ??_7TextAttribute@cldb@@6B@ 00000001800357a0     DatabaseMerge.obj
 0002:000017a8       ??_C@_0DI@LHFDDPMJ@Class?5?$CFs?5differs?5in?5size?5during@ 00000001800357a8     DatabaseMerge.obj
 0002:00001ba0       ??_C@_0BG@KLOHFDNB@Not?5enough?5arguments?6@ 0000000180035ba0     Main.obj
 0002:00001bb8       ??_C@_0N@MCLNLLP@?9cpp_codegen@ 0000000180035bb8     Main.obj
 0002:00001bc8       ??_C@_0L@EEBFOIJN@?9h_codegen@ 0000000180035bc8     Main.obj
 0002:00001bd8       ??_C@_0DP@NAKHOGEB@Couldn?8t?5read?5?8?$CFs?8?5as?5binary?5or@ 0000000180035bd8     Main.obj
 0002:00001da0       ??_C@_01NOFIACDB@w@        0000000180035da0     clReflectCore:Logging.obj
 0002:00001da8       ??_C@_09PIEMHOIP@WARNING?3?5@ 0000000180035da8     clReflectCore:Logging.obj
 0002:00001db8       ??_C@_07JHDPBCI@ERROR?3?5@ 0000000180035db8     clReflectCore:Logging.obj
 0002:00002390       ??_C@_01NBENCBCI@?$CK@     0000000180036390     clReflectCore:Database.obj
 0002:00002394       ??_C@_06LIJLOJAG@const?5@  0000000180036394     clReflectCore:Database.obj
 0002:0000239c       ??_C@_01HNPIGOCE@?$CG@     000000018003639c     clReflectCore:Database.obj
 0002:000023a0       ??_C@_04GKJNKENE@void@     00000001800363a0     clReflectCore:Database.obj
 0002:000023a8       ??_C@_04DDKJGDCM@bool@     00000001800363a8     clReflectCore:Database.obj
 0002:000023b0       ??_C@_04ENMBGAPA@char@     00000001800363b0     clReflectCore:Database.obj
 0002:000023b8       ??_C@_0O@PPAIJIHF@unsigned?5char@ 00000001800363b8     clReflectCore:Database.obj
 0002:000023c8       ??_C@_07CLGGIAMF@wchar_t@  00000001800363c8     clReflectCore:Database.obj
 0002:000023d0       ??_C@_05BFKKPKCG@short@    00000001800363d0     clReflectCore:Database.obj
 0002:000023d8       ??_C@_0P@IIMKEEHB@unsigned?5short@ 00000001800363d8     clReflectCore:Database.obj
 0002:000023e8       ??_C@_03JBIPMCLC@int@      00000001800363e8     clReflectCore:Database.obj
 0002:000023f0       ??_C@_0N@OFHMGPAL@unsigned?5int@ 00000001800363f0     clReflectCore:Database.obj
 0002:00002400       ??_C@_04GOKPGOLB@long@     0000000180036400     clReflectCore:Database.obj
 0002:00002408       ??_C@_0O@NMGGJGDE@unsigned?5long@ 0000000180036408     clReflectCore:Database.obj
 0002:00002418       ??_C@_05KNFBNCOH@float@    0000000180036418     clReflectCore:Database.obj
 0002:00002420       ??_C@_06BNJCAIGJ@double@   0000000180036420     clReflectCore:Database.obj
 0002:00002428       ??_C@_09IPNKJOIF@long?5long@ 0000000180036428     clReflectCore:Database.obj
 0002:00002438       ??_C@_0BD@PNIDPONK@unsigned?5long?5long@ 0000000180036438     clReflectCore:Database.obj
 0002:0000244c       ??_C@_02NOFGAPG@?$DM?9@    000000018003644c     clReflectCore:Database.obj
 0002:00002a18       ??_C@_02NJPGOMH@?$CFf@     0000000180036a18     clReflectCore:DatabaseTextSerialiser.obj
 0002:00002a20       ??_C@_0EL@KPKPKFDH@?9?9?9?9?5?9?9?9?9?9?9?9?9?9?9?9?9?9?9?9?9?9?9?9?9?9?9?9?9?9?9@ 0000000180036a20     clReflectCore:DatabaseTextSerialiser.obj
 0002:00002a70       ??_C@_0EL@MMOIOEPI@?9?9?9?9?9?9?9?9?9?9?9?9?9?9?9?9?9?9?9?9?9?9?9?9?9?9?9?9?9?9?9@ 0000000180036a70     clReflectCore:DatabaseTextSerialiser.obj
 0002:00002abc       ??_C@_01EEMJAFIK@?6@       0000000180036abc     clReflectCore:DatabaseTextSerialiser.obj
 0002:00002ac0       ??_C@_02PHMGELLB@?6?6@     0000000180036ac0     clReflectCore:DatabaseTextSerialiser.obj
 0002:00002ac4       ??_C@_02MJDCBKNA@?71@      0000000180036ac4     clReflectCore:DatabaseTextSerialiser.obj
 0002:00002ac8       ??_C@_02NACJCLJB@?70@      0000000180036ac8     clReflectCore:DatabaseTextSerialiser.obj
 0002:00002acc       ??_C@_01EFFIKLCJ@n@        0000000180036acc     clReflectCore:DatabaseTextSerialiser.obj
 0002:00002ad0       ??_C@_01PAPGNFGE@c@        0000000180036ad0     clReflectCore:DatabaseTextSerialiser.obj
 0002:00002ad4       ??_C@_01LKDEMHDF@s@        0000000180036ad4     clReflectCore:DatabaseTextSerialiser.obj
 0002:00002ad8       ??_C@_01MHEDDDHA@v@        0000000180036ad8     clReflectCore:DatabaseTextSerialiser.obj
 0002:00002adc       ??_C@_01JBBJJEPG@p@        0000000180036adc     clReflectCore:DatabaseTextSerialiser.obj
 0002:00002ae0       ??_C@_01KDCPPGHE@r@        0000000180036ae0     clReflectCore:DatabaseTextSerialiser.obj
 0002:00002ae4       ??_C@_02NOKNKGCL@?7?7@     0000000180036ae4     clReflectCore:DatabaseTextSerialiser.obj
 0002:00002ae8       ??_C@_0L@ICLNDICN@Hash?7?7Name@ 0000000180036ae8     clReflectCore:DatabaseTextSerialiser.obj
 0002:00002af4       ??_C@_05FMHPGHJN@Names@    0000000180036af4     clReflectCore:DatabaseTextSerialiser.obj
 0002:00002b00       ??_C@_0BF@OAJNGHPP@?6clReflect?5Database?6@ 0000000180036b00     clReflectCore:DatabaseTextSerialiser.obj
 0002:00002b18       ??_C@_0BB@FOJCIAKO@Format?5Version?3?5@ 0000000180036b18     clReflectCore:DatabaseTextSerialiser.obj
 0002:00002b2c       ??_C@_03EGHOKNNL@?6?6?6@   0000000180036b2c     clReflectCore:DatabaseTextSerialiser.obj
 0002:00002b30       ??_C@_0BD@FDNMGDJM@Name?7?7Parent?7?7Size@ 0000000180036b30     clReflectCore:DatabaseTextSerialiser.obj
 0002:00002b44       ??_C@_05MNBBFGB@Types@     0000000180036b44     clReflectCore:DatabaseTextSerialiser.obj
 0002:00002b50       ??_C@_0BE@OIIJONKP@Name?7?7Parent?7?7Value@ 0000000180036b50     clReflectCore:DatabaseTextSerialiser.obj
 0002:00002b68       ??_C@_0P@FHOIDPKL@Enum?5Constants@ 0000000180036b68     clReflectCore:DatabaseTextSerialiser.obj
 0002:00002b78       ??_C@_0BL@MIFPFKEP@Name?7?7Parent?7?7Size?7?7Scoped@ 0000000180036b78     clReflectCore:DatabaseTextSerialiser.obj
 0002:00002b94       ??_C@_05CPFGCOEH@Enums@    0000000180036b94     clReflectCore:DatabaseTextSerialiser.obj
 0002:00002ba0       ??_C@_0CF@DPMMHNGK@Name?7?7Parent?7?7Type?7?7Mod?7Cst?7Off@ 0000000180036ba0     clReflectCore:DatabaseTextSerialiser.obj
 0002:00002bc8       ??_C@_06BFNMHBP@Fields@    0000000180036bc8     clReflectCore:DatabaseTextSerialiser.obj
 0002:00002bd0       ??_C@_0BC@OMLDLGE@Name?7?7Parent?7?7UID@ 0000000180036bd0     clReflectCore:DatabaseTextSerialiser.obj
 0002:00002be8       ??_C@_09GLFFPDKE@Functions@ 0000000180036be8     clReflectCore:DatabaseTextSerialiser.obj
 0002:00002bf8       ??_C@_0CD@BAOBGFBP@Name?7?7Parent?7?7Size?7?7Base?7?7Is?5Cl@ 0000000180036bf8     clReflectCore:DatabaseTextSerialiser.obj
 0002:00002c20       ??_C@_07DPIHKJGF@Classes@  0000000180036c20     clReflectCore:DatabaseTextSerialiser.obj
 0002:00002c28       ??_C@_0N@HNPIGGHE@Name?7?7Parent@ 0000000180036c28     clReflectCore:DatabaseTextSerialiser.obj
 0002:00002c38       ??_C@_09GIMPJFPI@Templates@ 0000000180036c38     clReflectCore:DatabaseTextSerialiser.obj
 0002:00002c48       ??_C@_0CO@MJOLFBDM@Name?7?7Parent?7?7Argument?5type?5and@ 0000000180036c48     clReflectCore:DatabaseTextSerialiser.obj
 0002:00002c78       ??_C@_0P@JFNMICMP@Template?5Types@ 0000000180036c78     clReflectCore:DatabaseTextSerialiser.obj
 0002:00002c88       ??_C@_0L@KCJDJAB@Namespaces@ 0000000180036c88     clReflectCore:DatabaseTextSerialiser.obj
 0002:00002c98       ??_C@_0BA@HMCOJFAG@Flag?5Attributes@ 0000000180036c98     clReflectCore:DatabaseTextSerialiser.obj
 0002:00002ca8       ??_C@_0P@NOLCLMFN@Int?5Attributes@ 0000000180036ca8     clReflectCore:DatabaseTextSerialiser.obj
 0002:00002cb8       ??_C@_0BB@FIDEJMCO@Float?5Attributes@ 0000000180036cb8     clReflectCore:DatabaseTextSerialiser.obj
 0002:00002cd0       ??_C@_0BF@POHIEHBE@Primitive?5Attributes@ 0000000180036cd0     clReflectCore:DatabaseTextSerialiser.obj
 0002:00002ce8       ??_C@_0BA@KKPCJAKM@Text?5Attributes@ 0000000180036ce8     clReflectCore:DatabaseTextSerialiser.obj
 0002:00002cf8       ??_C@_0CA@NOEFKENF@Name?7?7Read?7?7Write?7?7Flags?7?7Count@ 0000000180036cf8     clReflectCore:DatabaseTextSerialiser.obj
 0002:00002d18       ??_C@_0L@DMCCOKIJ@Containers@ 0000000180036d18     clReflectCore:DatabaseTextSerialiser.obj
 0002:00002d28       ??_C@_0BE@BEEGMPFE@Name?7?7Derived?7?7Base@ 0000000180036d28     clReflectCore:DatabaseTextSerialiser.obj
 0002:00002d40       ??_C@_0M@LCNOGNPK@Inheritance@ 0000000180036d40     clReflectCore:DatabaseTextSerialiser.obj
 0002:00002d50       ??_C@_0BD@CKJDPKMI@clReflect?5Database@ 0000000180036d50     clReflectCore:DatabaseTextSerialiser.obj
 0002:00002d64       ??_C@_01JLIPDDHJ@?3@       0000000180036d64     clReflectCore:DatabaseTextSerialiser.obj
 0002:00002d68       ??_C@_05DLBHCFPD@?9?9?9?9?5@ 0000000180036d68     clReflectCore:DatabaseTextSerialiser.obj
 0002:00002d70       ??_C@_01CLKCMJKC@?5@       0000000180036d70     clReflectCore:DatabaseTextSerialiser.obj
 0002:00002d74       ??_C@_04ECGLBLOI@?9?9?9?9@ 0000000180036d74     clReflectCore:DatabaseTextSerialiser.obj
 0002:00003aa8       ??_C@_0BB@JCEFLFJE@0123456789abcdef@ 0000000180037aa8     clReflectCore:FileUtils.obj
 0002:00003b60       __xmm@00000001000000600000000100000001 0000000180037b60     clReflectCore:DatabaseMetadata.obj
 0002:00003b70       __xmm@00000001000001000000000400000001 0000000180037b70     clReflectCore:DatabaseMetadata.obj
 0002:00003b80       __xmm@00000004000000000000000100000001 0000000180037b80     clReflectCore:DatabaseMetadata.obj
 0002:00003b90       __xmm@00000004000000580000000100000001 0000000180037b90     clReflectCore:DatabaseMetadata.obj
 0002:00003ba0       __xmm@00000004000000600000000100000001 0000000180037ba0     clReflectCore:DatabaseMetadata.obj
 0002:00003bb0       __xmm@000000040000007c0000000100000001 0000000180037bb0     clReflectCore:DatabaseMetadata.obj
 0002:00003bc0       __xmm@00000004000000880000000100000001 0000000180037bc0     clReflectCore:DatabaseMetadata.obj
 0002:00003bd0       __xmm@00000020000000600000000100000003 0000000180037bd0     clReflectCore:DatabaseMetadata.obj
 0002:00003be0       __xmm@00000028000000000000000100000002 0000000180037be0     clReflectCore:DatabaseMetadata.obj
 0002:00003bf0       __xmm@00000028000000300000000100000002 0000000180037bf0     clReflectCore:DatabaseMetadata.obj
 0002:00003c00       __xmm@00000028000000500000000100000002 0000000180037c00     clReflectCore:DatabaseMetadata.obj
 0002:00003c10       __xmm@00000028000000580000000100000002 0000000180037c10     clReflectCore:DatabaseMetadata.obj
 0002:00003c20       __xmm@00000028000000600000000100000002 0000000180037c20     clReflectCore:DatabaseMetadata.obj
 0002:00003c30       __xmm@00000028000000600000000400000002 0000000180037c30     clReflectCore:DatabaseMetadata.obj
 0002:00003cc0       ??_C@_1EC@JIJBPKFM@?$AAa?$AAp?$AAi?$AA?9?$AAm?$AAs?$AA?9?$AAw?$AAi?$AAn?$AA?9?$AAc?$AAo?$AAr?$AAe@ 0000000180037cc0     MSVCRT:thread_safe_statics.obj
 0002:00003d08       ??_C@_1BK@MGMFAEKH@?$AAk?$AAe?$AAr?$AAn?$AAe?$AAl?$AA3?$AA2?$AA?4?$AAd?$AAl?$AAl@ 0000000180037d08     MSVCRT:thread_safe_statics.obj
 0002:00003d28       ??_C@_0BM@HLJJNPAH@InitializeConditionVariable@ 0000000180037d28     MSVCRT:thread_safe_statics.obj
 0002:00003d48       ??_C@_0BJ@JEBJOJFJ@SleepConditionVariableCS@ 0000000180037d48     MSVCRT:thread_safe_statics.obj
 0002:00003d68       ??_C@_0BJ@PGPPEPCC@WakeAllConditionVariable@ 0000000180037d68     MSVCRT:thread_safe_statics.obj
 0002:00003d90       ??_7type_info@@6B@         0000000180037d90     MSVCRT:std_type_info_static.obj
 0002:00003d98       _pRawDllMain               0000000180037d98     MSVCRT:dll_dllmain.obj
 0002:00003d98       _pDefaultRawDllMain        0000000180037d98     MSVCRT:dll_dllmain.obj
 0002:00003db8       ??_7exception@std@@6B@     0000000180037db8     MSVCRT:throw_bad_alloc.obj
 0002:00003dc8       ??_C@_0BC@EOODALEL@Unknown?5exception@ 0000000180037dc8     MSVCRT:throw_bad_alloc.obj
 0002:00003de8       ??_7bad_alloc@std@@6B@     0000000180037de8     MSVCRT:throw_bad_alloc.obj
 0002:00003df8       ??_C@_0P@GHFPNOJB@bad?5allocation@ 0000000180037df8     MSVCRT:throw_bad_alloc.obj
 0002:00003e10       ??_7bad_array_new_length@std@@6B@ 0000000180037e10     MSVCRT:throw_bad_alloc.obj
 0002:00003e20       ??_C@_0BF@KINCDENJ@bad?5array?5new?5length@ 0000000180037e20     MSVCRT:throw_bad_alloc.obj
 0002:00003ea0       _load_config_used          0000000180037ea0     MSVCRT:loadcfg.obj
 0002:00003fa0       _tls_used                  0000000180037fa0     MSVCRT:tlssup.obj
 0002:00003fc8       ??_R4Attribute@cldb@@6B@   0000000180037fc8     DatabaseMerge.obj
 0002:00003ff0       ??_R3Attribute@cldb@@8     0000000180037ff0     DatabaseMerge.obj
 0002:00004008       ??_R2Attribute@cldb@@8     0000000180038008     DatabaseMerge.obj
 0002:00004020       ??_R1A@?0A@EA@Attribute@cldb@@8 0000000180038020     DatabaseMerge.obj
 0002:00004048       ??_R17?0A@EA@Primitive@cldb@@8 0000000180038048     DatabaseMerge.obj
 0002:00004070       ??_R3Primitive@cldb@@8     0000000180038070     DatabaseMerge.obj
 0002:00004088       ??_R2Primitive@cldb@@8     0000000180038088     DatabaseMerge.obj
 0002:00004098       ??_R1A@?0A@EA@Primitive@cldb@@8 0000000180038098     DatabaseMerge.obj
 0002:000040c0       ??_R4FlagAttribute@cldb@@6B@ 00000001800380c0     DatabaseMerge.obj
 0002:000040e8       ??_R3FlagAttribute@cldb@@8 00000001800380e8     DatabaseMerge.obj
 0002:00004100       ??_R2FlagAttribute@cldb@@8 0000000180038100     DatabaseMerge.obj
 0002:00004120       ??_R1A@?0A@EA@FlagAttribute@cldb@@8 0000000180038120     DatabaseMerge.obj
 0002:00004148       ??_R4IntAttribute@cldb@@6B@ 0000000180038148     DatabaseMerge.obj
 0002:00004170       ??_R3IntAttribute@cldb@@8  0000000180038170     DatabaseMerge.obj
 0002:00004188       ??_R2IntAttribute@cldb@@8  0000000180038188     DatabaseMerge.obj
 0002:000041a8       ??_R1A@?0A@EA@IntAttribute@cldb@@8 00000001800381a8     DatabaseMerge.obj
 0002:000041d0       ??_R4FloatAttribute@cldb@@6B@ 00000001800381d0     DatabaseMerge.obj
 0002:000041f8       ??_R3FloatAttribute@cldb@@8 00000001800381f8     DatabaseMerge.obj
 0002:00004210       ??_R2FloatAttribute@cldb@@8 0000000180038210     DatabaseMerge.obj
 0002:00004230       ??_R1A@?0A@EA@FloatAttribute@cldb@@8 0000000180038230     DatabaseMerge.obj
 0002:00004258       ??_R4PrimitiveAttribute@cldb@@6B@ 0000000180038258     DatabaseMerge.obj
 0002:00004280       ??_R3PrimitiveAttribute@cldb@@8 0000000180038280     DatabaseMerge.obj
 0002:00004298       ??_R2PrimitiveAttribute@cldb@@8 0000000180038298     DatabaseMerge.obj
 0002:000042b8       ??_R1A@?0A@EA@PrimitiveAttribute@cldb@@8 00000001800382b8     DatabaseMerge.obj
 0002:000042e0       ??_R4TextAttribute@cldb@@6B@ 00000001800382e0     DatabaseMerge.obj
 0002:00004308       ??_R3TextAttribute@cldb@@8 0000000180038308     DatabaseMerge.obj
 0002:00004320       ??_R2TextAttribute@cldb@@8 0000000180038320     DatabaseMerge.obj
 0002:00004340       ??_R1A@?0A@EA@TextAttribute@cldb@@8 0000000180038340     DatabaseMerge.obj
 0002:000044e0       ??_R4type_info@@6B@        00000001800384e0     MSVCRT:std_type_info_static.obj
 0002:00004508       ??_R3type_info@@8          0000000180038508     MSVCRT:std_type_info_static.obj
 0002:00004520       ??_R2type_info@@8          0000000180038520     MSVCRT:std_type_info_static.obj
 0002:00004530       ??_R1A@?0A@EA@type_info@@8 0000000180038530     MSVCRT:std_type_info_static.obj
 0002:00004558       ??_R4exception@std@@6B@    0000000180038558     MSVCRT:throw_bad_alloc.obj
 0002:00004580       ??_R3exception@std@@8      0000000180038580     MSVCRT:throw_bad_alloc.obj
 0002:00004598       ??_R2exception@std@@8      0000000180038598     MSVCRT:throw_bad_alloc.obj
 0002:000045a8       ??_R1A@?0A@EA@exception@std@@8 00000001800385a8     MSVCRT:throw_bad_alloc.obj
 0002:000045d0       ??_R4bad_alloc@std@@6B@    00000001800385d0     MSVCRT:throw_bad_alloc.obj
 0002:000045f8       ??_R3bad_alloc@std@@8      00000001800385f8     MSVCRT:throw_bad_alloc.obj
 0002:00004610       ??_R2bad_alloc@std@@8      0000000180038610     MSVCRT:throw_bad_alloc.obj
 0002:00004628       ??_R1A@?0A@EA@bad_alloc@std@@8 0000000180038628     MSVCRT:throw_bad_alloc.obj
 0002:00004650       ??_R4bad_array_new_length@std@@6B@ 0000000180038650     MSVCRT:throw_bad_alloc.obj
 0002:00004678       ??_R3bad_array_new_length@std@@8 0000000180038678     MSVCRT:throw_bad_alloc.obj
 0002:00004690       ??_R2bad_array_new_length@std@@8 0000000180038690     MSVCRT:throw_bad_alloc.obj
 0002:000046b0       ??_R1A@?0A@EA@bad_array_new_length@std@@8 00000001800386b0     MSVCRT:throw_bad_alloc.obj
 0002:00004a70       __rtc_iaa                  0000000180038a70     MSVCRT:initsect.obj
 0002:00004a78       __rtc_izz                  0000000180038a78     MSVCRT:initsect.obj
 0002:00004a80       __rtc_taa                  0000000180038a80     MSVCRT:initsect.obj
 0002:00004a88       __rtc_tzz                  0000000180038a88     MSVCRT:initsect.obj
 0002:00004a90       _tls_start                 0000000180038a90     MSVCRT:tlssup.obj
 0002:00004a94       _Init_thread_epoch         0000000180038a94     MSVCRT:thread_safe_statics.obj
 0002:00004a98       _tls_end                   0000000180038a98     MSVCRT:tlssup.obj
 0002:0000d508       _TI2?AVbad_alloc@std@@     0000000180041508     MSVCRT:throw_bad_alloc.obj
 0002:0000d528       _CTA2?AVbad_alloc@std@@    0000000180041528     MSVCRT:throw_bad_alloc.obj
 0002:0000d540       _CT??_R0?AVbad_alloc@std@@@8??0bad_alloc@std@@QEAA@AEBV01@@Z24 0000000180041540     MSVCRT:throw_bad_alloc.obj
 0002:0000d568       _CT??_R0?AVexception@std@@@8??0exception@std@@QEAA@AEBV01@@Z24 0000000180041568     MSVCRT:throw_bad_alloc.obj
 0002:0000d590       _TI3?AVbad_array_new_length@std@@ 0000000180041590     MSVCRT:throw_bad_alloc.obj
 0002:0000d5b0       _CTA3?AVbad_array_new_length@std@@ 00000001800415b0     MSVCRT:throw_bad_alloc.obj
 0002:0000d5d0       _CT??_R0?AVbad_array_new_length@std@@@8??0bad_array_new_length@std@@QEAA@AEBV01@@Z24 00000001800415d0     MSVCRT:throw_bad_alloc.obj
 0002:0000d648       __IMPORT_DESCRIPTOR_KERNEL32 0000000180041648     kernel32:KERNEL32.dll
 0002:0000d65c       __IMPORT_DESCRIPTOR_MSVCP140 000000018004165c     msvcprt:MSVCP140.dll
 0002:0000d670       __IMPORT_DESCRIPTOR_VCRUNTIME140 0000000180041670     vcruntime:VCRUNTIME140.dll
 0002:0000d684       __IMPORT_DESCRIPTOR_api-ms-win-crt-runtime-l1-1-0 0000000180041684     ucrt:api-ms-win-crt-runtime-l1-1-0.dll
 0002:0000d698       __IMPORT_DESCRIPTOR_api-ms-win-crt-stdio-l1-1-0 0000000180041698     ucrt:api-ms-win-crt-stdio-l1-1-0.dll
 0002:0000d6ac       __IMPORT_DESCRIPTOR_api-ms-win-crt-string-l1-1-0 00000001800416ac     ucrt:api-ms-win-crt-string-l1-1-0.dll
 0002:0000d6c0       __IMPORT_DESCRIPTOR_api-ms-win-crt-heap-l1-1-0 00000001800416c0     ucrt:api-ms-win-crt-heap-l1-1-0.dll
 0002:0000d6d4       __IMPORT_DESCRIPTOR_api-ms-win-crt-convert-l1-1-0 00000001800416d4     ucrt:api-ms-win-crt-convert-l1-1-0.dll
 0002:0000d6e8       __NULL_IMPORT_DESCRIPTOR   00000001800416e8     kernel32:KERNEL32.dll
 0003:00000000       ?__LINE__Var@?0???1?$map@PEBDUStreamSet@?A0x5d83d808@@U?$less@PEBD@std@@V?$allocator@U?$pair@QEBDUStreamSet@?A0x5d83d808@@@std@@@4@@std@@QEAA@XZ@4JA 0000000180043000     clReflectCore:Logging.obj
 0003:00000004       ?__LINE__Var@?0???1?$_Tree@V?$_Tmap_traits@PEBDUStreamSet@?A0x5d83d808@@U?$less@PEBD@std@@V?$allocator@U?$pair@QEBDUStreamSet@?A0x5d83d808@@@std@@@4@$0A@@std@@@std@@QEAA@XZ@4JA 0000000180043004     clReflectCore:Logging.obj
 0003:00000008       ?__LINE__Var@?0???0?$map@PEBDUStreamSet@?A0x5d83d808@@U?$less@PEBD@std@@V?$allocator@U?$pair@QEBDUStreamSet@?A0x5d83d808@@@std@@@4@@std@@QEAA@XZ@4JA 0000000180043008     clReflectCore:Logging.obj
 0003:0000000c       ?__LINE__Var@?0???1?$_Tree_comp_alloc@V?$_Tmap_traits@PEBDUStreamSet@?A0x5d83d808@@U?$less@PEBD@std@@V?$allocator@U?$pair@QEBDUStreamSet@?A0x5d83d808@@@std@@@4@$0A@@std@@@std@@QEAA@XZ@4JA 000000018004300c     clReflectCore:Logging.obj
 0003:00000010       ?__LINE__Var@?0??_Tidy@?$_Tree@V?$_Tmap_traits@PEBDUStreamSet@?A0x5d83d808@@U?$less@PEBD@std@@V?$allocator@U?$pair@QEBDUStreamSet@?A0x5d83d808@@@std@@@4@$0A@@std@@@std@@IEAAXXZ@4JA 0000000180043010     clReflectCore:Logging.obj
 0003:00000014       ?__LINE__Var@?0???0?$_Tree@V?$_Tmap_traits@PEBDUStreamSet@?A0x5d83d808@@U?$less@PEBD@std@@V?$allocator@U?$pair@QEBDUStreamSet@?A0x5d83d808@@@std@@@4@$0A@@std@@@std@@QEAA@AEBU?$less@PEBD@2@@Z@4JA 0000000180043014     clReflectCore:Logging.obj
 0003:00000018       ?__LINE__Var@?0??_Freeheadnode@?$_Tree_comp_alloc@V?$_Tmap_traits@PEBDUStreamSet@?A0x5d83d808@@U?$less@PEBD@std@@V?$allocator@U?$pair@QEBDUStreamSet@?A0x5d83d808@@@std@@@4@$0A@@std@@@std@@QEAAXPEAU?$_Tree_node@U?$pair@QEBDUStreamSet@?A0x5d83d808@@@std@@PEAX@3@@Z@4JA 0000000180043018     clReflectCore:Logging.obj
 0003:0000001c       ?__LINE__Var@?0???0?$_Tree_comp_alloc@V?$_Tmap_traits@PEBDUStreamSet@?A0x5d83d808@@U?$less@PEBD@std@@V?$allocator@U?$pair@QEBDUStreamSet@?A0x5d83d808@@@std@@@4@$0A@@std@@@std@@QEAA@AEBU?$less@PEBD@2@@Z@4JA 000000018004301c     clReflectCore:Logging.obj
 0003:00000020       ?__LINE__Var@?0??erase@?$_Tree@V?$_Tmap_traits@PEBDUStreamSet@?A0x5d83d808@@U?$less@PEBD@std@@V?$allocator@U?$pair@QEBDUStreamSet@?A0x5d83d808@@@std@@@4@$0A@@std@@@std@@QEAA?AV?$_Tree_iterator@V?$_Tree_val@U?$_Tree_simple_types@U?$pair@QEBDUStreamSet@?A0x5d83d808@@@std@@@std@@@std@@@3@V?$_Tree_const_iterator@V?$_Tree_val@U?$_Tree_simple_types@U?$pair@QEBDUStreamSet@?A0x5d83d808@@@std@@@std@@@std@@@3@0@Z@4JA 0000000180043020     clReflectCore:Logging.obj
 0003:00000024       ?__LINE__Var@?0???E?$_Tree_const_iterator@V?$_Tree_val@U?$_Tree_simple_types@U?$pair@QEBDUStreamSet@?A0x5d83d808@@@std@@@std@@@std@@@std@@QEAA?AV12@H@Z@4JA 0000000180043024     clReflectCore:Logging.obj
 0003:00000028       ?__LINE__Var@?0??_Construct@?$_Tree_comp_alloc@V?$_Tmap_traits@PEBDUStreamSet@?A0x5d83d808@@U?$less@PEBD@std@@V?$allocator@U?$pair@QEBDUStreamSet@?A0x5d83d808@@@std@@@4@$0A@@std@@@std@@QEAAXXZ@4JA 0000000180043028     clReflectCore:Logging.obj
 0003:0000002c       ?__LINE__Var@?0??clear@?$_Tree@V?$_Tmap_traits@PEBDUStreamSet@?A0x5d83d808@@U?$less@PEBD@std@@V?$allocator@U?$pair@QEBDUStreamSet@?A0x5d83d808@@@std@@@4@$0A@@std@@@std@@QEAAXXZ@4JA 000000018004302c     clReflectCore:Logging.obj
 0003:00000030       ?__LINE__Var@?0??erase@?$_Tree@V?$_Tmap_traits@PEBDUStreamSet@?A0x5d83d808@@U?$less@PEBD@std@@V?$allocator@U?$pair@QEBDUStreamSet@?A0x5d83d808@@@std@@@4@$0A@@std@@@std@@QEAA?AV?$_Tree_iterator@V?$_Tree_val@U?$_Tree_simple_types@U?$pair@QEBDUStreamSet@?A0x5d83d808@@@std@@@std@@@std@@@3@V?$_Tree_const_iterator@V?$_Tree_val@U?$_Tree_simple_types@U?$pair@QEBDUStreamSet@?A0x5d83d808@@@std@@@std@@@std@@@3@@Z@4JA 0000000180043030     clReflectCore:Logging.obj
 0003:00000034       ?__LINE__Var@?0??_Extract@?$_Tree_val@U?$_Tree_simple_types@U?$pair@QEBDUStreamSet@?A0x5d83d808@@@std@@@std@@@std@@QEAAPEAU?$_Tree_node@U?$pair@QEBDUStreamSet@?A0x5d83d808@@@std@@PEAX@3@V?$_Tree_const_iterator@V?$_Tree_val@U?$_Tree_simple_types@U?$pair@QEBDUStreamSet@?A0x5d83d808@@@std@@@std@@@std@@@3@@Z@4JA 0000000180043034     clReflectCore:Logging.obj
 0003:00000038       ?__LINE__Var@?0??_Buyheadnode@?$_Tree_comp_alloc@V?$_Tmap_traits@PEBDUStreamSet@?A0x5d83d808@@U?$less@PEBD@std@@V?$allocator@U?$pair@QEBDUStreamSet@?A0x5d83d808@@@std@@@4@$0A@@std@@@std@@QEAAPEAU?$_Tree_node@U?$pair@QEBDUStreamSet@?A0x5d83d808@@@std@@PEAX@3@XZ@4JA 0000000180043038     clReflectCore:Logging.obj
 0003:0000003c       ?__LINE__Var@?0??_Erase@?$_Tree@V?$_Tmap_traits@PEBDUStreamSet@?A0x5d83d808@@U?$less@PEBD@std@@V?$allocator@U?$pair@QEBDUStreamSet@?A0x5d83d808@@@std@@@4@$0A@@std@@@std@@IEAAXPEAU?$_Tree_node@U?$pair@QEBDUStreamSet@?A0x5d83d808@@@std@@PEAX@3@@Z@4JA 000000018004303c     clReflectCore:Logging.obj
 0003:00000040       ?__LINE__Var@?0???$?0AEBU?$less@PEBD@std@@U_Zero_then_variadic_args_t@1@@?$_Compressed_pair@U?$less@PEBD@std@@V?$_Compressed_pair@V?$allocator@U?$_Tree_node@U?$pair@QEBDUStreamSet@?A0x5d83d808@@@std@@PEAX@std@@@std@@V?$_Tree_val@U?$_Tree_simple_types@U?$pair@QEBDUStreamSet@?A0x5d83d808@@@std@@@std@@@2@$00@2@$00@std@@QEAA@U_One_then_variadic_args_t@2@AEBU?$less@PEBD@2@$$QEAU_Zero_then_variadic_args_t@2@@Z@4JA 0000000180043040     clReflectCore:Logging.obj
 0003:00000044       ?__LINE__Var@?0???$swap@DX@std@@YAXAEAD0@Z@4JA 0000000180043044     clReflectCore:Logging.obj
 0003:00000048       ?__LINE__Var@?0???$forward@AEBU?$less@PEBD@std@@@std@@YAAEBU?$less@PEBD@1@AEBU21@@Z@4JA 0000000180043048     clReflectCore:Logging.obj
 0003:0000004c       ?__LINE__Var@?0???$forward@U_Zero_then_variadic_args_t@std@@@std@@YA$$QEAU_Zero_then_variadic_args_t@1@AEAU21@@Z@4JA 000000018004304c     clReflectCore:Logging.obj
 0003:00000050       ?__LINE__Var@?0???$?0$$V@?$_Compressed_pair@V?$allocator@U?$_Tree_node@U?$pair@QEBDUStreamSet@?A0x5d83d808@@@std@@PEAX@std@@@std@@V?$_Tree_val@U?$_Tree_simple_types@U?$pair@QEBDUStreamSet@?A0x5d83d808@@@std@@@std@@@2@$00@std@@QEAA@U_Zero_then_variadic_args_t@2@@Z@4JA 0000000180043050     clReflectCore:Logging.obj
 0003:00000054       ?__LINE__Var@?0???$move@AEAD@std@@YA$$QEADAEAD@Z@4JA 0000000180043054     clReflectCore:Logging.obj
 0003:00000058       ?__LINE__Var@?0???0?$_Tree_val@U?$_Tree_simple_types@U?$pair@QEBDUStreamSet@?A0x5d83d808@@@std@@@std@@@std@@QEAA@XZ@4JA 0000000180043058     clReflectCore:Logging.obj
 0003:0000005c       ?__LINE__Var@?0???0?$allocator@U?$_Tree_node@U?$pair@QEBDUStreamSet@?A0x5d83d808@@@std@@PEAX@std@@@std@@QEAA@XZ@4JA 000000018004305c     clReflectCore:Logging.obj
 0003:000000b0       ?__LINE__Var@?0???1?$map@IV?$basic_string@DU?$char_traits@D@std@@V?$allocator@D@2@@std@@U?$less@I@2@V?$allocator@U?$pair@$$CBIV?$basic_string@DU?$char_traits@D@std@@V?$allocator@D@2@@std@@@std@@@2@@std@@QEAA@XZ@4JA 00000001800430b0     clReflectCore:DatabaseBinarySerialiser.obj
 0003:000000b4       ?__LINE__Var@?0???1?$_Tree@V?$_Tmap_traits@IV?$basic_string@DU?$char_traits@D@std@@V?$allocator@D@2@@std@@U?$less@I@2@V?$allocator@U?$pair@$$CBIV?$basic_string@DU?$char_traits@D@std@@V?$allocator@D@2@@std@@@std@@@2@$0A@@std@@@std@@QEAA@XZ@4JA 00000001800430b4     clReflectCore:DatabaseBinarySerialiser.obj
 0003:000000b8       ?__LINE__Var@?0???0?$map@IV?$basic_string@DU?$char_traits@D@std@@V?$allocator@D@2@@std@@U?$less@I@2@V?$allocator@U?$pair@$$CBIV?$basic_string@DU?$char_traits@D@std@@V?$allocator@D@2@@std@@@std@@@2@@std@@QEAA@XZ@4JA 00000001800430b8     clReflectCore:DatabaseBinarySerialiser.obj
 0003:000000bc       ?__LINE__Var@?0???1?$_Tree_comp_alloc@V?$_Tmap_traits@IV?$basic_string@DU?$char_traits@D@std@@V?$allocator@D@2@@std@@U?$less@I@2@V?$allocator@U?$pair@$$CBIV?$basic_string@DU?$char_traits@D@std@@V?$allocator@D@2@@std@@@std@@@2@$0A@@std@@@std@@QEAA@XZ@4JA 00000001800430bc     clReflectCore:DatabaseBinarySerialiser.obj
 0003:000000c0       ?__LINE__Var@?0??_Tidy@?$_Tree@V?$_Tmap_traits@IV?$basic_string@DU?$char_traits@D@std@@V?$allocator@D@2@@std@@U?$less@I@2@V?$allocator@U?$pair@$$CBIV?$basic_string@DU?$char_traits@D@std@@V?$allocator@D@2@@std@@@std@@@2@$0A@@std@@@std@@IEAAXXZ@4JA 00000001800430c0     clReflectCore:DatabaseBinarySerialiser.obj
 0003:000000c4       ?__LINE__Var@?0???0?$_Tree@V?$_Tmap_traits@IV?$basic_string@DU?$char_traits@D@std@@V?$allocator@D@2@@std@@U?$less@I@2@V?$allocator@U?$pair@$$CBIV?$basic_string@DU?$char_traits@D@std@@V?$allocator@D@2@@std@@@std@@@2@$0A@@std@@@std@@QEAA@AEBU?$less@I@2@@Z@4JA 00000001800430c4     clReflectCore:DatabaseBinarySerialiser.obj
 0003:000000c8       ?__LINE__Var@?0??_Freeheadnode@?$_Tree_comp_alloc@V?$_Tmap_traits@IV?$basic_string@DU?$char_traits@D@std@@V?$allocator@D@2@@std@@U?$less@I@2@V?$allocator@U?$pair@$$CBIV?$basic_string@DU?$char_traits@D@std@@V?$allocator@D@2@@std@@@std@@@2@$0A@@std@@@std@@QEAAXPEAU?$_Tree_node@U?$pair@$$CBIV?$basic_string@DU?$char_traits@D@std@@V?$allocator@D@2@@std@@@std@@PEAX@3@@Z@4JA 00000001800430c8     clReflectCore:DatabaseBinarySerialiser.obj
 0003:000000cc       ?__LINE__Var@?0???0?$_Tree_comp_alloc@V?$_Tmap_traits@IV?$basic_string@DU?$char_traits@D@std@@V?$allocator@D@2@@std@@U?$less@I@2@V?$allocator@U?$pair@$$CBIV?$basic_string@DU?$char_traits@D@std@@V?$allocator@D@2@@std@@@std@@@2@$0A@@std@@@std@@QEAA@AEBU?$less@I@2@@Z@4JA 00000001800430cc     clReflectCore:DatabaseBinarySerialiser.obj
 0003:000000d0       ?__LINE__Var@?0??erase@?$_Tree@V?$_Tmap_traits@IV?$basic_string@DU?$char_traits@D@std@@V?$allocator@D@2@@std@@U?$less@I@2@V?$allocator@U?$pair@$$CBIV?$basic_string@DU?$char_traits@D@std@@V?$allocator@D@2@@std@@@std@@@2@$0A@@std@@@std@@QEAA?AV?$_Tree_iterator@V?$_Tree_val@U?$_Tree_simple_types@U?$pair@$$CBIV?$basic_string@DU?$char_traits@D@std@@V?$allocator@D@2@@std@@@std@@@std@@@std@@@3@V?$_Tree_const_iterator@V?$_Tree_val@U?$_Tree_simple_types@U?$pair@$$CBIV?$basic_string@DU?$char_traits@D@std@@V?$allocator@D@2@@std@@@std@@@std@@@std@@@3@0@Z@4JA 00000001800430d0     clReflectCore:DatabaseBinarySerialiser.obj
 0003:000000d4       ?__LINE__Var@?0???E?$_Tree_const_iterator@V?$_Tree_val@U?$_Tree_simple_types@U?$pair@$$CBIV?$basic_string@DU?$char_traits@D@std@@V?$allocator@D@2@@std@@@std@@@std@@@std@@@std@@QEAA?AV12@H@Z@4JA 00000001800430d4     clReflectCore:DatabaseBinarySerialiser.obj
 0003:000000d8       ?__LINE__Var@?0??_Construct@?$_Tree_comp_alloc@V?$_Tmap_traits@IV?$basic_string@DU?$char_traits@D@std@@V?$allocator@D@2@@std@@U?$less@I@2@V?$allocator@U?$pair@$$CBIV?$basic_string@DU?$char_traits@D@std@@V?$allocator@D@2@@std@@@std@@@2@$0A@@std@@@std@@QEAAXXZ@4JA 00000001800430d8     clReflectCore:DatabaseBinarySerialiser.obj
 0003:000000dc       ?__LINE__Var@?0??erase@?$_Tree@V?$_Tmap_traits@IV?$basic_string@DU?$char_traits@D@std@@V?$allocator@D@2@@std@@U?$less@I@2@V?$allocator@U?$pair@$$CBIV?$basic_string@DU?$char_traits@D@std@@V?$allocator@D@2@@std@@@std@@@2@$0A@@std@@@std@@QEAA?AV?$_Tree_iterator@V?$_Tree_val@U?$_Tree_simple_types@U?$pair@$$CBIV?$basic_string@DU?$char_traits@D@std@@V?$allocator@D@2@@std@@@std@@@std@@@std@@@3@V?$_Tree_const_iterator@V?$_Tree_val@U?$_Tree_simple_types@U?$pair@$$CBIV?$basic_string@DU?$char_traits@D@std@@V?$allocator@D@2@@std@@@std@@@std@@@std@@@3@@Z@4JA 00000001800430dc     clReflectCore:DatabaseBinarySerialiser.obj
 0003:000000e0       ?__LINE__Var@?0??_Extract@?$_Tree_val@U?$_Tree_simple_types@U?$pair@$$CBIV?$basic_string@DU?$char_traits@D@std@@V?$allocator@D@2@@std@@@std@@@std@@@std@@QEAAPEAU?$_Tree_node@U?$pair@$$CBIV?$basic_string@DU?$char_traits@D@std@@V?$allocator@D@2@@std@@@std@@PEAX@3@V?$_Tree_const_iterator@V?$_Tree_val@U?$_Tree_simple_types@U?$pair@$$CBIV?$basic_string@DU?$char_traits@D@std@@V?$allocator@D@2@@std@@@std@@@std@@@std@@@3@@Z@4JA 00000001800430e0     clReflectCore:DatabaseBinarySerialiser.obj
 0003:000000e4       ?__LINE__Var@?0??_Buyheadnode@?$_Tree_comp_alloc@V?$_Tmap_traits@IV?$basic_string@DU?$char_traits@D@std@@V?$allocator@D@2@@std@@U?$less@I@2@V?$allocator@U?$pair@$$CBIV?$basic_string@DU?$char_traits@D@std@@V?$allocator@D@2@@std@@@std@@@2@$0A@@std@@@std@@QEAAPEAU?$_Tree_node@U?$pair@$$CBIV?$basic_string@DU?$char_traits@D@std@@V?$allocator@D@2@@std@@@std@@PEAX@3@XZ@4JA 00000001800430e4     clReflectCore:DatabaseBinarySerialiser.obj
 0003:000000e8       ?__LINE__Var@?0???$?0AEBU?$less@I@std@@U_Zero_then_variadic_args_t@1@@?$_Compressed_pair@U?$less@I@std@@V?$_Compressed_pair@V?$allocator@U?$_Tree_node@U?$pair@$$CBIV?$basic_string@DU?$char_traits@D@std@@V?$allocator@D@2@@std@@@std@@PEAX@std@@@std@@V?$_Tree_val@U?$_Tree_simple_types@U?$pair@$$CBIV?$basic_string@DU?$char_traits@D@std@@V?$allocator@D@2@@std@@@std@@@std@@@2@$00@2@$00@std@@QEAA@U_One_then_variadic_args_t@2@AEBU?$less@I@2@$$QEAU_Zero_then_variadic_args_t@2@@Z@4JA 00000001800430e8     clReflectCore:DatabaseBinarySerialiser.obj
 0003:000000ec       ?__LINE__Var@?0???$forward@AEBU?$less@I@std@@@std@@YAAEBU?$less@I@1@AEBU21@@Z@4JA 00000001800430ec     clReflectCore:DatabaseBinarySerialiser.obj
 0003:000000f0       ?__LINE__Var@?0???$?0$$V@?$_Compressed_pair@V?$allocator@U?$_Tree_node@U?$pair@$$CBIV?$basic_string@DU?$char_traits@D@std@@V?$allocator@D@2@@std@@@std@@PEAX@std@@@std@@V?$_Tree_val@U?$_Tree_simple_types@U?$pair@$$CBIV?$basic_string@DU?$char_traits@D@std@@V?$allocator@D@2@@std@@@std@@@std@@@2@$00@std@@QEAA@U_Zero_then_variadic_args_t@2@@Z@4JA 00000001800430f0     clReflectCore:DatabaseBinarySerialiser.obj
 0003:000000f4       ?__LINE__Var@?0???0?$_Tree_val@U?$_Tree_simple_types@U?$pair@$$CBIV?$basic_string@DU?$char_traits@D@std@@V?$allocator@D@2@@std@@@std@@@std@@@std@@QEAA@XZ@4JA 00000001800430f4     clReflectCore:DatabaseBinarySerialiser.obj
 0003:000000f8       ?__LINE__Var@?0???0?$allocator@U?$_Tree_node@U?$pair@$$CBIV?$basic_string@DU?$char_traits@D@std@@V?$allocator@D@2@@std@@@std@@PEAX@std@@@std@@QEAA@XZ@4JA 00000001800430f8     clReflectCore:DatabaseBinarySerialiser.obj
 0003:000000fc       ?__LINE__Var@?0??assign@?$char_traits@D@std@@SAXAEADAEBD@Z@4JA 00000001800430fc     clReflectCore:DatabaseMetadata.obj
 0003:00000100       ?__LINE__Var@?0???0Name@cldb@@QEAA@XZ@4JA 0000000180043100     clReflectCore:DatabaseMetadata.obj
 0003:00000104       ?__LINE__Var@?0???0Qualifier@cldb@@QEAA@XZ@4JA 0000000180043104     clReflectCore:DatabaseMetadata.obj
 0003:00000108       ?__LINE__Var@?0???0Primitive@cldb@@QEAA@XZ@4JA 0000000180043108     clReflectCore:DatabaseMetadata.obj
 0003:0000010c       ?__LINE__Var@?0???0Primitive@cldb@@QEAA@W4Kind@12@@Z@4JA 000000018004310c     clReflectCore:DatabaseMetadata.obj
 0003:00000110       ?__LINE__Var@?0???1Name@cldb@@QEAA@XZ@4JA 0000000180043110     clReflectCore:DatabaseMetadata.obj
 0003:00000114       ?__LINE__Var@?0???0Attribute@cldb@@QEAA@W4Kind@Primitive@2@@Z@4JA 0000000180043114     clReflectCore:DatabaseMetadata.obj
 0003:00000118       ?__LINE__Var@?0???1Attribute@cldb@@UEAA@XZ@4JA 0000000180043118     clReflectCore:DatabaseMetadata.obj
 0003:0000011c       ?__LINE__Var@?0???_GAttribute@cldb@@UEAAPEAXI@Z@4JA 000000018004311c     clReflectCore:DatabaseMetadata.obj
 0003:00000120       ?__LINE__Var@?0???1Primitive@cldb@@QEAA@XZ@4JA 0000000180043120     clReflectCore:DatabaseMetadata.obj
 0003:00000124       ?__LINE__Var@?0???0IntAttribute@cldb@@QEAA@XZ@4JA 0000000180043124     clReflectCore:DatabaseMetadata.obj
 0003:00000128       ?__LINE__Var@?0???1IntAttribute@cldb@@UEAA@XZ@4JA 0000000180043128     clReflectCore:DatabaseMetadata.obj
 0003:0000012c       ?__LINE__Var@?0???_GIntAttribute@cldb@@UEAAPEAXI@Z@4JA 000000018004312c     clReflectCore:DatabaseMetadata.obj
 0003:00000130       ?__LINE__Var@?0???0FloatAttribute@cldb@@QEAA@XZ@4JA 0000000180043130     clReflectCore:DatabaseMetadata.obj
 0003:00000134       ?__LINE__Var@?0???1FloatAttribute@cldb@@UEAA@XZ@4JA 0000000180043134     clReflectCore:DatabaseMetadata.obj
 0003:00000138       ?__LINE__Var@?0???_GFloatAttribute@cldb@@UEAAPEAXI@Z@4JA 0000000180043138     clReflectCore:DatabaseMetadata.obj
 0003:0000013c       ?__LINE__Var@?0???0PrimitiveAttribute@cldb@@QEAA@XZ@4JA 000000018004313c     clReflectCore:DatabaseMetadata.obj
 0003:00000140       ?__LINE__Var@?0???1PrimitiveAttribute@cldb@@UEAA@XZ@4JA 0000000180043140     clReflectCore:DatabaseMetadata.obj
 0003:00000144       ?__LINE__Var@?0???_GPrimitiveAttribute@cldb@@UEAAPEAXI@Z@4JA 0000000180043144     clReflectCore:DatabaseMetadata.obj
 0003:00000148       ?__LINE__Var@?0???0TextAttribute@cldb@@QEAA@XZ@4JA 0000000180043148     clReflectCore:DatabaseMetadata.obj
 0003:0000014c       ?__LINE__Var@?0???1TextAttribute@cldb@@UEAA@XZ@4JA 000000018004314c     clReflectCore:DatabaseMetadata.obj
 0003:00000150       ?__LINE__Var@?0???_GTextAttribute@cldb@@UEAAPEAXI@Z@4JA 0000000180043150     clReflectCore:DatabaseMetadata.obj
 0003:00000154       ?__LINE__Var@?0???0Type@cldb@@QEAA@XZ@4JA 0000000180043154     clReflectCore:DatabaseMetadata.obj
 0003:00000158       ?__LINE__Var@?0???0Type@cldb@@QEAA@W4Kind@Primitive@2@@Z@4JA 0000000180043158     clReflectCore:DatabaseMetadata.obj
 0003:0000015c       ?__LINE__Var@?0???0EnumConstant@cldb@@QEAA@XZ@4JA 000000018004315c     clReflectCore:DatabaseMetadata.obj
 0003:00000160       ?__LINE__Var@?0???0Enum@cldb@@QEAA@XZ@4JA 0000000180043160     clReflectCore:DatabaseMetadata.obj
 0003:00000164       ?__LINE__Var@?0???1Type@cldb@@QEAA@XZ@4JA 0000000180043164     clReflectCore:DatabaseMetadata.obj
 0003:00000168       ?__LINE__Var@?0???0Field@cldb@@QEAA@XZ@4JA 0000000180043168     clReflectCore:DatabaseMetadata.obj
 0003:0000016c       ?__LINE__Var@?0???0Function@cldb@@QEAA@XZ@4JA 000000018004316c     clReflectCore:DatabaseMetadata.obj
 0003:00000170       ?__LINE__Var@?0???0TemplateType@cldb@@QEAA@XZ@4JA 0000000180043170     clReflectCore:DatabaseMetadata.obj
 0003:00000174       ?__LINE__Var@?0???0Class@cldb@@QEAA@XZ@4JA 0000000180043174     clReflectCore:DatabaseMetadata.obj
 0003:00000178       ?__LINE__Var@?0???0ContainerInfo@cldb@@QEAA@XZ@4JA 0000000180043178     clReflectCore:DatabaseMetadata.obj
 0003:0000017c       ?__LINE__Var@?0???0TypeInheritance@cldb@@QEAA@XZ@4JA 000000018004317c     clReflectCore:DatabaseMetadata.obj
 0003:00000180       ?__LINE__Var@?0???1?$basic_string@DU?$char_traits@D@std@@V?$allocator@D@2@@std@@QEAA@XZ@4JA 0000000180043180     clReflectCore:DatabaseMetadata.obj
 0003:00000184       ?__LINE__Var@?0???0?$basic_string@DU?$char_traits@D@std@@V?$allocator@D@2@@std@@QEAA@XZ@4JA 0000000180043184     clReflectCore:DatabaseMetadata.obj
 0003:00000188       ?__LINE__Var@?0???1?$_String_alloc@U?$_String_base_types@DV?$allocator@D@std@@@std@@@std@@QEAA@XZ@4JA 0000000180043188     clReflectCore:DatabaseMetadata.obj
 0003:0000018c       ?__LINE__Var@?0???1?$_Compressed_pair@V?$allocator@D@std@@V?$_String_val@U?$_Simple_types@D@std@@@2@$00@std@@QEAA@XZ@4JA 000000018004318c     clReflectCore:DatabaseMetadata.obj
 0003:00000190       ?__LINE__Var@?0???1?$_String_val@U?$_Simple_types@D@std@@@std@@QEAA@XZ@4JA 0000000180043190     clReflectCore:DatabaseMetadata.obj
 0003:00000194       ?__LINE__Var@?0???1_Bxty@?$_String_val@U?$_Simple_types@D@std@@@std@@QEAA@XZ@4JA 0000000180043194     clReflectCore:DatabaseMetadata.obj
 0003:00000198       ?__LINE__Var@?0??_Large_string_engaged@?$_String_val@U?$_Simple_types@D@std@@@std@@QEBA_NXZ@4JA 0000000180043198     clReflectCore:DatabaseMetadata.obj
 0003:0000019c       ?__LINE__Var@?0??_Get_data@?$_String_alloc@U?$_String_base_types@DV?$allocator@D@std@@@std@@@std@@QEAAAEAV?$_String_val@U?$_Simple_types@D@std@@@3@XZ@4JA 000000018004319c     clReflectCore:DatabaseMetadata.obj
 0003:000001a0       ?__LINE__Var@?0??_Getal@?$_String_alloc@U?$_String_base_types@DV?$allocator@D@std@@@std@@@std@@QEAAAEAV?$allocator@D@3@XZ@4JA 00000001800431a0     clReflectCore:DatabaseMetadata.obj
 0003:000001a4       ?__LINE__Var@?0??_Orphan_all@?$_String_alloc@U?$_String_base_types@DV?$allocator@D@std@@@std@@@std@@QEAAXXZ@4JA 00000001800431a4     clReflectCore:DatabaseMetadata.obj
 0003:000001a8       ?__LINE__Var@?0???0?$_String_alloc@U?$_String_base_types@DV?$allocator@D@std@@@std@@@std@@QEAA@XZ@4JA 00000001800431a8     clReflectCore:DatabaseMetadata.obj
 0003:000001ac       ?__LINE__Var@?0??_Tidy_deallocate@?$basic_string@DU?$char_traits@D@std@@V?$allocator@D@2@@std@@QEAAXXZ@4JA 00000001800431ac     clReflectCore:DatabaseMetadata.obj
 0003:000001b0       ?__LINE__Var@?0??_Tidy_init@?$basic_string@DU?$char_traits@D@std@@V?$allocator@D@2@@std@@QEAAXXZ@4JA 00000001800431b0     clReflectCore:DatabaseMetadata.obj
 0003:000001b4       ?__LINE__Var@?0??deallocate@?$allocator@D@std@@QEAAXQEAD_K@Z@4JA 00000001800431b4     clReflectCore:DatabaseMetadata.obj
 0003:000001b8       ?__LINE__Var@?0??_Get_second@?$_Compressed_pair@V?$allocator@D@std@@V?$_String_val@U?$_Simple_types@D@std@@@2@$00@std@@QEAAAEAV?$_String_val@U?$_Simple_types@D@std@@@3@XZ@4JA 00000001800431b8     clReflectCore:DatabaseMetadata.obj
 0003:000001bc       ?__LINE__Var@?0??_Get_first@?$_Compressed_pair@V?$allocator@D@std@@V?$_String_val@U?$_Simple_types@D@std@@@2@$00@std@@QEAAAEAV?$allocator@D@3@XZ@4JA 00000001800431bc     clReflectCore:DatabaseMetadata.obj
 0003:000001c0       ?__LINE__Var@?0???$?0$$V@?$_Compressed_pair@V?$allocator@D@std@@V?$_String_val@U?$_Simple_types@D@std@@@2@$00@std@@QEAA@U_Zero_then_variadic_args_t@2@@Z@4JA 00000001800431c0     clReflectCore:DatabaseMetadata.obj
 0003:000001c4       ?__LINE__Var@?0???$addressof@PEAD@std@@YAPEAPEADAEAPEAD@Z@4JA 00000001800431c4     clReflectCore:DatabaseMetadata.obj
 0003:000001c8       ?__LINE__Var@?0???$destroy@PEAD@?$_Default_allocator_traits@V?$allocator@D@std@@@std@@SAXAEAV?$allocator@D@2@QEAPEAD@Z@4JA 00000001800431c8     clReflectCore:DatabaseMetadata.obj
 0003:000001cc       ?__LINE__Var@?0???0?$_String_val@U?$_Simple_types@D@std@@@std@@QEAA@XZ@4JA 00000001800431cc     clReflectCore:DatabaseMetadata.obj
 0003:000001d0       ?__LINE__Var@?0???0?$allocator@D@std@@QEAA@XZ@4JA 00000001800431d0     clReflectCore:DatabaseMetadata.obj
 0003:000001d4       ?__LINE__Var@?0???0_Bxty@?$_String_val@U?$_Simple_types@D@std@@@std@@QEAA@XZ@4JA 00000001800431d4     clReflectCore:DatabaseMetadata.obj
 0003:000001d8       ?__LINE__Var@?0???1Enum@cldb@@QEAA@XZ@4JA 00000001800431d8     clReflectCore:DatabaseMetadata.obj
 0003:000001dc       ?__LINE__Var@?0???1EnumConstant@cldb@@QEAA@XZ@4JA 00000001800431dc     clReflectCore:DatabaseMetadata.obj
 0003:000001e0       ?__LINE__Var@?0???1Field@cldb@@QEAA@XZ@4JA 00000001800431e0     clReflectCore:DatabaseMetadata.obj
 0003:000001e4       ?__LINE__Var@?0???1Function@cldb@@QEAA@XZ@4JA 00000001800431e4     clReflectCore:DatabaseMetadata.obj
 0003:000001e8       ?__LINE__Var@?0???1TemplateType@cldb@@QEAA@XZ@4JA 00000001800431e8     clReflectCore:DatabaseMetadata.obj
 0003:000001ec       ?__LINE__Var@?0???1Class@cldb@@QEAA@XZ@4JA 00000001800431ec     clReflectCore:DatabaseMetadata.obj
 0003:000001f0       ?__LINE__Var@?0???1ContainerInfo@cldb@@QEAA@XZ@4JA 00000001800431f0     clReflectCore:DatabaseMetadata.obj
 0003:000001f4       ?__LINE__Var@?0???1TypeInheritance@cldb@@QEAA@XZ@4JA 00000001800431f4     clReflectCore:DatabaseMetadata.obj
 0003:00000200       ?object@?$OffsetOfImpl@W4Kind@Primitive@cldb@@U23@@meta@cldb@@2UPrimitive@3@A 0000000180043200     clReflectCore:DatabaseMetadata.obj
 0003:00000260       ?object@?$OffsetOfImpl@UName@cldb@@UPrimitive@2@@meta@cldb@@2UPrimitive@3@A 0000000180043260     clReflectCore:DatabaseMetadata.obj
 0003:000002c0       ?object@?$OffsetOfImpl@KUType@cldb@@@meta@cldb@@2UType@3@A 00000001800432c0     clReflectCore:DatabaseMetadata.obj
 0003:00000320       ?object@?$OffsetOfImpl@W4Scoped@Enum@cldb@@U23@@meta@cldb@@2UEnum@3@A 0000000180043320     clReflectCore:DatabaseMetadata.obj
 0003:00000390       ?object@?$OffsetOfImpl@HUEnumConstant@cldb@@@meta@cldb@@2UEnumConstant@3@A 0000000180043390     clReflectCore:DatabaseMetadata.obj
 0003:000003f0       ?object@?$OffsetOfImpl@UName@cldb@@UField@2@@meta@cldb@@2UField@3@A 00000001800433f0     clReflectCore:DatabaseMetadata.obj
 0003:00000480       ?object@?$OffsetOfImpl@UQualifier@cldb@@UField@2@@meta@cldb@@2UField@3@A 0000000180043480     clReflectCore:DatabaseMetadata.obj
 0003:00000510       ?object@?$OffsetOfImpl@HUField@cldb@@@meta@cldb@@2UField@3@A 0000000180043510     clReflectCore:DatabaseMetadata.obj
 0003:000005a0       ?object@?$OffsetOfImpl@IUField@cldb@@@meta@cldb@@2UField@3@A 00000001800435a0     clReflectCore:DatabaseMetadata.obj
 0003:00000630       ?object@?$OffsetOfImpl@IUFunction@cldb@@@meta@cldb@@2UFunction@3@A 0000000180043630     clReflectCore:DatabaseMetadata.obj
 0003:000006a0       ?object@?$OffsetOfImpl@_NUClass@cldb@@@meta@cldb@@2UClass@3@A 00000001800436a0     clReflectCore:DatabaseMetadata.obj
 0003:00000710       ?object@?$OffsetOfImpl@HUIntAttribute@cldb@@@meta@cldb@@2UIntAttribute@3@A 0000000180043710     clReflectCore:DatabaseMetadata.obj
 0003:00000780       ?object@?$OffsetOfImpl@MUFloatAttribute@cldb@@@meta@cldb@@2UFloatAttribute@3@A 0000000180043780     clReflectCore:DatabaseMetadata.obj
 0003:000007f0       ?object@?$OffsetOfImpl@UName@cldb@@UPrimitiveAttribute@2@@meta@cldb@@2UPrimitiveAttribute@3@A 00000001800437f0     clReflectCore:DatabaseMetadata.obj
 0003:00000880       ?object@?$OffsetOfImpl@V?$basic_string@DU?$char_traits@D@std@@V?$allocator@D@2@@std@@UTextAttribute@cldb@@@meta@cldb@@2UTextAttribute@3@A 0000000180043880     clReflectCore:DatabaseMetadata.obj
 0003:00000900       ?object@?$OffsetOfImpl@UName@cldb@@UContainerInfo@2@@meta@cldb@@2UContainerInfo@3@A 0000000180043900     clReflectCore:DatabaseMetadata.obj
 0003:00000980       ?object@?$OffsetOfImpl@IUContainerInfo@cldb@@@meta@cldb@@2UContainerInfo@3@A 0000000180043980     clReflectCore:DatabaseMetadata.obj
 0003:00000a00       ?object@?$OffsetOfImpl@UName@cldb@@UTypeInheritance@2@@meta@cldb@@2UTypeInheritance@3@A 0000000180043a00     clReflectCore:DatabaseMetadata.obj
 0003:00000a78       _Init_global_epoch         0000000180043a78     MSVCRT:thread_safe_statics.obj
 0003:00000a80       __security_cookie_complement 0000000180043a80     MSVCRT:gs_cookie.obj
 0003:00000a88       __security_cookie          0000000180043a88     MSVCRT:gs_cookie.obj
 0003:00000a90       _fltused                   0000000180043a90     MSVCRT:fltused.obj
 0003:00000a94       __scrt_native_dllmain_reason 0000000180043a94     MSVCRT:utility.obj
 0003:00000a98       __isa_available            0000000180043a98     MSVCRT:cpu_disp.obj
 0003:00000a9c       __isa_enabled              0000000180043a9c     MSVCRT:cpu_disp.obj
 0003:00000aa0       __memcpy_nt_iters          0000000180043aa0     MSVCRT:cpu_disp.obj
 0003:00000ab0       __scrt_ucrt_dll_is_in_use  0000000180043ab0     MSVCRT:ucrt_stubs.obj
 0003:00000ab8       ??_R0?AUAttribute@cldb@@@8 0000000180043ab8     DatabaseMerge.obj
 0003:00000ae0       ??_R0?AUPrimitive@cldb@@@8 0000000180043ae0     DatabaseMerge.obj
 0003:00000b08       ??_R0?AUFlagAttribute@cldb@@@8 0000000180043b08     DatabaseMerge.obj
 0003:00000b38       ??_R0?AUIntAttribute@cldb@@@8 0000000180043b38     DatabaseMerge.obj
 0003:00000b60       ??_R0?AUFloatAttribute@cldb@@@8 0000000180043b60     DatabaseMerge.obj
 0003:00000b90       ??_R0?AUPrimitiveAttribute@cldb@@@8 0000000180043b90     DatabaseMerge.obj
 0003:00000bc0       ??_R0?AUTextAttribute@cldb@@@8 0000000180043bc0     DatabaseMerge.obj
 0003:00000c80       ??_R0?AVtype_info@@@8      0000000180043c80     MSVCRT:std_type_info_static.obj
 0003:00000ca0       ??_R0?AVbad_alloc@std@@@8  0000000180043ca0     MSVCRT:throw_bad_alloc.obj
 0003:00000cc8       ??_R0?AVexception@std@@@8  0000000180043cc8     MSVCRT:throw_bad_alloc.obj
 0003:00000cf0       ??_R0?AVbad_array_new_length@std@@@8 0000000180043cf0     MSVCRT:throw_bad_alloc.obj
 0003:00000d20       ?_OptionsStorage@?1??__local_stdio_printf_options@@9@4_KA 0000000180043d20     CodeGen.obj
 0003:00000d28       ?_OptionsStorage@?1??__local_stdio_scanf_options@@9@4_KA 0000000180043d28     CodeGen.obj
 0003:00000d40       ?g_FilenameMergingDB@?A0x243a9b7b@@3PEBDEB 0000000180043d40     DatabaseMerge.obj
 0003:00000d70       ?g_StreamMap@?A0x5d83d808@@3V?$map@PEBDUStreamSet@?A0x5d83d808@@U?$less@PEBD@std@@V?$allocator@U?$pair@QEBDUStreamSet@?A0x5d83d808@@@std@@@4@@std@@A 0000000180043d70     clReflectCore:Logging.obj
 0003:00000d88       ?g_TextAttributeMap@?A0xfa3cade9@@3V?$map@IV?$basic_string@DU?$char_traits@D@std@@V?$allocator@D@2@@std@@U?$less@I@2@V?$allocator@U?$pair@$$CBIV?$basic_string@DU?$char_traits@D@std@@V?$allocator@D@2@@std@@@std@@@2@@std@@A 0000000180043d88     clReflectCore:DatabaseBinarySerialiser.obj
 0003:00001dd0       ?object@?$OffsetOfImpl@$$BY03UName@cldb@@UTemplateType@2@@meta@cldb@@2UTemplateType@3@A 0000000180044dd0     clReflectCore:DatabaseMetadata.obj
 0003:00001ee0       ?object@?$OffsetOfImpl@$$BY03_NUTemplateType@cldb@@@meta@cldb@@2UTemplateType@3@A 0000000180044ee0     clReflectCore:DatabaseMetadata.obj
 0003:00002030       _tls_index                 0000000180045030     MSVCRT:tlssup.obj
 0003:00002038       __scrt_current_native_startup_state 0000000180045038     MSVCRT:utility.obj
 0003:00002040       __scrt_native_startup_lock 0000000180045040     MSVCRT:utility.obj
 0003:000025f0       __scrt_debugger_hook_flag  00000001800455f0     MSVCRT:utility_desktop.obj
 0003:00002600       ?__type_info_root_node@@3U__type_info_node@@A 0000000180045600     MSVCRT:tncleanup.obj
 0003:00002610       __favor                    0000000180045610     MSVCRT:cpu_disp.obj
 0003:00002618       __dyn_tls_init_callback    0000000180045618     <common>

 entry point at        0001:0002eb60

 Static symbols

 0002:fffcc000       $unwind$??4?$basic_string@DU?$char_traits@D@std@@V?$allocator@D@2@@std@@QEAAAEAV01@$$QEAV01@@Z 0000000180000000     clReflectCore:DatabaseBinarySerialiser.obj
 0002:fffcc000       $ip2state$??$Add@UTypeInheritance@cldb@@@Database@cldb@@QEAAXAEBUName@1@AEBUTypeInheritance@1@@Z 0000000180000000     clReflectCore:DatabaseTextSerialiser.obj
 0002:fffcc000       $cppxdata$??$Add@UTypeInheritance@cldb@@@Database@cldb@@QEAAXAEBUName@1@AEBUTypeInheritance@1@@Z 0000000180000000     clReflectCore:DatabaseTextSerialiser.obj
 0004:fffba000       $pdata$??$Add@UTypeInheritance@cldb@@@Database@cldb@@QEAAXAEBUName@1@AEBUTypeInheritance@1@@Z 0000000180000000     clReflectCore:DatabaseTextSerialiser.obj
 0002:fffcc000       $unwind$??$Add@UTypeInheritance@cldb@@@Database@cldb@@QEAAXAEBUName@1@AEBUTypeInheritance@1@@Z 0000000180000000     clReflectCore:DatabaseTextSerialiser.obj
 0002:fffcc000       $unwind$??$_Reallocate_for@V<lambda_66f57f934f28d61049862f64df852ff0>@@PEBD@?$basic_string@DU?$char_traits@D@std@@V?$allocator@D@2@@std@@QEAAAEAV01@_KV<lambda_66f57f934f28d61049862f64df852ff0>@@PEBD@Z 0000000180000000     clReflectCore:DatabaseTextSerialiser.obj
 0000:fffb4000       .debug$S                   0000000180000000     clReflectMerge.exp
 0004:fffba000       $pdata$??$_Reallocate_for@V<lambda_66f57f934f28d61049862f64df852ff0>@@PEBD@?$basic_string@DU?$char_traits@D@std@@V?$allocator@D@2@@std@@QEAAAEAV01@_KV<lambda_66f57f934f28d61049862f64df852ff0>@@PEBD@Z 0000000180000000     clReflectCore:DatabaseTextSerialiser.obj
 0000:fffb4000       .debug$S                   0000000180000000     kernel32:KERNEL32.dll
 0000:fffb4000       .debug$S                   0000000180000000     kernel32:KERNEL32.dll
 0000:fffb4000       .debug$S                   0000000180000000     kernel32:KERNEL32.dll
 0000:fffb4000       .debug$S                   0000000180000000     kernel32:KERNEL32.dll
 0000:fffb4000       .debug$S                   0000000180000000     kernel32:KERNEL32.dll
 0000:fffb4000       .debug$S                   0000000180000000     kernel32:KERNEL32.dll
 0000:fffb4000       .debug$S                   0000000180000000     kernel32:KERNEL32.dll
 0000:fffb4000       .debug$S                   0000000180000000     kernel32:KERNEL32.dll
 0000:fffb4000       .debug$S                   0000000180000000     kernel32:KERNEL32.dll
 0000:fffb4000       .debug$S                   0000000180000000     kernel32:KERNEL32.dll
 0000:fffb4000       .debug$S                   0000000180000000     kernel32:KERNEL32.dll
 0000:fffb4000       .debug$S                   0000000180000000     kernel32:KERNEL32.dll
 0000:fffb4000       .debug$S                   0000000180000000     kernel32:KERNEL32.dll
 0000:fffb4000       .debug$S                   0000000180000000     kernel32:KERNEL32.dll
 0000:fffb4000       .debug$S                   0000000180000000     kernel32:KERNEL32.dll
 0000:fffb4000       .debug$S                   0000000180000000     kernel32:KERNEL32.dll
 0000:fffb4000       .debug$S                   0000000180000000     kernel32:KERNEL32.dll
 0000:fffb4000       .debug$S                   0000000180000000     kernel32:KERNEL32.dll
 0000:fffb4000       .debug$S                   0000000180000000     kernel32:KERNEL32.dll
 0000:fffb4000       .debug$S                   0000000180000000     kernel32:KERNEL32.dll
 0000:fffb4000       .debug$S                   0000000180000000     kernel32:KERNEL32.dll
 0000:fffb4000       .debug$S                   0000000180000000     kernel32:KERNEL32.dll
 0000:fffb4000       .debug$S                   0000000180000000     kernel32:KERNEL32.dll
 0000:fffb4000       .debug$S                   0000000180000000     kernel32:KERNEL32.dll
 0000:fffb4000       .debug$S                   0000000180000000     kernel32:KERNEL32.dll
 0000:fffb4000       .debug$S                   0000000180000000     kernel32:KERNEL32.dll
 0000:fffb4000       .debug$S                   0000000180000000     kernel32:KERNEL32.dll
 0001:fffff000       ?dtor$0@?0???0Primitive@cldb@@QEAA@AEBU01@@Z@4HA 0000000180000000 f   clReflectCore:Database.obj
 0001:fffff000       ?dtor$0@?0???$Add@UType@cldb@@@Database@cldb@@QEAAXAEBUName@1@AEBUType@1@@Z@4HA 0000000180000000 f   clReflectCore:Database.obj
 0001:fffff000       ?catch$2@?0???$_Buynode@U?$pair@$$CBIUType@cldb@@@std@@@?$_Tree_comp_alloc@V?$_Tmap_traits@IUType@cldb@@U?$less@I@std@@V?$allocator@U?$pair@$$CBIUType@cldb@@@std@@@4@$00@std@@@std@@QEAAPEAU?$_Tree_node@U?$pair@$$CBIUType@cldb@@@std@@PEAX@1@$$QEAU?$pair@$$CBIUType@cldb@@@1@@Z@4HA 0000000180000000 f   clReflectCore:Database.obj
 0001:fffff000       ?catch$0@?0??_Buynode0@?$_Tree_comp_alloc@V?$_Tmap_traits@IUTypeInheritance@cldb@@U?$less@I@std@@V?$allocator@U?$pair@$$CBIUTypeInheritance@cldb@@@std@@@4@$0A@@std@@@std@@QEAAPEAU?$_Tree_node@U?$pair@$$CBIUTypeInheritance@cldb@@@std@@PEAX@2@XZ@4HA 0000000180000000 f   clReflectCore:Database.obj
 0001:fffff000       ?catch$0@?0??_Buynode0@?$_Tree_comp_alloc@V?$_Tmap_traits@IUType@cldb@@U?$less@I@std@@V?$allocator@U?$pair@$$CBIUType@cldb@@@std@@@4@$00@std@@@std@@QEAAPEAU?$_Tree_node@U?$pair@$$CBIUType@cldb@@@std@@PEAX@2@XZ@4HA 0000000180000000 f   clReflectCore:Database.obj
 0000:fffb4000       .debug$S                   0000000180000000     ucrt:api-ms-win-crt-runtime-l1-1-0.dll
 0000:fffb4000       .debug$S                   0000000180000000     ucrt:api-ms-win-crt-runtime-l1-1-0.dll
 0000:fffb4000       .debug$S                   0000000180000000     ucrt:api-ms-win-crt-runtime-l1-1-0.dll
 0000:fffb4000       .debug$S                   0000000180000000     ucrt:api-ms-win-crt-runtime-l1-1-0.dll
 0000:fffb4000       .debug$S                   0000000180000000     ucrt:api-ms-win-crt-runtime-l1-1-0.dll
 0000:fffb4000       .debug$S                   0000000180000000     ucrt:api-ms-win-crt-runtime-l1-1-0.dll
 0000:fffb4000       .debug$S                   0000000180000000     ucrt:api-ms-win-crt-runtime-l1-1-0.dll
 0000:fffb4000       .debug$S                   0000000180000000     ucrt:api-ms-win-crt-runtime-l1-1-0.dll
 0000:fffb4000       .debug$S                   0000000180000000     ucrt:api-ms-win-crt-runtime-l1-1-0.dll
 0000:fffb4000       .debug$S                   0000000180000000     ucrt:api-ms-win-crt-runtime-l1-1-0.dll
 0000:fffb4000       .debug$S                   0000000180000000     ucrt:api-ms-win-crt-runtime-l1-1-0.dll
 0000:fffb4000       .debug$S                   0000000180000000     ucrt:api-ms-win-crt-runtime-l1-1-0.dll
 0000:fffb4000       .debug$S                   0000000180000000     ucrt:api-ms-win-crt-heap-l1-1-0.dll
 0000:fffb4000       .debug$S                   0000000180000000     ucrt:api-ms-win-crt-string-l1-1-0.dll
 0000:fffb4000       .debug$S                   0000000180000000     ucrt:api-ms-win-crt-convert-l1-1-0.dll
 0000:fffb4000       .debug$S                   0000000180000000     ucrt:api-ms-win-crt-stdio-l1-1-0.dll
 0000:fffb4000       .debug$S                   0000000180000000     ucrt:api-ms-win-crt-stdio-l1-1-0.dll
 0000:fffb4000       .debug$S                   0000000180000000     ucrt:api-ms-win-crt-string-l1-1-0.dll
 0000:fffb4000       .debug$S                   0000000180000000     ucrt:api-ms-win-crt-string-l1-1-0.dll
 0000:fffb4000       .debug$S                   0000000180000000     ucrt:api-ms-win-crt-stdio-l1-1-0.dll
 0000:fffb4000       .debug$S                   0000000180000000     ucrt:api-ms-win-crt-stdio-l1-1-0.dll
 0000:fffb4000       .debug$S                   0000000180000000     ucrt:api-ms-win-crt-convert-l1-1-0.dll
 0000:fffb4000       .debug$S                   0000000180000000     ucrt:api-ms-win-crt-string-l1-1-0.dll
 0000:fffb4000       .debug$S                   0000000180000000     ucrt:api-ms-win-crt-stdio-l1-1-0.dll
 0000:fffb4000       .debug$S                   0000000180000000     ucrt:api-ms-win-crt-stdio-l1-1-0.dll
 0000:fffb4000       .debug$S                   0000000180000000     ucrt:api-ms-win-crt-stdio-l1-1-0.dll
 0000:fffb4000       .debug$S                   0000000180000000     ucrt:api-ms-win-crt-heap-l1-1-0.dll
 0000:fffb4000       .debug$S                   0000000180000000     ucrt:api-ms-win-crt-heap-l1-1-0.dll
 0000:fffb4000       .debug$S                   0000000180000000     ucrt:api-ms-win-crt-string-l1-1-0.dll
 0000:fffb4000       .debug$S                   0000000180000000     ucrt:api-ms-win-crt-stdio-l1-1-0.dll
 0000:fffb4000       .debug$S                   0000000180000000     ucrt:api-ms-win-crt-stdio-l1-1-0.dll
 0000:fffb4000       .debug$S                   0000000180000000     ucrt:api-ms-win-crt-stdio-l1-1-0.dll
 0000:fffb4000       .debug$S                   0000000180000000     ucrt:api-ms-win-crt-stdio-l1-1-0.dll
 0000:fffb4000       .debug$S                   0000000180000000     ucrt:api-ms-win-crt-stdio-l1-1-0.dll
 0000:fffb4000       .debug$S                   0000000180000000     ucrt:api-ms-win-crt-runtime-l1-1-0.dll
 0001:fffff000       ?catch$0@?0??_Buynode0@?$_Tree_comp_alloc@V?$_Tmap_traits@IUContainerInfo@cldb@@U?$less@I@std@@V?$allocator@U?$pair@$$CBIUContainerInfo@cldb@@@std@@@4@$0A@@std@@@std@@QEAAPEAU?$_Tree_node@U?$pair@$$CBIUContainerInfo@cldb@@@std@@PEAX@2@XZ@4HA 0000000180000000 f   clReflectCore:Database.obj
 0000:fffb4000       .debug$S                   0000000180000000     vcruntime:VCRUNTIME140.dll
 0000:fffb4000       .debug$S                   0000000180000000     vcruntime:VCRUNTIME140.dll
 0000:fffb4000       .debug$S                   0000000180000000     vcruntime:VCRUNTIME140.dll
 0000:fffb4000       .debug$S                   0000000180000000     vcruntime:VCRUNTIME140.dll
 0000:fffb4000       .debug$S                   0000000180000000     vcruntime:VCRUNTIME140.dll
 0000:fffb4000       .debug$S                   0000000180000000     vcruntime:VCRUNTIME140.dll
 0000:fffb4000       .debug$S                   0000000180000000     vcruntime:VCRUNTIME140.dll
 0000:fffb4000       .debug$S                   0000000180000000     vcruntime:VCRUNTIME140.dll
 0000:fffb4000       .debug$S                   0000000180000000     vcruntime:VCRUNTIME140.dll
 0000:fffb4000       .debug$S                   0000000180000000     vcruntime:VCRUNTIME140.dll
 0000:fffb4000       .debug$S                   0000000180000000     vcruntime:VCRUNTIME140.dll
 0000:fffb4000       .debug$S                   0000000180000000     vcruntime:VCRUNTIME140.dll
 0000:fffb4000       .debug$S                   0000000180000000     vcruntime:VCRUNTIME140.dll
 0000:fffb4000       .debug$S                   0000000180000000     vcruntime:VCRUNTIME140.dll
 0002:fffcc000       $unwind$??$Add@UType@cldb@@@Database@cldb@@QEAAXAEBUName@1@AEBUType@1@@Z 0000000180000000     clReflectCore:DatabaseTextSerialiser.obj
 0004:fffba000       $pdata$??$Add@UType@cldb@@@Database@cldb@@QEAAXAEBUName@1@AEBUType@1@@Z 0000000180000000     clReflectCore:DatabaseTextSerialiser.obj
 0002:fffcc000       $cppxdata$??$Add@UType@cldb@@@Database@cldb@@QEAAXAEBUName@1@AEBUType@1@@Z 0000000180000000     clReflectCore:DatabaseTextSerialiser.obj
 0002:fffcc000       $stateUnwindMap$??$Add@UType@cldb@@@Database@cldb@@QEAAXAEBUName@1@AEBUType@1@@Z 0000000180000000     clReflectCore:DatabaseTextSerialiser.obj
 0002:fffcc000       $ip2state$??$Add@UType@cldb@@@Database@cldb@@QEAAXAEBUName@1@AEBUType@1@@Z 0000000180000000     clReflectCore:DatabaseTextSerialiser.obj
 0002:fffcc000       $unwind$??$Add@UEnumConstant@cldb@@@Database@cldb@@QEAAXAEBUName@1@AEBUEnumConstant@1@@Z 0000000180000000     clReflectCore:DatabaseTextSerialiser.obj
 0004:fffba000       $pdata$??$Add@UEnumConstant@cldb@@@Database@cldb@@QEAAXAEBUName@1@AEBUEnumConstant@1@@Z 0000000180000000     clReflectCore:DatabaseTextSerialiser.obj
 0002:fffcc000       $cppxdata$??$Add@UEnumConstant@cldb@@@Database@cldb@@QEAAXAEBUName@1@AEBUEnumConstant@1@@Z 0000000180000000     clReflectCore:DatabaseTextSerialiser.obj
 0002:fffcc000       $stateUnwindMap$??$Add@UEnumConstant@cldb@@@Database@cldb@@QEAAXAEBUName@1@AEBUEnumConstant@1@@Z 0000000180000000     clReflectCore:DatabaseTextSerialiser.obj
 0002:fffcc000       $ip2state$??$Add@UEnumConstant@cldb@@@Database@cldb@@QEAAXAEBUName@1@AEBUEnumConstant@1@@Z 0000000180000000     clReflectCore:DatabaseTextSerialiser.obj
 0002:fffcc000       $unwind$??$Add@UEnum@cldb@@@Database@cldb@@QEAAXAEBUName@1@AEBUEnum@1@@Z 0000000180000000     clReflectCore:DatabaseTextSerialiser.obj
 0004:fffba000       $pdata$??$Add@UEnum@cldb@@@Database@cldb@@QEAAXAEBUName@1@AEBUEnum@1@@Z 0000000180000000     clReflectCore:DatabaseTextSerialiser.obj
 0002:fffcc000       $cppxdata$??$Add@UEnum@cldb@@@Database@cldb@@QEAAXAEBUName@1@AEBUEnum@1@@Z 0000000180000000     clReflectCore:DatabaseTextSerialiser.obj
 0002:fffcc000       $stateUnwindMap$??$Add@UEnum@cldb@@@Database@cldb@@QEAAXAEBUName@1@AEBUEnum@1@@Z 0000000180000000     clReflectCore:DatabaseTextSerialiser.obj
 0002:fffcc000       $ip2state$??$Add@UEnum@cldb@@@Database@cldb@@QEAAXAEBUName@1@AEBUEnum@1@@Z 0000000180000000     clReflectCore:DatabaseTextSerialiser.obj
 0002:fffcc000       $unwind$??$Add@UField@cldb@@@Database@cldb@@QEAAXAEBUName@1@AEBUField@1@@Z 0000000180000000     clReflectCore:DatabaseTextSerialiser.obj
 0004:fffba000       $pdata$??$Add@UField@cldb@@@Database@cldb@@QEAAXAEBUName@1@AEBUField@1@@Z 0000000180000000     clReflectCore:DatabaseTextSerialiser.obj
 0002:fffcc000       __guard_fids__guard_icall_checks_enforced 0000000180000000     MSVCRT:guard_support.obj
 0002:fffcc000       __guard_fids__             0000000180000000     MSVCRT:guard_support.obj
 0002:fffcc000       $cppxdata$??$Add@UField@cldb@@@Database@cldb@@QEAAXAEBUName@1@AEBUField@1@@Z 0000000180000000     clReflectCore:DatabaseTextSerialiser.obj
 0002:fffcc000       $stateUnwindMap$??$Add@UField@cldb@@@Database@cldb@@QEAAXAEBUName@1@AEBUField@1@@Z 0000000180000000     clReflectCore:DatabaseTextSerialiser.obj
 0002:fffcc000       $ip2state$??$Add@UField@cldb@@@Database@cldb@@QEAAXAEBUName@1@AEBUField@1@@Z 0000000180000000     clReflectCore:DatabaseTextSerialiser.obj
 0002:fffcc000       $unwind$??$Add@UFunction@cldb@@@Database@cldb@@QEAAXAEBUName@1@AEBUFunction@1@@Z 0000000180000000     clReflectCore:DatabaseTextSerialiser.obj
 0002:fffcc000       __guard_fids___scrt_set_unhandled_exception_filter 0000000180000000     MSVCRT:utility_desktop.obj
 0004:fffba000       $pdata$??$Add@UFunction@cldb@@@Database@cldb@@QEAAXAEBUName@1@AEBUFunction@1@@Z 0000000180000000     clReflectCore:DatabaseTextSerialiser.obj
 0002:fffcc000       $cppxdata$??$Add@UFunction@cldb@@@Database@cldb@@QEAAXAEBUName@1@AEBUFunction@1@@Z 0000000180000000     clReflectCore:DatabaseTextSerialiser.obj
 0002:fffcc000       $stateUnwindMap$??$Add@UFunction@cldb@@@Database@cldb@@QEAAXAEBUName@1@AEBUFunction@1@@Z 0000000180000000     clReflectCore:DatabaseTextSerialiser.obj
 0002:fffcc000       $ip2state$??$Add@UFunction@cldb@@@Database@cldb@@QEAAXAEBUName@1@AEBUFunction@1@@Z 0000000180000000     clReflectCore:DatabaseTextSerialiser.obj
 0002:fffcc000       __guard_fids__             0000000180000000     MSVCRT:throw_bad_alloc.obj
 0002:fffcc000       __guard_fids__             0000000180000000     MSVCRT:throw_bad_alloc.obj
 0002:fffcc000       __guard_fids__             0000000180000000     MSVCRT:throw_bad_alloc.obj
 0002:fffcc000       $unwind$??$Add@UClass@cldb@@@Database@cldb@@QEAAXAEBUName@1@AEBUClass@1@@Z 0000000180000000     clReflectCore:DatabaseTextSerialiser.obj
 0004:fffba000       $pdata$??$Add@UClass@cldb@@@Database@cldb@@QEAAXAEBUName@1@AEBUClass@1@@Z 0000000180000000     clReflectCore:DatabaseTextSerialiser.obj
 0002:fffcc000       $cppxdata$??$Add@UClass@cldb@@@Database@cldb@@QEAAXAEBUName@1@AEBUClass@1@@Z 0000000180000000     clReflectCore:DatabaseTextSerialiser.obj
 0002:fffcc000       $stateUnwindMap$??$Add@UClass@cldb@@@Database@cldb@@QEAAXAEBUName@1@AEBUClass@1@@Z 0000000180000000     clReflectCore:DatabaseTextSerialiser.obj
 0002:fffcc000       $ip2state$??$Add@UClass@cldb@@@Database@cldb@@QEAAXAEBUName@1@AEBUClass@1@@Z 0000000180000000     clReflectCore:DatabaseTextSerialiser.obj
 0002:fffcc000       $unwind$??$Add@UTemplateType@cldb@@@Database@cldb@@QEAAXAEBUName@1@AEBUTemplateType@1@@Z 0000000180000000     clReflectCore:DatabaseTextSerialiser.obj
 0004:fffba000       $pdata$??$Add@UTemplateType@cldb@@@Database@cldb@@QEAAXAEBUName@1@AEBUTemplateType@1@@Z 0000000180000000     clReflectCore:DatabaseTextSerialiser.obj
 0002:fffcc000       $cppxdata$??$Add@UTemplateType@cldb@@@Database@cldb@@QEAAXAEBUName@1@AEBUTemplateType@1@@Z 0000000180000000     clReflectCore:DatabaseTextSerialiser.obj
 0002:fffcc000       $stateUnwindMap$??$Add@UTemplateType@cldb@@@Database@cldb@@QEAAXAEBUName@1@AEBUTemplateType@1@@Z 0000000180000000     clReflectCore:DatabaseTextSerialiser.obj
 0002:fffcc000       $ip2state$??$Add@UTemplateType@cldb@@@Database@cldb@@QEAAXAEBUName@1@AEBUTemplateType@1@@Z 0000000180000000     clReflectCore:DatabaseTextSerialiser.obj
 0002:fffcc000       $unwind$??$Add@UIntAttribute@cldb@@@Database@cldb@@QEAAXAEBUName@1@AEBUIntAttribute@1@@Z 0000000180000000     clReflectCore:DatabaseTextSerialiser.obj
 0004:fffba000       $pdata$??$Add@UIntAttribute@cldb@@@Database@cldb@@QEAAXAEBUName@1@AEBUIntAttribute@1@@Z 0000000180000000     clReflectCore:DatabaseTextSerialiser.obj
 0002:fffcc000       $cppxdata$??$Add@UIntAttribute@cldb@@@Database@cldb@@QEAAXAEBUName@1@AEBUIntAttribute@1@@Z 0000000180000000     clReflectCore:DatabaseTextSerialiser.obj
 0002:fffcc000       $stateUnwindMap$??$Add@UIntAttribute@cldb@@@Database@cldb@@QEAAXAEBUName@1@AEBUIntAttribute@1@@Z 0000000180000000     clReflectCore:DatabaseTextSerialiser.obj
 0002:fffcc000       $ip2state$??$Add@UIntAttribute@cldb@@@Database@cldb@@QEAAXAEBUName@1@AEBUIntAttribute@1@@Z 0000000180000000     clReflectCore:DatabaseTextSerialiser.obj
 0002:fffcc000       $unwind$??$Add@UFloatAttribute@cldb@@@Database@cldb@@QEAAXAEBUName@1@AEBUFloatAttribute@1@@Z 0000000180000000     clReflectCore:DatabaseTextSerialiser.obj
 0004:fffba000       $pdata$??$Add@UFloatAttribute@cldb@@@Database@cldb@@QEAAXAEBUName@1@AEBUFloatAttribute@1@@Z 0000000180000000     clReflectCore:DatabaseTextSerialiser.obj
 0002:fffcc000       $cppxdata$??$Add@UFloatAttribute@cldb@@@Database@cldb@@QEAAXAEBUName@1@AEBUFloatAttribute@1@@Z 0000000180000000     clReflectCore:DatabaseTextSerialiser.obj
 0002:fffcc000       $stateUnwindMap$??$Add@UFloatAttribute@cldb@@@Database@cldb@@QEAAXAEBUName@1@AEBUFloatAttribute@1@@Z 0000000180000000     clReflectCore:DatabaseTextSerialiser.obj
 0002:fffcc000       $ip2state$??$Add@UFloatAttribute@cldb@@@Database@cldb@@QEAAXAEBUName@1@AEBUFloatAttribute@1@@Z 0000000180000000     clReflectCore:DatabaseTextSerialiser.obj
 0002:fffcc000       $unwind$??$Add@UPrimitiveAttribute@cldb@@@Database@cldb@@QEAAXAEBUName@1@AEBUPrimitiveAttribute@1@@Z 0000000180000000     clReflectCore:DatabaseTextSerialiser.obj
 0004:fffba000       $pdata$??$Add@UPrimitiveAttribute@cldb@@@Database@cldb@@QEAAXAEBUName@1@AEBUPrimitiveAttribute@1@@Z 0000000180000000     clReflectCore:DatabaseTextSerialiser.obj
 0002:fffcc000       $cppxdata$??$Add@UPrimitiveAttribute@cldb@@@Database@cldb@@QEAAXAEBUName@1@AEBUPrimitiveAttribute@1@@Z 0000000180000000     clReflectCore:DatabaseTextSerialiser.obj
 0002:fffcc000       $stateUnwindMap$??$Add@UPrimitiveAttribute@cldb@@@Database@cldb@@QEAAXAEBUName@1@AEBUPrimitiveAttribute@1@@Z 0000000180000000     clReflectCore:DatabaseTextSerialiser.obj
 0002:fffcc000       $ip2state$??$Add@UPrimitiveAttribute@cldb@@@Database@cldb@@QEAAXAEBUName@1@AEBUPrimitiveAttribute@1@@Z 0000000180000000     clReflectCore:DatabaseTextSerialiser.obj
 0002:fffcc000       $unwind$??$Add@UTextAttribute@cldb@@@Database@cldb@@QEAAXAEBUName@1@AEBUTextAttribute@1@@Z 0000000180000000     clReflectCore:DatabaseTextSerialiser.obj
 0004:fffba000       $pdata$??$Add@UTextAttribute@cldb@@@Database@cldb@@QEAAXAEBUName@1@AEBUTextAttribute@1@@Z 0000000180000000     clReflectCore:DatabaseTextSerialiser.obj
 0002:fffcc000       $cppxdata$??$Add@UTextAttribute@cldb@@@Database@cldb@@QEAAXAEBUName@1@AEBUTextAttribute@1@@Z 0000000180000000     clReflectCore:DatabaseTextSerialiser.obj
 0002:fffcc000       $stateUnwindMap$??$Add@UTextAttribute@cldb@@@Database@cldb@@QEAAXAEBUName@1@AEBUTextAttribute@1@@Z 0000000180000000     clReflectCore:DatabaseTextSerialiser.obj
 0002:fffcc000       $ip2state$??$Add@UTextAttribute@cldb@@@Database@cldb@@QEAAXAEBUName@1@AEBUTextAttribute@1@@Z 0000000180000000     clReflectCore:DatabaseTextSerialiser.obj
 0002:fffcc000       $unwind$??1?$pair@$$CBIUTemplateType@cldb@@@std@@QEAA@XZ 0000000180000000     clReflectCore:DatabaseTextSerialiser.obj
 0004:fffba000       $pdata$??1?$pair@$$CBIUTemplateType@cldb@@@std@@QEAA@XZ 0000000180000000     clReflectCore:DatabaseTextSerialiser.obj
 0002:fffcc000       $cppxdata$??1?$pair@$$CBIUTemplateType@cldb@@@std@@QEAA@XZ 0000000180000000     clReflectCore:DatabaseTextSerialiser.obj
 0002:fffcc000       $stateUnwindMap$??1?$pair@$$CBIUTemplateType@cldb@@@std@@QEAA@XZ 0000000180000000     clReflectCore:DatabaseTextSerialiser.obj
 0002:fffcc000       $ip2state$??1?$pair@$$CBIUTemplateType@cldb@@@std@@QEAA@XZ 0000000180000000     clReflectCore:DatabaseTextSerialiser.obj
 0002:fffcc000       $unwind$??0?$pair@$$CBIUTextAttribute@cldb@@@std@@QEAA@$$QEAU01@@Z 0000000180000000     clReflectCore:DatabaseTextSerialiser.obj
 0004:fffba000       $pdata$??0?$pair@$$CBIUTextAttribute@cldb@@@std@@QEAA@$$QEAU01@@Z 0000000180000000     clReflectCore:DatabaseTextSerialiser.obj
 0002:fffcc000       $unwind$?_Extract@?$_Tree_val@U?$_Tree_simple_types@U?$pair@$$CBIUName@cldb@@@std@@@std@@@std@@QEAAPEAU?$_Tree_node@U?$pair@$$CBIUName@cldb@@@std@@PEAX@2@V?$_Tree_const_iterator@V?$_Tree_val@U?$_Tree_simple_types@U?$pair@$$CBIUName@cldb@@@std@@@std@@@std@@@2@@Z 0000000180000000     clReflectCore:Database.obj
 0002:fffcc000       $cppxdata$??0?$pair@$$CBIUTextAttribute@cldb@@@std@@QEAA@$$QEAU01@@Z 0000000180000000     clReflectCore:DatabaseTextSerialiser.obj
 0002:fffcc000       $stateUnwindMap$??0?$pair@$$CBIUTextAttribute@cldb@@@std@@QEAA@$$QEAU01@@Z 0000000180000000     clReflectCore:DatabaseTextSerialiser.obj
 0002:fffcc000       $ip2state$??0?$pair@$$CBIUTextAttribute@cldb@@@std@@QEAA@$$QEAU01@@Z 0000000180000000     clReflectCore:DatabaseTextSerialiser.obj
 0004:fffba000       $pdata$?_Extract@?$_Tree_val@U?$_Tree_simple_types@U?$pair@$$CBIUName@cldb@@@std@@@std@@@std@@QEAAPEAU?$_Tree_node@U?$pair@$$CBIUName@cldb@@@std@@PEAX@2@V?$_Tree_const_iterator@V?$_Tree_val@U?$_Tree_simple_types@U?$pair@$$CBIUName@cldb@@@std@@@std@@@std@@@2@@Z 0000000180000000     clReflectCore:Database.obj
 0002:fffcc000       $unwind$?erase@?$_Tree@V?$_Tmap_traits@IUName@cldb@@U?$less@I@std@@V?$allocator@U?$pair@$$CBIUName@cldb@@@std@@@4@$0A@@std@@@std@@QEAA?AV?$_Tree_iterator@V?$_Tree_val@U?$_Tree_simple_types@U?$pair@$$CBIUName@cldb@@@std@@@std@@@std@@@2@V?$_Tree_const_iterator@V?$_Tree_val@U?$_Tree_simple_types@U?$pair@$$CBIUName@cldb@@@std@@@std@@@std@@@2@@Z 0000000180000000     clReflectCore:Database.obj
 0004:fffba000       $pdata$?erase@?$_Tree@V?$_Tmap_traits@IUName@cldb@@U?$less@I@std@@V?$allocator@U?$pair@$$CBIUName@cldb@@@std@@@4@$0A@@std@@@std@@QEAA?AV?$_Tree_iterator@V?$_Tree_val@U?$_Tree_simple_types@U?$pair@$$CBIUName@cldb@@@std@@@std@@@std@@@2@V?$_Tree_const_iterator@V?$_Tree_val@U?$_Tree_simple_types@U?$pair@$$CBIUName@cldb@@@std@@@std@@@std@@@2@@Z 0000000180000000     clReflectCore:Database.obj
 0002:fffcc000       $unwind$?erase@?$_Tree@V?$_Tmap_traits@IUName@cldb@@U?$less@I@std@@V?$allocator@U?$pair@$$CBIUName@cldb@@@std@@@4@$0A@@std@@@std@@QEAA?AV?$_Tree_iterator@V?$_Tree_val@U?$_Tree_simple_types@U?$pair@$$CBIUName@cldb@@@std@@@std@@@std@@@2@V?$_Tree_const_iterator@V?$_Tree_val@U?$_Tree_simple_types@U?$pair@$$CBIUName@cldb@@@std@@@std@@@std@@@2@0@Z 0000000180000000     clReflectCore:Database.obj
 0004:fffba000       $pdata$?erase@?$_Tree@V?$_Tmap_traits@IUName@cldb@@U?$less@I@std@@V?$allocator@U?$pair@$$CBIUName@cldb@@@std@@@4@$0A@@std@@@std@@QEAA?AV?$_Tree_iterator@V?$_Tree_val@U?$_Tree_simple_types@U?$pair@$$CBIUName@cldb@@@std@@@std@@@std@@@2@V?$_Tree_const_iterator@V?$_Tree_val@U?$_Tree_simple_types@U?$pair@$$CBIUName@cldb@@@std@@@std@@@std@@@2@0@Z 0000000180000000     clReflectCore:Database.obj
 0002:fffcc000       $unwind$?clear@?$_Tree@V?$_Tmap_traits@IUName@cldb@@U?$less@I@std@@V?$allocator@U?$pair@$$CBIUName@cldb@@@std@@@4@$0A@@std@@@std@@QEAAXXZ 0000000180000000     clReflectCore:Database.obj
 0004:fffba000       $pdata$?clear@?$_Tree@V?$_Tmap_traits@IUName@cldb@@U?$less@I@std@@V?$allocator@U?$pair@$$CBIUName@cldb@@@std@@@4@$0A@@std@@@std@@QEAAXXZ 0000000180000000     clReflectCore:Database.obj
 0002:fffcc000       $cppxdata$?clear@?$_Tree@V?$_Tmap_traits@IUName@cldb@@U?$less@I@std@@V?$allocator@U?$pair@$$CBIUName@cldb@@@std@@@4@$0A@@std@@@std@@QEAAXXZ 0000000180000000     clReflectCore:Database.obj
 0002:fffcc000       $ip2state$?clear@?$_Tree@V?$_Tmap_traits@IUName@cldb@@U?$less@I@std@@V?$allocator@U?$pair@$$CBIUName@cldb@@@std@@@4@$0A@@std@@@std@@QEAAXXZ 0000000180000000     clReflectCore:Database.obj
 0002:fffcc000       $unwind$?_Erase@?$_Tree@V?$_Tmap_traits@IUName@cldb@@U?$less@I@std@@V?$allocator@U?$pair@$$CBIUName@cldb@@@std@@@4@$0A@@std@@@std@@IEAAXPEAU?$_Tree_node@U?$pair@$$CBIUName@cldb@@@std@@PEAX@2@@Z 0000000180000000     clReflectCore:Database.obj
 0004:fffba000       $pdata$?_Erase@?$_Tree@V?$_Tmap_traits@IUName@cldb@@U?$less@I@std@@V?$allocator@U?$pair@$$CBIUName@cldb@@@std@@@4@$0A@@std@@@std@@IEAAXPEAU?$_Tree_node@U?$pair@$$CBIUName@cldb@@@std@@PEAX@2@@Z 0000000180000000     clReflectCore:Database.obj
 0002:fffcc000       $unwind$?deallocate@?$allocator@U?$_Tree_node@U?$pair@$$CBIUNamespace@cldb@@@std@@PEAX@std@@@std@@QEAAXQEAU?$_Tree_node@U?$pair@$$CBIUNamespace@cldb@@@std@@PEAX@2@_K@Z 0000000180000000     clReflectCore:Database.obj
 0004:fffba000       $pdata$?deallocate@?$allocator@U?$_Tree_node@U?$pair@$$CBIUNamespace@cldb@@@std@@PEAX@std@@@std@@QEAAXQEAU?$_Tree_node@U?$pair@$$CBIUNamespace@cldb@@@std@@PEAX@2@_K@Z 0000000180000000     clReflectCore:Database.obj
 0002:fffcc000       $unwind$?_Extract@?$_Tree_val@U?$_Tree_simple_types@U?$pair@$$CBIUNamespace@cldb@@@std@@@std@@@std@@QEAAPEAU?$_Tree_node@U?$pair@$$CBIUNamespace@cldb@@@std@@PEAX@2@V?$_Tree_const_iterator@V?$_Tree_val@U?$_Tree_simple_types@U?$pair@$$CBIUNamespace@cldb@@@std@@@std@@@std@@@2@@Z 0000000180000000     clReflectCore:Database.obj
 0004:fffba000       $pdata$?_Extract@?$_Tree_val@U?$_Tree_simple_types@U?$pair@$$CBIUNamespace@cldb@@@std@@@std@@@std@@QEAAPEAU?$_Tree_node@U?$pair@$$CBIUNamespace@cldb@@@std@@PEAX@2@V?$_Tree_const_iterator@V?$_Tree_val@U?$_Tree_simple_types@U?$pair@$$CBIUNamespace@cldb@@@std@@@std@@@std@@@2@@Z 0000000180000000     clReflectCore:Database.obj
 0002:fffcc000       $unwind$?erase@?$_Tree@V?$_Tmap_traits@IUNamespace@cldb@@U?$less@I@std@@V?$allocator@U?$pair@$$CBIUNamespace@cldb@@@std@@@4@$00@std@@@std@@QEAA?AV?$_Tree_iterator@V?$_Tree_val@U?$_Tree_simple_types@U?$pair@$$CBIUNamespace@cldb@@@std@@@std@@@std@@@2@V?$_Tree_const_iterator@V?$_Tree_val@U?$_Tree_simple_types@U?$pair@$$CBIUNamespace@cldb@@@std@@@std@@@std@@@2@@Z 0000000180000000     clReflectCore:Database.obj
 0004:fffba000       $pdata$?erase@?$_Tree@V?$_Tmap_traits@IUNamespace@cldb@@U?$less@I@std@@V?$allocator@U?$pair@$$CBIUNamespace@cldb@@@std@@@4@$00@std@@@std@@QEAA?AV?$_Tree_iterator@V?$_Tree_val@U?$_Tree_simple_types@U?$pair@$$CBIUNamespace@cldb@@@std@@@std@@@std@@@2@V?$_Tree_const_iterator@V?$_Tree_val@U?$_Tree_simple_types@U?$pair@$$CBIUNamespace@cldb@@@std@@@std@@@std@@@2@@Z 0000000180000000     clReflectCore:Database.obj
 0002:fffcc000       $unwind$?erase@?$_Tree@V?$_Tmap_traits@IUNamespace@cldb@@U?$less@I@std@@V?$allocator@U?$pair@$$CBIUNamespace@cldb@@@std@@@4@$00@std@@@std@@QEAA?AV?$_Tree_iterator@V?$_Tree_val@U?$_Tree_simple_types@U?$pair@$$CBIUNamespace@cldb@@@std@@@std@@@std@@@2@V?$_Tree_const_iterator@V?$_Tree_val@U?$_Tree_simple_types@U?$pair@$$CBIUNamespace@cldb@@@std@@@std@@@std@@@2@0@Z 0000000180000000     clReflectCore:Database.obj
 0004:fffba000       $pdata$?erase@?$_Tree@V?$_Tmap_traits@IUNamespace@cldb@@U?$less@I@std@@V?$allocator@U?$pair@$$CBIUNamespace@cldb@@@std@@@4@$00@std@@@std@@QEAA?AV?$_Tree_iterator@V?$_Tree_val@U?$_Tree_simple_types@U?$pair@$$CBIUNamespace@cldb@@@std@@@std@@@std@@@2@V?$_Tree_const_iterator@V?$_Tree_val@U?$_Tree_simple_types@U?$pair@$$CBIUNamespace@cldb@@@std@@@std@@@std@@@2@0@Z 0000000180000000     clReflectCore:Database.obj
 0002:fffcc000       $unwind$?clear@?$_Tree@V?$_Tmap_traits@IUNamespace@cldb@@U?$less@I@std@@V?$allocator@U?$pair@$$CBIUNamespace@cldb@@@std@@@4@$00@std@@@std@@QEAAXXZ 0000000180000000     clReflectCore:Database.obj
 0004:fffba000       $pdata$?clear@?$_Tree@V?$_Tmap_traits@IUNamespace@cldb@@U?$less@I@std@@V?$allocator@U?$pair@$$CBIUNamespace@cldb@@@std@@@4@$00@std@@@std@@QEAAXXZ 0000000180000000     clReflectCore:Database.obj
 0002:fffcc000       $cppxdata$?clear@?$_Tree@V?$_Tmap_traits@IUNamespace@cldb@@U?$less@I@std@@V?$allocator@U?$pair@$$CBIUNamespace@cldb@@@std@@@4@$00@std@@@std@@QEAAXXZ 0000000180000000     clReflectCore:Database.obj
 0002:fffcc000       $ip2state$?clear@?$_Tree@V?$_Tmap_traits@IUNamespace@cldb@@U?$less@I@std@@V?$allocator@U?$pair@$$CBIUNamespace@cldb@@@std@@@4@$00@std@@@std@@QEAAXXZ 0000000180000000     clReflectCore:Database.obj
 0002:fffcc000       $unwind$?_Erase@?$_Tree@V?$_Tmap_traits@IUNamespace@cldb@@U?$less@I@std@@V?$allocator@U?$pair@$$CBIUNamespace@cldb@@@std@@@4@$00@std@@@std@@IEAAXPEAU?$_Tree_node@U?$pair@$$CBIUNamespace@cldb@@@std@@PEAX@2@@Z 0000000180000000     clReflectCore:Database.obj
 0004:fffba000       $pdata$?_Erase@?$_Tree@V?$_Tmap_traits@IUNamespace@cldb@@U?$less@I@std@@V?$allocator@U?$pair@$$CBIUNamespace@cldb@@@std@@@4@$00@std@@@std@@IEAAXPEAU?$_Tree_node@U?$pair@$$CBIUNamespace@cldb@@@std@@PEAX@2@@Z 0000000180000000     clReflectCore:Database.obj
 0002:fffcc000       $unwind$?deallocate@?$allocator@U?$_Tree_node@U?$pair@$$CBIUType@cldb@@@std@@PEAX@std@@@std@@QEAAXQEAU?$_Tree_node@U?$pair@$$CBIUType@cldb@@@std@@PEAX@2@_K@Z 0000000180000000     clReflectCore:Database.obj
 0004:fffba000       $pdata$?deallocate@?$allocator@U?$_Tree_node@U?$pair@$$CBIUType@cldb@@@std@@PEAX@std@@@std@@QEAAXQEAU?$_Tree_node@U?$pair@$$CBIUType@cldb@@@std@@PEAX@2@_K@Z 0000000180000000     clReflectCore:Database.obj
 0002:fffcc000       $unwind$?_Buynode0@?$_Tree_comp_alloc@V?$_Tmap_traits@IUType@cldb@@U?$less@I@std@@V?$allocator@U?$pair@$$CBIUType@cldb@@@std@@@4@$00@std@@@std@@QEAAPEAU?$_Tree_node@U?$pair@$$CBIUType@cldb@@@std@@PEAX@2@XZ 0000000180000000     clReflectCore:Database.obj
 0004:fffba000       $pdata$?_Buynode0@?$_Tree_comp_alloc@V?$_Tmap_traits@IUType@cldb@@U?$less@I@std@@V?$allocator@U?$pair@$$CBIUType@cldb@@@std@@@4@$00@std@@@std@@QEAAPEAU?$_Tree_node@U?$pair@$$CBIUType@cldb@@@std@@PEAX@2@XZ 0000000180000000     clReflectCore:Database.obj
 0002:fffcc000       $cppxdata$?_Buynode0@?$_Tree_comp_alloc@V?$_Tmap_traits@IUType@cldb@@U?$less@I@std@@V?$allocator@U?$pair@$$CBIUType@cldb@@@std@@@4@$00@std@@@std@@QEAAPEAU?$_Tree_node@U?$pair@$$CBIUType@cldb@@@std@@PEAX@2@XZ 0000000180000000     clReflectCore:Database.obj
 0002:fffcc000       $stateUnwindMap$?_Buynode0@?$_Tree_comp_alloc@V?$_Tmap_traits@IUType@cldb@@U?$less@I@std@@V?$allocator@U?$pair@$$CBIUType@cldb@@@std@@@4@$00@std@@@std@@QEAAPEAU?$_Tree_node@U?$pair@$$CBIUType@cldb@@@std@@PEAX@2@XZ 0000000180000000     clReflectCore:Database.obj
 0002:fffcc000       $tryMap$?_Buynode0@?$_Tree_comp_alloc@V?$_Tmap_traits@IUType@cldb@@U?$less@I@std@@V?$allocator@U?$pair@$$CBIUType@cldb@@@std@@@4@$00@std@@@std@@QEAAPEAU?$_Tree_node@U?$pair@$$CBIUType@cldb@@@std@@PEAX@2@XZ 0000000180000000     clReflectCore:Database.obj
 0002:fffcc000       $handlerMap$0$?_Buynode0@?$_Tree_comp_alloc@V?$_Tmap_traits@IUType@cldb@@U?$less@I@std@@V?$allocator@U?$pair@$$CBIUType@cldb@@@std@@@4@$00@std@@@std@@QEAAPEAU?$_Tree_node@U?$pair@$$CBIUType@cldb@@@std@@PEAX@2@XZ 0000000180000000     clReflectCore:Database.obj
 0002:fffcc000       $ip2state$?_Buynode0@?$_Tree_comp_alloc@V?$_Tmap_traits@IUType@cldb@@U?$less@I@std@@V?$allocator@U?$pair@$$CBIUType@cldb@@@std@@@4@$00@std@@@std@@QEAAPEAU?$_Tree_node@U?$pair@$$CBIUType@cldb@@@std@@PEAX@2@XZ 0000000180000000     clReflectCore:Database.obj
 0002:fffcc000       $unwind$?catch$0@?0??_Buynode0@?$_Tree_comp_alloc@V?$_Tmap_traits@IUType@cldb@@U?$less@I@std@@V?$allocator@U?$pair@$$CBIUType@cldb@@@std@@@4@$00@std@@@std@@QEAAPEAU?$_Tree_node@U?$pair@$$CBIUType@cldb@@@std@@PEAX@2@XZ@4HA 0000000180000000     clReflectCore:Database.obj
 0004:fffba000       $pdata$?catch$0@?0??_Buynode0@?$_Tree_comp_alloc@V?$_Tmap_traits@IUType@cldb@@U?$less@I@std@@V?$allocator@U?$pair@$$CBIUType@cldb@@@std@@@4@$00@std@@@std@@QEAAPEAU?$_Tree_node@U?$pair@$$CBIUType@cldb@@@std@@PEAX@2@XZ@4HA 0000000180000000     clReflectCore:Database.obj
 0002:fffcc000       $unwind$?_Extract@?$_Tree_val@U?$_Tree_simple_types@U?$pair@$$CBIUType@cldb@@@std@@@std@@@std@@QEAAPEAU?$_Tree_node@U?$pair@$$CBIUType@cldb@@@std@@PEAX@2@V?$_Tree_const_iterator@V?$_Tree_val@U?$_Tree_simple_types@U?$pair@$$CBIUType@cldb@@@std@@@std@@@std@@@2@@Z 0000000180000000     clReflectCore:Database.obj
 0002:fffcc000       $unwind$??$?0$$CBIUTextAttribute@cldb@@$0A@@?$pair@$$CBIUTextAttribute@cldb@@@std@@QEAA@AEBIAEBUTextAttribute@cldb@@@Z 0000000180000000     clReflectCore:DatabaseTextSerialiser.obj
 0004:fffba000       $pdata$??$?0$$CBIUTextAttribute@cldb@@$0A@@?$pair@$$CBIUTextAttribute@cldb@@@std@@QEAA@AEBIAEBUTextAttribute@cldb@@@Z 0000000180000000     clReflectCore:DatabaseTextSerialiser.obj
 0002:fffcc000       $cppxdata$??$?0$$CBIUTextAttribute@cldb@@$0A@@?$pair@$$CBIUTextAttribute@cldb@@@std@@QEAA@AEBIAEBUTextAttribute@cldb@@@Z 0000000180000000     clReflectCore:DatabaseTextSerialiser.obj
 0004:fffba000       $pdata$?_Extract@?$_Tree_val@U?$_Tree_simple_types@U?$pair@$$CBIUType@cldb@@@std@@@std@@@std@@QEAAPEAU?$_Tree_node@U?$pair@$$CBIUType@cldb@@@std@@PEAX@2@V?$_Tree_const_iterator@V?$_Tree_val@U?$_Tree_simple_types@U?$pair@$$CBIUType@cldb@@@std@@@std@@@std@@@2@@Z 0000000180000000     clReflectCore:Database.obj
 0002:fffcc000       $unwind$?erase@?$_Tree@V?$_Tmap_traits@IUType@cldb@@U?$less@I@std@@V?$allocator@U?$pair@$$CBIUType@cldb@@@std@@@4@$00@std@@@std@@QEAA?AV?$_Tree_iterator@V?$_Tree_val@U?$_Tree_simple_types@U?$pair@$$CBIUType@cldb@@@std@@@std@@@std@@@2@V?$_Tree_const_iterator@V?$_Tree_val@U?$_Tree_simple_types@U?$pair@$$CBIUType@cldb@@@std@@@std@@@std@@@2@@Z 0000000180000000     clReflectCore:Database.obj
 0004:fffba000       $pdata$?erase@?$_Tree@V?$_Tmap_traits@IUType@cldb@@U?$less@I@std@@V?$allocator@U?$pair@$$CBIUType@cldb@@@std@@@4@$00@std@@@std@@QEAA?AV?$_Tree_iterator@V?$_Tree_val@U?$_Tree_simple_types@U?$pair@$$CBIUType@cldb@@@std@@@std@@@std@@@2@V?$_Tree_const_iterator@V?$_Tree_val@U?$_Tree_simple_types@U?$pair@$$CBIUType@cldb@@@std@@@std@@@std@@@2@@Z 0000000180000000     clReflectCore:Database.obj
 0002:fffcc000       $unwind$?erase@?$_Tree@V?$_Tmap_traits@IUType@cldb@@U?$less@I@std@@V?$allocator@U?$pair@$$CBIUType@cldb@@@std@@@4@$00@std@@@std@@QEAA?AV?$_Tree_iterator@V?$_Tree_val@U?$_Tree_simple_types@U?$pair@$$CBIUType@cldb@@@std@@@std@@@std@@@2@V?$_Tree_const_iterator@V?$_Tree_val@U?$_Tree_simple_types@U?$pair@$$CBIUType@cldb@@@std@@@std@@@std@@@2@0@Z 0000000180000000     clReflectCore:Database.obj
 0004:fffba000       $pdata$?erase@?$_Tree@V?$_Tmap_traits@IUType@cldb@@U?$less@I@std@@V?$allocator@U?$pair@$$CBIUType@cldb@@@std@@@4@$00@std@@@std@@QEAA?AV?$_Tree_iterator@V?$_Tree_val@U?$_Tree_simple_types@U?$pair@$$CBIUType@cldb@@@std@@@std@@@std@@@2@V?$_Tree_const_iterator@V?$_Tree_val@U?$_Tree_simple_types@U?$pair@$$CBIUType@cldb@@@std@@@std@@@std@@@2@0@Z 0000000180000000     clReflectCore:Database.obj
 0002:fffcc000       $unwind$?clear@?$_Tree@V?$_Tmap_traits@IUType@cldb@@U?$less@I@std@@V?$allocator@U?$pair@$$CBIUType@cldb@@@std@@@4@$00@std@@@std@@QEAAXXZ 0000000180000000     clReflectCore:Database.obj
 0004:fffba000       $pdata$?clear@?$_Tree@V?$_Tmap_traits@IUType@cldb@@U?$less@I@std@@V?$allocator@U?$pair@$$CBIUType@cldb@@@std@@@4@$00@std@@@std@@QEAAXXZ 0000000180000000     clReflectCore:Database.obj
 0002:fffcc000       __guard_fids_?dllmain_dispatch@@YAHQEAUHINSTANCE__@@KQEAX@Z 0000000180000000     MSVCRT:dll_dllmain.obj
 0002:fffcc000       $cppxdata$?clear@?$_Tree@V?$_Tmap_traits@IUType@cldb@@U?$less@I@std@@V?$allocator@U?$pair@$$CBIUType@cldb@@@std@@@4@$00@std@@@std@@QEAAXXZ 0000000180000000     clReflectCore:Database.obj
 0002:fffcc000       $ip2state$?clear@?$_Tree@V?$_Tmap_traits@IUType@cldb@@U?$less@I@std@@V?$allocator@U?$pair@$$CBIUType@cldb@@@std@@@4@$00@std@@@std@@QEAAXXZ 0000000180000000     clReflectCore:Database.obj
 0002:fffcc000       $unwind$?_Erase@?$_Tree@V?$_Tmap_traits@IUType@cldb@@U?$less@I@std@@V?$allocator@U?$pair@$$CBIUType@cldb@@@std@@@4@$00@std@@@std@@IEAAXPEAU?$_Tree_node@U?$pair@$$CBIUType@cldb@@@std@@PEAX@2@@Z 0000000180000000     clReflectCore:Database.obj
 0004:fffba000       $pdata$?_Erase@?$_Tree@V?$_Tmap_traits@IUType@cldb@@U?$less@I@std@@V?$allocator@U?$pair@$$CBIUType@cldb@@@std@@@4@$00@std@@@std@@IEAAXPEAU?$_Tree_node@U?$pair@$$CBIUType@cldb@@@std@@PEAX@2@@Z 0000000180000000     clReflectCore:Database.obj
 0002:fffcc000       $unwind$?deallocate@?$allocator@U?$_Tree_node@U?$pair@$$CBIUTemplate@cldb@@@std@@PEAX@std@@@std@@QEAAXQEAU?$_Tree_node@U?$pair@$$CBIUTemplate@cldb@@@std@@PEAX@2@_K@Z 0000000180000000     clReflectCore:Database.obj
 0004:fffba000       $pdata$?deallocate@?$allocator@U?$_Tree_node@U?$pair@$$CBIUTemplate@cldb@@@std@@PEAX@std@@@std@@QEAAXQEAU?$_Tree_node@U?$pair@$$CBIUTemplate@cldb@@@std@@PEAX@2@_K@Z 0000000180000000     clReflectCore:Database.obj
 0004:fffba000       $pdata$?_Erase@?$_Tree@V?$_Tmap_traits@IUTypeInheritance@cldb@@U?$less@I@std@@V?$allocator@U?$pair@$$CBIUTypeInheritance@cldb@@@std@@@4@$0A@@std@@@std@@IEAAXPEAU?$_Tree_node@U?$pair@$$CBIUTypeInheritance@cldb@@@std@@PEAX@2@@Z 0000000180000000     clReflectCore:Database.obj
 0002:fffcc000       $unwind$?_Extract@?$_Tree_val@U?$_Tree_simple_types@U?$pair@$$CBIUTemplate@cldb@@@std@@@std@@@std@@QEAAPEAU?$_Tree_node@U?$pair@$$CBIUTemplate@cldb@@@std@@PEAX@2@V?$_Tree_const_iterator@V?$_Tree_val@U?$_Tree_simple_types@U?$pair@$$CBIUTemplate@cldb@@@std@@@std@@@std@@@2@@Z 0000000180000000     clReflectCore:Database.obj
 0004:fffba000       $pdata$?_Extract@?$_Tree_val@U?$_Tree_simple_types@U?$pair@$$CBIUTemplate@cldb@@@std@@@std@@@std@@QEAAPEAU?$_Tree_node@U?$pair@$$CBIUTemplate@cldb@@@std@@PEAX@2@V?$_Tree_const_iterator@V?$_Tree_val@U?$_Tree_simple_types@U?$pair@$$CBIUTemplate@cldb@@@std@@@std@@@std@@@2@@Z 0000000180000000     clReflectCore:Database.obj
 0002:fffcc000       $unwind$?erase@?$_Tree@V?$_Tmap_traits@IUTemplate@cldb@@U?$less@I@std@@V?$allocator@U?$pair@$$CBIUTemplate@cldb@@@std@@@4@$00@std@@@std@@QEAA?AV?$_Tree_iterator@V?$_Tree_val@U?$_Tree_simple_types@U?$pair@$$CBIUTemplate@cldb@@@std@@@std@@@std@@@2@V?$_Tree_const_iterator@V?$_Tree_val@U?$_Tree_simple_types@U?$pair@$$CBIUTemplate@cldb@@@std@@@std@@@std@@@2@@Z 0000000180000000     clReflectCore:Database.obj
 0002:fffcc000       $stateUnwindMap$??$?0$$CBIUTextAttribute@cldb@@$0A@@?$pair@$$CBIUTextAttribute@cldb@@@std@@QEAA@AEBIAEBUTextAttribute@cldb@@@Z 0000000180000000     clReflectCore:DatabaseTextSerialiser.obj
 0002:fffcc000       $ip2state$??$?0$$CBIUTextAttribute@cldb@@$0A@@?$pair@$$CBIUTextAttribute@cldb@@@std@@QEAA@AEBIAEBUTextAttribute@cldb@@@Z 0000000180000000     clReflectCore:DatabaseTextSerialiser.obj
 0002:fffcc000       $unwind$??$_Insert_nohint@U?$pair@$$CBIUContainerInfo@cldb@@@std@@U_Not_a_node_tag@2@@?$_Tree@V?$_Tmap_traits@IUContainerInfo@cldb@@U?$less@I@std@@V?$allocator@U?$pair@$$CBIUContainerInfo@cldb@@@std@@@4@$0A@@std@@@std@@IEAA?AU?$pair@V?$_Tree_iterator@V?$_Tree_val@U?$_Tree_simple_types@U?$pair@$$CBIUContainerInfo@cldb@@@std@@@std@@@std@@@std@@_N@1@_N$$QEAU?$pair@$$CBIUContainerInfo@cldb@@@1@U_Not_a_node_tag@1@@Z 0000000180000000     clReflectCore:DatabaseTextSerialiser.obj
 0004:fffba000       $pdata$??$_Insert_nohint@U?$pair@$$CBIUContainerInfo@cldb@@@std@@U_Not_a_node_tag@2@@?$_Tree@V?$_Tmap_traits@IUContainerInfo@cldb@@U?$less@I@std@@V?$allocator@U?$pair@$$CBIUContainerInfo@cldb@@@std@@@4@$0A@@std@@@std@@IEAA?AU?$pair@V?$_Tree_iterator@V?$_Tree_val@U?$_Tree_simple_types@U?$pair@$$CBIUContainerInfo@cldb@@@std@@@std@@@std@@@std@@_N@1@_N$$QEAU?$pair@$$CBIUContainerInfo@cldb@@@1@U_Not_a_node_tag@1@@Z 0000000180000000     clReflectCore:DatabaseTextSerialiser.obj
 0002:fffcc000       $cppxdata$??$_Insert_nohint@U?$pair@$$CBIUContainerInfo@cldb@@@std@@U_Not_a_node_tag@2@@?$_Tree@V?$_Tmap_traits@IUContainerInfo@cldb@@U?$less@I@std@@V?$allocator@U?$pair@$$CBIUContainerInfo@cldb@@@std@@@4@$0A@@std@@@std@@IEAA?AU?$pair@V?$_Tree_iterator@V?$_Tree_val@U?$_Tree_simple_types@U?$pair@$$CBIUContainerInfo@cldb@@@std@@@std@@@std@@@std@@_N@1@_N$$QEAU?$pair@$$CBIUContainerInfo@cldb@@@1@U_Not_a_node_tag@1@@Z 0000000180000000     clReflectCore:DatabaseTextSerialiser.obj
 0002:fffcc000       $stateUnwindMap$??$_Insert_nohint@U?$pair@$$CBIUContainerInfo@cldb@@@std@@U_Not_a_node_tag@2@@?$_Tree@V?$_Tmap_traits@IUContainerInfo@cldb@@U?$less@I@std@@V?$allocator@U?$pair@$$CBIUContainerInfo@cldb@@@std@@@4@$0A@@std@@@std@@IEAA?AU?$pair@V?$_Tree_iterator@V?$_Tree_val@U?$_Tree_simple_types@U?$pair@$$CBIUContainerInfo@cldb@@@std@@@std@@@std@@@std@@_N@1@_N$$QEAU?$pair@$$CBIUContainerInfo@cldb@@@1@U_Not_a_node_tag@1@@Z 0000000180000000     clReflectCore:DatabaseTextSerialiser.obj
 0002:fffcc000       $tryMap$??$_Insert_nohint@U?$pair@$$CBIUContainerInfo@cldb@@@std@@U_Not_a_node_tag@2@@?$_Tree@V?$_Tmap_traits@IUContainerInfo@cldb@@U?$less@I@std@@V?$allocator@U?$pair@$$CBIUContainerInfo@cldb@@@std@@@4@$0A@@std@@@std@@IEAA?AU?$pair@V?$_Tree_iterator@V?$_Tree_val@U?$_Tree_simple_types@U?$pair@$$CBIUContainerInfo@cldb@@@std@@@std@@@std@@@std@@_N@1@_N$$QEAU?$pair@$$CBIUContainerInfo@cldb@@@1@U_Not_a_node_tag@1@@Z 0000000180000000     clReflectCore:DatabaseTextSerialiser.obj
 0002:fffcc000       $handlerMap$0$??$_Insert_nohint@U?$pair@$$CBIUContainerInfo@cldb@@@std@@U_Not_a_node_tag@2@@?$_Tree@V?$_Tmap_traits@IUContainerInfo@cldb@@U?$less@I@std@@V?$allocator@U?$pair@$$CBIUContainerInfo@cldb@@@std@@@4@$0A@@std@@@std@@IEAA?AU?$pair@V?$_Tree_iterator@V?$_Tree_val@U?$_Tree_simple_types@U?$pair@$$CBIUContainerInfo@cldb@@@std@@@std@@@std@@@std@@_N@1@_N$$QEAU?$pair@$$CBIUContainerInfo@cldb@@@1@U_Not_a_node_tag@1@@Z 0000000180000000     clReflectCore:DatabaseTextSerialiser.obj
 0002:fffcc000       __guard_fids__             0000000180000000     MSVCRT:std_type_info_static.obj
 0004:fffba000       $pdata$?erase@?$_Tree@V?$_Tmap_traits@IUTemplate@cldb@@U?$less@I@std@@V?$allocator@U?$pair@$$CBIUTemplate@cldb@@@std@@@4@$00@std@@@std@@QEAA?AV?$_Tree_iterator@V?$_Tree_val@U?$_Tree_simple_types@U?$pair@$$CBIUTemplate@cldb@@@std@@@std@@@std@@@2@V?$_Tree_const_iterator@V?$_Tree_val@U?$_Tree_simple_types@U?$pair@$$CBIUTemplate@cldb@@@std@@@std@@@std@@@2@@Z 0000000180000000     clReflectCore:Database.obj
 0002:fffcc000       $unwind$?erase@?$_Tree@V?$_Tmap_traits@IUTemplate@cldb@@U?$less@I@std@@V?$allocator@U?$pair@$$CBIUTemplate@cldb@@@std@@@4@$00@std@@@std@@QEAA?AV?$_Tree_iterator@V?$_Tree_val@U?$_Tree_simple_types@U?$pair@$$CBIUTemplate@cldb@@@std@@@std@@@std@@@2@V?$_Tree_const_iterator@V?$_Tree_val@U?$_Tree_simple_types@U?$pair@$$CBIUTemplate@cldb@@@std@@@std@@@std@@@2@0@Z 0000000180000000     clReflectCore:Database.obj
 0004:fffba000       $pdata$?erase@?$_Tree@V?$_Tmap_traits@IUTemplate@cldb@@U?$less@I@std@@V?$allocator@U?$pair@$$CBIUTemplate@cldb@@@std@@@4@$00@std@@@std@@QEAA?AV?$_Tree_iterator@V?$_Tree_val@U?$_Tree_simple_types@U?$pair@$$CBIUTemplate@cldb@@@std@@@std@@@std@@@2@V?$_Tree_const_iterator@V?$_Tree_val@U?$_Tree_simple_types@U?$pair@$$CBIUTemplate@cldb@@@std@@@std@@@std@@@2@0@Z 0000000180000000     clReflectCore:Database.obj
 0002:fffcc000       $unwind$?clear@?$_Tree@V?$_Tmap_traits@IUTemplate@cldb@@U?$less@I@std@@V?$allocator@U?$pair@$$CBIUTemplate@cldb@@@std@@@4@$00@std@@@std@@QEAAXXZ 0000000180000000     clReflectCore:Database.obj
 0004:fffba000       $pdata$?clear@?$_Tree@V?$_Tmap_traits@IUTemplate@cldb@@U?$less@I@std@@V?$allocator@U?$pair@$$CBIUTemplate@cldb@@@std@@@4@$00@std@@@std@@QEAAXXZ 0000000180000000     clReflectCore:Database.obj
 0002:fffcc000       $cppxdata$?clear@?$_Tree@V?$_Tmap_traits@IUTemplate@cldb@@U?$less@I@std@@V?$allocator@U?$pair@$$CBIUTemplate@cldb@@@std@@@4@$00@std@@@std@@QEAAXXZ 0000000180000000     clReflectCore:Database.obj
 0002:fffcc000       $ip2state$?clear@?$_Tree@V?$_Tmap_traits@IUTemplate@cldb@@U?$less@I@std@@V?$allocator@U?$pair@$$CBIUTemplate@cldb@@@std@@@4@$00@std@@@std@@QEAAXXZ 0000000180000000     clReflectCore:Database.obj
 0002:fffcc000       $unwind$?_Erase@?$_Tree@V?$_Tmap_traits@IUTemplate@cldb@@U?$less@I@std@@V?$allocator@U?$pair@$$CBIUTemplate@cldb@@@std@@@4@$00@std@@@std@@IEAAXPEAU?$_Tree_node@U?$pair@$$CBIUTemplate@cldb@@@std@@PEAX@2@@Z 0000000180000000     clReflectCore:Database.obj
 0004:fffba000       $pdata$?_Erase@?$_Tree@V?$_Tmap_traits@IUTemplate@cldb@@U?$less@I@std@@V?$allocator@U?$pair@$$CBIUTemplate@cldb@@@std@@@4@$00@std@@@std@@IEAAXPEAU?$_Tree_node@U?$pair@$$CBIUTemplate@cldb@@@std@@PEAX@2@@Z 0000000180000000     clReflectCore:Database.obj
 0002:fffcc000       $unwind$?_Erase@?$_Tree@V?$_Tmap_traits@IUTypeInheritance@cldb@@U?$less@I@std@@V?$allocator@U?$pair@$$CBIUTypeInheritance@cldb@@@std@@@4@$0A@@std@@@std@@IEAAXPEAU?$_Tree_node@U?$pair@$$CBIUTypeInheritance@cldb@@@std@@PEAX@2@@Z 0000000180000000     clReflectCore:Database.obj
 0002:fffcc000       $unwind$?deallocate@?$allocator@U?$_Tree_node@U?$pair@$$CBIUTemplateType@cldb@@@std@@PEAX@std@@@std@@QEAAXQEAU?$_Tree_node@U?$pair@$$CBIUTemplateType@cldb@@@std@@PEAX@2@_K@Z 0000000180000000     clReflectCore:Database.obj
 0004:fffba000       $pdata$?deallocate@?$allocator@U?$_Tree_node@U?$pair@$$CBIUTemplateType@cldb@@@std@@PEAX@std@@@std@@QEAAXQEAU?$_Tree_node@U?$pair@$$CBIUTemplateType@cldb@@@std@@PEAX@2@_K@Z 0000000180000000     clReflectCore:Database.obj
 0002:fffcc000       $ip2state$??$_Insert_nohint@U?$pair@$$CBIUContainerInfo@cldb@@@std@@U_Not_a_node_tag@2@@?$_Tree@V?$_Tmap_traits@IUContainerInfo@cldb@@U?$less@I@std@@V?$allocator@U?$pair@$$CBIUContainerInfo@cldb@@@std@@@4@$0A@@std@@@std@@IEAA?AU?$pair@V?$_Tree_iterator@V?$_Tree_val@U?$_Tree_simple_types@U?$pair@$$CBIUContainerInfo@cldb@@@std@@@std@@@std@@@std@@_N@1@_N$$QEAU?$pair@$$CBIUContainerInfo@cldb@@@1@U_Not_a_node_tag@1@@Z 0000000180000000     clReflectCore:DatabaseTextSerialiser.obj
 0002:fffcc000       $unwind$?catch$0@?0???$_Insert_nohint@U?$pair@$$CBIUContainerInfo@cldb@@@std@@U_Not_a_node_tag@2@@?$_Tree@V?$_Tmap_traits@IUContainerInfo@cldb@@U?$less@I@std@@V?$allocator@U?$pair@$$CBIUContainerInfo@cldb@@@std@@@4@$0A@@std@@@std@@IEAA?AU?$pair@V?$_Tree_iterator@V?$_Tree_val@U?$_Tree_simple_types@U?$pair@$$CBIUContainerInfo@cldb@@@std@@@std@@@std@@@std@@_N@1@_N$$QEAU?$pair@$$CBIUContainerInfo@cldb@@@1@U_Not_a_node_tag@1@@Z@4HA 0000000180000000     clReflectCore:DatabaseTextSerialiser.obj
 0004:fffba000       $pdata$?catch$0@?0???$_Insert_nohint@U?$pair@$$CBIUContainerInfo@cldb@@@std@@U_Not_a_node_tag@2@@?$_Tree@V?$_Tmap_traits@IUContainerInfo@cldb@@U?$less@I@std@@V?$allocator@U?$pair@$$CBIUContainerInfo@cldb@@@std@@@4@$0A@@std@@@std@@IEAA?AU?$pair@V?$_Tree_iterator@V?$_Tree_val@U?$_Tree_simple_types@U?$pair@$$CBIUContainerInfo@cldb@@@std@@@std@@@std@@@std@@_N@1@_N$$QEAU?$pair@$$CBIUContainerInfo@cldb@@@1@U_Not_a_node_tag@1@@Z@4HA 0000000180000000     clReflectCore:DatabaseTextSerialiser.obj
 0002:fffcc000       $ip2state$?clear@?$_Tree@V?$_Tmap_traits@IUTypeInheritance@cldb@@U?$less@I@std@@V?$allocator@U?$pair@$$CBIUTypeInheritance@cldb@@@std@@@4@$0A@@std@@@std@@QEAAXXZ 0000000180000000     clReflectCore:Database.obj
 0002:fffcc000       $unwind$?_Extract@?$_Tree_val@U?$_Tree_simple_types@U?$pair@$$CBIUTemplateType@cldb@@@std@@@std@@@std@@QEAAPEAU?$_Tree_node@U?$pair@$$CBIUTemplateType@cldb@@@std@@PEAX@2@V?$_Tree_const_iterator@V?$_Tree_val@U?$_Tree_simple_types@U?$pair@$$CBIUTemplateType@cldb@@@std@@@std@@@std@@@2@@Z 0000000180000000     clReflectCore:Database.obj
 0004:fffba000       $pdata$?_Extract@?$_Tree_val@U?$_Tree_simple_types@U?$pair@$$CBIUTemplateType@cldb@@@std@@@std@@@std@@QEAAPEAU?$_Tree_node@U?$pair@$$CBIUTemplateType@cldb@@@std@@PEAX@2@V?$_Tree_const_iterator@V?$_Tree_val@U?$_Tree_simple_types@U?$pair@$$CBIUTemplateType@cldb@@@std@@@std@@@std@@@2@@Z 0000000180000000     clReflectCore:Database.obj
 0002:fffcc000       $unwind$?erase@?$_Tree@V?$_Tmap_traits@IUTemplateType@cldb@@U?$less@I@std@@V?$allocator@U?$pair@$$CBIUTemplateType@cldb@@@std@@@4@$00@std@@@std@@QEAA?AV?$_Tree_iterator@V?$_Tree_val@U?$_Tree_simple_types@U?$pair@$$CBIUTemplateType@cldb@@@std@@@std@@@std@@@2@V?$_Tree_const_iterator@V?$_Tree_val@U?$_Tree_simple_types@U?$pair@$$CBIUTemplateType@cldb@@@std@@@std@@@std@@@2@@Z 0000000180000000     clReflectCore:Database.obj
 0002:fffcc000       $unwind$??$_Insert_nohint@U?$pair@$$CBIUTypeInheritance@cldb@@@std@@U_Not_a_node_tag@2@@?$_Tree@V?$_Tmap_traits@IUTypeInheritance@cldb@@U?$less@I@std@@V?$allocator@U?$pair@$$CBIUTypeInheritance@cldb@@@std@@@4@$0A@@std@@@std@@IEAA?AU?$pair@V?$_Tree_iterator@V?$_Tree_val@U?$_Tree_simple_types@U?$pair@$$CBIUTypeInheritance@cldb@@@std@@@std@@@std@@@std@@_N@1@_N$$QEAU?$pair@$$CBIUTypeInheritance@cldb@@@1@U_Not_a_node_tag@1@@Z 0000000180000000     clReflectCore:DatabaseTextSerialiser.obj
 0004:fffba000       $pdata$??$_Insert_nohint@U?$pair@$$CBIUTypeInheritance@cldb@@@std@@U_Not_a_node_tag@2@@?$_Tree@V?$_Tmap_traits@IUTypeInheritance@cldb@@U?$less@I@std@@V?$allocator@U?$pair@$$CBIUTypeInheritance@cldb@@@std@@@4@$0A@@std@@@std@@IEAA?AU?$pair@V?$_Tree_iterator@V?$_Tree_val@U?$_Tree_simple_types@U?$pair@$$CBIUTypeInheritance@cldb@@@std@@@std@@@std@@@std@@_N@1@_N$$QEAU?$pair@$$CBIUTypeInheritance@cldb@@@1@U_Not_a_node_tag@1@@Z 0000000180000000     clReflectCore:DatabaseTextSerialiser.obj
 0004:fffba000       $pdata$?erase@?$_Tree@V?$_Tmap_traits@IUTemplateType@cldb@@U?$less@I@std@@V?$allocator@U?$pair@$$CBIUTemplateType@cldb@@@std@@@4@$00@std@@@std@@QEAA?AV?$_Tree_iterator@V?$_Tree_val@U?$_Tree_simple_types@U?$pair@$$CBIUTemplateType@cldb@@@std@@@std@@@std@@@2@V?$_Tree_const_iterator@V?$_Tree_val@U?$_Tree_simple_types@U?$pair@$$CBIUTemplateType@cldb@@@std@@@std@@@std@@@2@@Z 0000000180000000     clReflectCore:Database.obj
 0002:fffcc000       $cppxdata$?erase@?$_Tree@V?$_Tmap_traits@IUTemplateType@cldb@@U?$less@I@std@@V?$allocator@U?$pair@$$CBIUTemplateType@cldb@@@std@@@4@$00@std@@@std@@QEAA?AV?$_Tree_iterator@V?$_Tree_val@U?$_Tree_simple_types@U?$pair@$$CBIUTemplateType@cldb@@@std@@@std@@@std@@@2@V?$_Tree_const_iterator@V?$_Tree_val@U?$_Tree_simple_types@U?$pair@$$CBIUTemplateType@cldb@@@std@@@std@@@std@@@2@@Z 0000000180000000     clReflectCore:Database.obj
 0002:fffcc000       $stateUnwindMap$?erase@?$_Tree@V?$_Tmap_traits@IUTemplateType@cldb@@U?$less@I@std@@V?$allocator@U?$pair@$$CBIUTemplateType@cldb@@@std@@@4@$00@std@@@std@@QEAA?AV?$_Tree_iterator@V?$_Tree_val@U?$_Tree_simple_types@U?$pair@$$CBIUTemplateType@cldb@@@std@@@std@@@std@@@2@V?$_Tree_const_iterator@V?$_Tree_val@U?$_Tree_simple_types@U?$pair@$$CBIUTemplateType@cldb@@@std@@@std@@@std@@@2@@Z 0000000180000000     clReflectCore:Database.obj
 0002:fffcc000       $ip2state$?erase@?$_Tree@V?$_Tmap_traits@IUTemplateType@cldb@@U?$less@I@std@@V?$allocator@U?$pair@$$CBIUTemplateType@cldb@@@std@@@4@$00@std@@@std@@QEAA?AV?$_Tree_iterator@V?$_Tree_val@U?$_Tree_simple_types@U?$pair@$$CBIUTemplateType@cldb@@@std@@@std@@@std@@@2@V?$_Tree_const_iterator@V?$_Tree_val@U?$_Tree_simple_types@U?$pair@$$CBIUTemplateType@cldb@@@std@@@std@@@std@@@2@@Z 0000000180000000     clReflectCore:Database.obj
 0002:fffcc000       $unwind$?erase@?$_Tree@V?$_Tmap_traits@IUTemplateType@cldb@@U?$less@I@std@@V?$allocator@U?$pair@$$CBIUTemplateType@cldb@@@std@@@4@$00@std@@@std@@QEAA?AV?$_Tree_iterator@V?$_Tree_val@U?$_Tree_simple_types@U?$pair@$$CBIUTemplateType@cldb@@@std@@@std@@@std@@@2@V?$_Tree_const_iterator@V?$_Tree_val@U?$_Tree_simple_types@U?$pair@$$CBIUTemplateType@cldb@@@std@@@std@@@std@@@2@0@Z 0000000180000000     clReflectCore:Database.obj
 0004:fffba000       $pdata$?erase@?$_Tree@V?$_Tmap_traits@IUTemplateType@cldb@@U?$less@I@std@@V?$allocator@U?$pair@$$CBIUTemplateType@cldb@@@std@@@4@$00@std@@@std@@QEAA?AV?$_Tree_iterator@V?$_Tree_val@U?$_Tree_simple_types@U?$pair@$$CBIUTemplateType@cldb@@@std@@@std@@@std@@@2@V?$_Tree_const_iterator@V?$_Tree_val@U?$_Tree_simple_types@U?$pair@$$CBIUTemplateType@cldb@@@std@@@std@@@std@@@2@0@Z 0000000180000000     clReflectCore:Database.obj
 0002:fffcc000       $cppxdata$?erase@?$_Tree@V?$_Tmap_traits@IUTemplateType@cldb@@U?$less@I@std@@V?$allocator@U?$pair@$$CBIUTemplateType@cldb@@@std@@@4@$00@std@@@std@@QEAA?AV?$_Tree_iterator@V?$_Tree_val@U?$_Tree_simple_types@U?$pair@$$CBIUTemplateType@cldb@@@std@@@std@@@std@@@2@V?$_Tree_const_iterator@V?$_Tree_val@U?$_Tree_simple_types@U?$pair@$$CBIUTemplateType@cldb@@@std@@@std@@@std@@@2@0@Z 0000000180000000     clReflectCore:Database.obj
 0002:fffcc000       $stateUnwindMap$?erase@?$_Tree@V?$_Tmap_traits@IUTemplateType@cldb@@U?$less@I@std@@V?$allocator@U?$pair@$$CBIUTemplateType@cldb@@@std@@@4@$00@std@@@std@@QEAA?AV?$_Tree_iterator@V?$_Tree_val@U?$_Tree_simple_types@U?$pair@$$CBIUTemplateType@cldb@@@std@@@std@@@std@@@2@V?$_Tree_const_iterator@V?$_Tree_val@U?$_Tree_simple_types@U?$pair@$$CBIUTemplateType@cldb@@@std@@@std@@@std@@@2@0@Z 0000000180000000     clReflectCore:Database.obj
 0002:fffcc000       $ip2state$?erase@?$_Tree@V?$_Tmap_traits@IUTemplateType@cldb@@U?$less@I@std@@V?$allocator@U?$pair@$$CBIUTemplateType@cldb@@@std@@@4@$00@std@@@std@@QEAA?AV?$_Tree_iterator@V?$_Tree_val@U?$_Tree_simple_types@U?$pair@$$CBIUTemplateType@cldb@@@std@@@std@@@std@@@2@V?$_Tree_const_iterator@V?$_Tree_val@U?$_Tree_simple_types@U?$pair@$$CBIUTemplateType@cldb@@@std@@@std@@@std@@@2@0@Z 0000000180000000     clReflectCore:Database.obj
 0002:fffcc000       $unwind$?_Erase@?$_Tree@V?$_Tmap_traits@IUTemplateType@cldb@@U?$less@I@std@@V?$allocator@U?$pair@$$CBIUTemplateType@cldb@@@std@@@4@$00@std@@@std@@IEAAXPEAU?$_Tree_node@U?$pair@$$CBIUTemplateType@cldb@@@std@@PEAX@2@@Z 0000000180000000     clReflectCore:Database.obj
 0004:fffba000       $pdata$?_Erase@?$_Tree@V?$_Tmap_traits@IUTemplateType@cldb@@U?$less@I@std@@V?$allocator@U?$pair@$$CBIUTemplateType@cldb@@@std@@@4@$00@std@@@std@@IEAAXPEAU?$_Tree_node@U?$pair@$$CBIUTemplateType@cldb@@@std@@PEAX@2@@Z 0000000180000000     clReflectCore:Database.obj
 0002:fffcc000       $cppxdata$?_Erase@?$_Tree@V?$_Tmap_traits@IUTemplateType@cldb@@U?$less@I@std@@V?$allocator@U?$pair@$$CBIUTemplateType@cldb@@@std@@@4@$00@std@@@std@@IEAAXPEAU?$_Tree_node@U?$pair@$$CBIUTemplateType@cldb@@@std@@PEAX@2@@Z 0000000180000000     clReflectCore:Database.obj
 0002:fffcc000       $stateUnwindMap$?_Erase@?$_Tree@V?$_Tmap_traits@IUTemplateType@cldb@@U?$less@I@std@@V?$allocator@U?$pair@$$CBIUTemplateType@cldb@@@std@@@4@$00@std@@@std@@IEAAXPEAU?$_Tree_node@U?$pair@$$CBIUTemplateType@cldb@@@std@@PEAX@2@@Z 0000000180000000     clReflectCore:Database.obj
 0002:fffcc000       $ip2state$?_Erase@?$_Tree@V?$_Tmap_traits@IUTemplateType@cldb@@U?$less@I@std@@V?$allocator@U?$pair@$$CBIUTemplateType@cldb@@@std@@@4@$00@std@@@std@@IEAAXPEAU?$_Tree_node@U?$pair@$$CBIUTemplateType@cldb@@@std@@PEAX@2@@Z 0000000180000000     clReflectCore:Database.obj
 0002:fffcc000       $cppxdata$?clear@?$_Tree@V?$_Tmap_traits@IUTypeInheritance@cldb@@U?$less@I@std@@V?$allocator@U?$pair@$$CBIUTypeInheritance@cldb@@@std@@@4@$0A@@std@@@std@@QEAAXXZ 0000000180000000     clReflectCore:Database.obj
 0002:fffcc000       $unwind$?deallocate@?$allocator@U?$_Tree_node@U?$pair@$$CBIUClass@cldb@@@std@@PEAX@std@@@std@@QEAAXQEAU?$_Tree_node@U?$pair@$$CBIUClass@cldb@@@std@@PEAX@2@_K@Z 0000000180000000     clReflectCore:Database.obj
 0004:fffba000       $pdata$?deallocate@?$allocator@U?$_Tree_node@U?$pair@$$CBIUClass@cldb@@@std@@PEAX@std@@@std@@QEAAXQEAU?$_Tree_node@U?$pair@$$CBIUClass@cldb@@@std@@PEAX@2@_K@Z 0000000180000000     clReflectCore:Database.obj
 0002:fffcc000       __guard_fids_?__scrt_initialize_thread_safe_statics@@YAHXZ 0000000180000000     MSVCRT:thread_safe_statics.obj
 0004:fffba000       $pdata$?clear@?$_Tree@V?$_Tmap_traits@IUTypeInheritance@cldb@@U?$less@I@std@@V?$allocator@U?$pair@$$CBIUTypeInheritance@cldb@@@std@@@4@$0A@@std@@@std@@QEAAXXZ 0000000180000000     clReflectCore:Database.obj
 0002:fffcc000       $unwind$?clear@?$_Tree@V?$_Tmap_traits@IUTypeInheritance@cldb@@U?$less@I@std@@V?$allocator@U?$pair@$$CBIUTypeInheritance@cldb@@@std@@@4@$0A@@std@@@std@@QEAAXXZ 0000000180000000     clReflectCore:Database.obj
 0002:fffcc000       $unwind$?_Extract@?$_Tree_val@U?$_Tree_simple_types@U?$pair@$$CBIUClass@cldb@@@std@@@std@@@std@@QEAAPEAU?$_Tree_node@U?$pair@$$CBIUClass@cldb@@@std@@PEAX@2@V?$_Tree_const_iterator@V?$_Tree_val@U?$_Tree_simple_types@U?$pair@$$CBIUClass@cldb@@@std@@@std@@@std@@@2@@Z 0000000180000000     clReflectCore:Database.obj
 0004:fffba000       $pdata$?_Extract@?$_Tree_val@U?$_Tree_simple_types@U?$pair@$$CBIUClass@cldb@@@std@@@std@@@std@@QEAAPEAU?$_Tree_node@U?$pair@$$CBIUClass@cldb@@@std@@PEAX@2@V?$_Tree_const_iterator@V?$_Tree_val@U?$_Tree_simple_types@U?$pair@$$CBIUClass@cldb@@@std@@@std@@@std@@@2@@Z 0000000180000000     clReflectCore:Database.obj
 0002:fffcc000       $unwind$?erase@?$_Tree@V?$_Tmap_traits@IUClass@cldb@@U?$less@I@std@@V?$allocator@U?$pair@$$CBIUClass@cldb@@@std@@@4@$00@std@@@std@@QEAA?AV?$_Tree_iterator@V?$_Tree_val@U?$_Tree_simple_types@U?$pair@$$CBIUClass@cldb@@@std@@@std@@@std@@@2@V?$_Tree_const_iterator@V?$_Tree_val@U?$_Tree_simple_types@U?$pair@$$CBIUClass@cldb@@@std@@@std@@@std@@@2@@Z 0000000180000000     clReflectCore:Database.obj
 0004:fffba000       $pdata$?erase@?$_Tree@V?$_Tmap_traits@IUClass@cldb@@U?$less@I@std@@V?$allocator@U?$pair@$$CBIUClass@cldb@@@std@@@4@$00@std@@@std@@QEAA?AV?$_Tree_iterator@V?$_Tree_val@U?$_Tree_simple_types@U?$pair@$$CBIUClass@cldb@@@std@@@std@@@std@@@2@V?$_Tree_const_iterator@V?$_Tree_val@U?$_Tree_simple_types@U?$pair@$$CBIUClass@cldb@@@std@@@std@@@std@@@2@@Z 0000000180000000     clReflectCore:Database.obj
 0002:fffcc000       $unwind$?erase@?$_Tree@V?$_Tmap_traits@IUClass@cldb@@U?$less@I@std@@V?$allocator@U?$pair@$$CBIUClass@cldb@@@std@@@4@$00@std@@@std@@QEAA?AV?$_Tree_iterator@V?$_Tree_val@U?$_Tree_simple_types@U?$pair@$$CBIUClass@cldb@@@std@@@std@@@std@@@2@V?$_Tree_const_iterator@V?$_Tree_val@U?$_Tree_simple_types@U?$pair@$$CBIUClass@cldb@@@std@@@std@@@std@@@2@0@Z 0000000180000000     clReflectCore:Database.obj
 0004:fffba000       $pdata$?erase@?$_Tree@V?$_Tmap_traits@IUClass@cldb@@U?$less@I@std@@V?$allocator@U?$pair@$$CBIUClass@cldb@@@std@@@4@$00@std@@@std@@QEAA?AV?$_Tree_iterator@V?$_Tree_val@U?$_Tree_simple_types@U?$pair@$$CBIUClass@cldb@@@std@@@std@@@std@@@2@V?$_Tree_const_iterator@V?$_Tree_val@U?$_Tree_simple_types@U?$pair@$$CBIUClass@cldb@@@std@@@std@@@std@@@2@0@Z 0000000180000000     clReflectCore:Database.obj
 0002:fffcc000       $unwind$?clear@?$_Tree@V?$_Tmap_traits@IUClass@cldb@@U?$less@I@std@@V?$allocator@U?$pair@$$CBIUClass@cldb@@@std@@@4@$00@std@@@std@@QEAAXXZ 0000000180000000     clReflectCore:Database.obj
 0004:fffba000       $pdata$?clear@?$_Tree@V?$_Tmap_traits@IUClass@cldb@@U?$less@I@std@@V?$allocator@U?$pair@$$CBIUClass@cldb@@@std@@@4@$00@std@@@std@@QEAAXXZ 0000000180000000     clReflectCore:Database.obj
 0002:fffcc000       $cppxdata$?clear@?$_Tree@V?$_Tmap_traits@IUClass@cldb@@U?$less@I@std@@V?$allocator@U?$pair@$$CBIUClass@cldb@@@std@@@4@$00@std@@@std@@QEAAXXZ 0000000180000000     clReflectCore:Database.obj
 0002:fffcc000       $ip2state$?clear@?$_Tree@V?$_Tmap_traits@IUClass@cldb@@U?$less@I@std@@V?$allocator@U?$pair@$$CBIUClass@cldb@@@std@@@4@$00@std@@@std@@QEAAXXZ 0000000180000000     clReflectCore:Database.obj
 0002:fffcc000       $unwind$?_Erase@?$_Tree@V?$_Tmap_traits@IUClass@cldb@@U?$less@I@std@@V?$allocator@U?$pair@$$CBIUClass@cldb@@@std@@@4@$00@std@@@std@@IEAAXPEAU?$_Tree_node@U?$pair@$$CBIUClass@cldb@@@std@@PEAX@2@@Z 0000000180000000     clReflectCore:Database.obj
 0004:fffba000       $pdata$?_Erase@?$_Tree@V?$_Tmap_traits@IUClass@cldb@@U?$less@I@std@@V?$allocator@U?$pair@$$CBIUClass@cldb@@@std@@@4@$00@std@@@std@@IEAAXPEAU?$_Tree_node@U?$pair@$$CBIUClass@cldb@@@std@@PEAX@2@@Z 0000000180000000     clReflectCore:Database.obj
 0004:fffba000       $pdata$?erase@?$_Tree@V?$_Tmap_traits@IUTypeInheritance@cldb@@U?$less@I@std@@V?$allocator@U?$pair@$$CBIUTypeInheritance@cldb@@@std@@@4@$0A@@std@@@std@@QEAA?AV?$_Tree_iterator@V?$_Tree_val@U?$_Tree_simple_types@U?$pair@$$CBIUTypeInheritance@cldb@@@std@@@std@@@std@@@2@V?$_Tree_const_iterator@V?$_Tree_val@U?$_Tree_simple_types@U?$pair@$$CBIUTypeInheritance@cldb@@@std@@@std@@@std@@@2@0@Z 0000000180000000     clReflectCore:Database.obj
 0002:fffcc000       $unwind$?deallocate@?$allocator@U?$_Tree_node@U?$pair@$$CBIUEnum@cldb@@@std@@PEAX@std@@@std@@QEAAXQEAU?$_Tree_node@U?$pair@$$CBIUEnum@cldb@@@std@@PEAX@2@_K@Z 0000000180000000     clReflectCore:Database.obj
 0002:fffcc000       $cppxdata$??$_Insert_nohint@U?$pair@$$CBIUTypeInheritance@cldb@@@std@@U_Not_a_node_tag@2@@?$_Tree@V?$_Tmap_traits@IUTypeInheritance@cldb@@U?$less@I@std@@V?$allocator@U?$pair@$$CBIUTypeInheritance@cldb@@@std@@@4@$0A@@std@@@std@@IEAA?AU?$pair@V?$_Tree_iterator@V?$_Tree_val@U?$_Tree_simple_types@U?$pair@$$CBIUTypeInheritance@cldb@@@std@@@std@@@std@@@std@@_N@1@_N$$QEAU?$pair@$$CBIUTypeInheritance@cldb@@@1@U_Not_a_node_tag@1@@Z 0000000180000000     clReflectCore:DatabaseTextSerialiser.obj
 0002:fffcc000       $stateUnwindMap$??$_Insert_nohint@U?$pair@$$CBIUTypeInheritance@cldb@@@std@@U_Not_a_node_tag@2@@?$_Tree@V?$_Tmap_traits@IUTypeInheritance@cldb@@U?$less@I@std@@V?$allocator@U?$pair@$$CBIUTypeInheritance@cldb@@@std@@@4@$0A@@std@@@std@@IEAA?AU?$pair@V?$_Tree_iterator@V?$_Tree_val@U?$_Tree_simple_types@U?$pair@$$CBIUTypeInheritance@cldb@@@std@@@std@@@std@@@std@@_N@1@_N$$QEAU?$pair@$$CBIUTypeInheritance@cldb@@@1@U_Not_a_node_tag@1@@Z 0000000180000000     clReflectCore:DatabaseTextSerialiser.obj
 0002:fffcc000       __guard_fids__             0000000180000000     MSVCRT:thread_safe_statics.obj
 0002:fffcc000       $tryMap$??$_Insert_nohint@U?$pair@$$CBIUTypeInheritance@cldb@@@std@@U_Not_a_node_tag@2@@?$_Tree@V?$_Tmap_traits@IUTypeInheritance@cldb@@U?$less@I@std@@V?$allocator@U?$pair@$$CBIUTypeInheritance@cldb@@@std@@@4@$0A@@std@@@std@@IEAA?AU?$pair@V?$_Tree_iterator@V?$_Tree_val@U?$_Tree_simple_types@U?$pair@$$CBIUTypeInheritance@cldb@@@std@@@std@@@std@@@std@@_N@1@_N$$QEAU?$pair@$$CBIUTypeInheritance@cldb@@@1@U_Not_a_node_tag@1@@Z 0000000180000000     clReflectCore:DatabaseTextSerialiser.obj
 0002:fffcc000       $handlerMap$0$??$_Insert_nohint@U?$pair@$$CBIUTypeInheritance@cldb@@@std@@U_Not_a_node_tag@2@@?$_Tree@V?$_Tmap_traits@IUTypeInheritance@cldb@@U?$less@I@std@@V?$allocator@U?$pair@$$CBIUTypeInheritance@cldb@@@std@@@4@$0A@@std@@@std@@IEAA?AU?$pair@V?$_Tree_iterator@V?$_Tree_val@U?$_Tree_simple_types@U?$pair@$$CBIUTypeInheritance@cldb@@@std@@@std@@@std@@@std@@_N@1@_N$$QEAU?$pair@$$CBIUTypeInheritance@cldb@@@1@U_Not_a_node_tag@1@@Z 0000000180000000     clReflectCore:DatabaseTextSerialiser.obj
 0004:fffba000       $pdata$?deallocate@?$allocator@U?$_Tree_node@U?$pair@$$CBIUEnum@cldb@@@std@@PEAX@std@@@std@@QEAAXQEAU?$_Tree_node@U?$pair@$$CBIUEnum@cldb@@@std@@PEAX@2@_K@Z 0000000180000000     clReflectCore:Database.obj
 0002:fffcc000       $unwind$?erase@?$_Tree@V?$_Tmap_traits@IUTypeInheritance@cldb@@U?$less@I@std@@V?$allocator@U?$pair@$$CBIUTypeInheritance@cldb@@@std@@@4@$0A@@std@@@std@@QEAA?AV?$_Tree_iterator@V?$_Tree_val@U?$_Tree_simple_types@U?$pair@$$CBIUTypeInheritance@cldb@@@std@@@std@@@std@@@2@V?$_Tree_const_iterator@V?$_Tree_val@U?$_Tree_simple_types@U?$pair@$$CBIUTypeInheritance@cldb@@@std@@@std@@@std@@@2@0@Z 0000000180000000     clReflectCore:Database.obj
 0004:fffba000       $pdata$?erase@?$_Tree@V?$_Tmap_traits@IUTypeInheritance@cldb@@U?$less@I@std@@V?$allocator@U?$pair@$$CBIUTypeInheritance@cldb@@@std@@@4@$0A@@std@@@std@@QEAA?AV?$_Tree_iterator@V?$_Tree_val@U?$_Tree_simple_types@U?$pair@$$CBIUTypeInheritance@cldb@@@std@@@std@@@std@@@2@V?$_Tree_const_iterator@V?$_Tree_val@U?$_Tree_simple_types@U?$pair@$$CBIUTypeInheritance@cldb@@@std@@@std@@@std@@@2@@Z 0000000180000000     clReflectCore:Database.obj
 0000:fffb4000       .debug$S                   0000000180000000     msvcprt:MSVCP140.dll
 0000:fffb4000       .debug$S                   0000000180000000     msvcprt:MSVCP140.dll
 0002:fffcc000       $unwind$?_Extract@?$_Tree_val@U?$_Tree_simple_types@U?$pair@$$CBIUEnum@cldb@@@std@@@std@@@std@@QEAAPEAU?$_Tree_node@U?$pair@$$CBIUEnum@cldb@@@std@@PEAX@2@V?$_Tree_const_iterator@V?$_Tree_val@U?$_Tree_simple_types@U?$pair@$$CBIUEnum@cldb@@@std@@@std@@@std@@@2@@Z 0000000180000000     clReflectCore:Database.obj
 0000:fffb4000       .debug$S                   0000000180000000     kernel32:KERNEL32.dll
 0000:fffb4000       .debug$S                   0000000180000000     kernel32:KERNEL32.dll
 0004:fffba000       $pdata$?_Extract@?$_Tree_val@U?$_Tree_simple_types@U?$pair@$$CBIUEnum@cldb@@@std@@@std@@@std@@QEAAPEAU?$_Tree_node@U?$pair@$$CBIUEnum@cldb@@@std@@PEAX@2@V?$_Tree_const_iterator@V?$_Tree_val@U?$_Tree_simple_types@U?$pair@$$CBIUEnum@cldb@@@std@@@std@@@std@@@2@@Z 0000000180000000     clReflectCore:Database.obj
 0002:fffcc000       $unwind$?erase@?$_Tree@V?$_Tmap_traits@IUEnum@cldb@@U?$less@I@std@@V?$allocator@U?$pair@$$CBIUEnum@cldb@@@std@@@4@$00@std@@@std@@QEAA?AV?$_Tree_iterator@V?$_Tree_val@U?$_Tree_simple_types@U?$pair@$$CBIUEnum@cldb@@@std@@@std@@@std@@@2@V?$_Tree_const_iterator@V?$_Tree_val@U?$_Tree_simple_types@U?$pair@$$CBIUEnum@cldb@@@std@@@std@@@std@@@2@@Z 0000000180000000     clReflectCore:Database.obj
 0004:fffba000       $pdata$?erase@?$_Tree@V?$_Tmap_traits@IUEnum@cldb@@U?$less@I@std@@V?$allocator@U?$pair@$$CBIUEnum@cldb@@@std@@@4@$00@std@@@std@@QEAA?AV?$_Tree_iterator@V?$_Tree_val@U?$_Tree_simple_types@U?$pair@$$CBIUEnum@cldb@@@std@@@std@@@std@@@2@V?$_Tree_const_iterator@V?$_Tree_val@U?$_Tree_simple_types@U?$pair@$$CBIUEnum@cldb@@@std@@@std@@@std@@@2@@Z 0000000180000000     clReflectCore:Database.obj
 0002:fffcc000       $unwind$?erase@?$_Tree@V?$_Tmap_traits@IUEnum@cldb@@U?$less@I@std@@V?$allocator@U?$pair@$$CBIUEnum@cldb@@@std@@@4@$00@std@@@std@@QEAA?AV?$_Tree_iterator@V?$_Tree_val@U?$_Tree_simple_types@U?$pair@$$CBIUEnum@cldb@@@std@@@std@@@std@@@2@V?$_Tree_const_iterator@V?$_Tree_val@U?$_Tree_simple_types@U?$pair@$$CBIUEnum@cldb@@@std@@@std@@@std@@@2@0@Z 0000000180000000     clReflectCore:Database.obj
 0004:fffba000       $pdata$?erase@?$_Tree@V?$_Tmap_traits@IUEnum@cldb@@U?$less@I@std@@V?$allocator@U?$pair@$$CBIUEnum@cldb@@@std@@@4@$00@std@@@std@@QEAA?AV?$_Tree_iterator@V?$_Tree_val@U?$_Tree_simple_types@U?$pair@$$CBIUEnum@cldb@@@std@@@std@@@std@@@2@V?$_Tree_const_iterator@V?$_Tree_val@U?$_Tree_simple_types@U?$pair@$$CBIUEnum@cldb@@@std@@@std@@@std@@@2@0@Z 0000000180000000     clReflectCore:Database.obj
 0002:fffcc000       $unwind$?clear@?$_Tree@V?$_Tmap_traits@IUEnum@cldb@@U?$less@I@std@@V?$allocator@U?$pair@$$CBIUEnum@cldb@@@std@@@4@$00@std@@@std@@QEAAXXZ 0000000180000000     clReflectCore:Database.obj
 0004:fffba000       $pdata$?clear@?$_Tree@V?$_Tmap_traits@IUEnum@cldb@@U?$less@I@std@@V?$allocator@U?$pair@$$CBIUEnum@cldb@@@std@@@4@$00@std@@@std@@QEAAXXZ 0000000180000000     clReflectCore:Database.obj
 0002:fffcc000       $cppxdata$?clear@?$_Tree@V?$_Tmap_traits@IUEnum@cldb@@U?$less@I@std@@V?$allocator@U?$pair@$$CBIUEnum@cldb@@@std@@@4@$00@std@@@std@@QEAAXXZ 0000000180000000     clReflectCore:Database.obj
 0002:fffcc000       $ip2state$?clear@?$_Tree@V?$_Tmap_traits@IUEnum@cldb@@U?$less@I@std@@V?$allocator@U?$pair@$$CBIUEnum@cldb@@@std@@@4@$00@std@@@std@@QEAAXXZ 0000000180000000     clReflectCore:Database.obj
 0002:fffcc000       $unwind$?_Erase@?$_Tree@V?$_Tmap_traits@IUEnum@cldb@@U?$less@I@std@@V?$allocator@U?$pair@$$CBIUEnum@cldb@@@std@@@4@$00@std@@@std@@IEAAXPEAU?$_Tree_node@U?$pair@$$CBIUEnum@cldb@@@std@@PEAX@2@@Z 0000000180000000     clReflectCore:Database.obj
 0004:fffba000       $pdata$?_Erase@?$_Tree@V?$_Tmap_traits@IUEnum@cldb@@U?$less@I@std@@V?$allocator@U?$pair@$$CBIUEnum@cldb@@@std@@@4@$00@std@@@std@@IEAAXPEAU?$_Tree_node@U?$pair@$$CBIUEnum@cldb@@@std@@PEAX@2@@Z 0000000180000000     clReflectCore:Database.obj
 0002:fffcc000       $unwind$?erase@?$_Tree@V?$_Tmap_traits@IUTypeInheritance@cldb@@U?$less@I@std@@V?$allocator@U?$pair@$$CBIUTypeInheritance@cldb@@@std@@@4@$0A@@std@@@std@@QEAA?AV?$_Tree_iterator@V?$_Tree_val@U?$_Tree_simple_types@U?$pair@$$CBIUTypeInheritance@cldb@@@std@@@std@@@std@@@2@V?$_Tree_const_iterator@V?$_Tree_val@U?$_Tree_simple_types@U?$pair@$$CBIUTypeInheritance@cldb@@@std@@@std@@@std@@@2@@Z 0000000180000000     clReflectCore:Database.obj
 0002:fffcc000       $unwind$?deallocate@?$allocator@U?$_Tree_node@U?$pair@$$CBIUEnumConstant@cldb@@@std@@PEAX@std@@@std@@QEAAXQEAU?$_Tree_node@U?$pair@$$CBIUEnumConstant@cldb@@@std@@PEAX@2@_K@Z 0000000180000000     clReflectCore:Database.obj
 0004:fffba000       $pdata$?deallocate@?$allocator@U?$_Tree_node@U?$pair@$$CBIUEnumConstant@cldb@@@std@@PEAX@std@@@std@@QEAAXQEAU?$_Tree_node@U?$pair@$$CBIUEnumConstant@cldb@@@std@@PEAX@2@_K@Z 0000000180000000     clReflectCore:Database.obj
 0004:fffba000       $pdata$?_Extract@?$_Tree_val@U?$_Tree_simple_types@U?$pair@$$CBIUTypeInheritance@cldb@@@std@@@std@@@std@@QEAAPEAU?$_Tree_node@U?$pair@$$CBIUTypeInheritance@cldb@@@std@@PEAX@2@V?$_Tree_const_iterator@V?$_Tree_val@U?$_Tree_simple_types@U?$pair@$$CBIUTypeInheritance@cldb@@@std@@@std@@@std@@@2@@Z 0000000180000000     clReflectCore:Database.obj
 0002:fffcc000       $unwind$?_Extract@?$_Tree_val@U?$_Tree_simple_types@U?$pair@$$CBIUTypeInheritance@cldb@@@std@@@std@@@std@@QEAAPEAU?$_Tree_node@U?$pair@$$CBIUTypeInheritance@cldb@@@std@@PEAX@2@V?$_Tree_const_iterator@V?$_Tree_val@U?$_Tree_simple_types@U?$pair@$$CBIUTypeInheritance@cldb@@@std@@@std@@@std@@@2@@Z 0000000180000000     clReflectCore:Database.obj
 0002:fffcc000       $unwind$?_Extract@?$_Tree_val@U?$_Tree_simple_types@U?$pair@$$CBIUEnumConstant@cldb@@@std@@@std@@@std@@QEAAPEAU?$_Tree_node@U?$pair@$$CBIUEnumConstant@cldb@@@std@@PEAX@2@V?$_Tree_const_iterator@V?$_Tree_val@U?$_Tree_simple_types@U?$pair@$$CBIUEnumConstant@cldb@@@std@@@std@@@std@@@2@@Z 0000000180000000     clReflectCore:Database.obj
 0004:fffba000       $pdata$?_Extract@?$_Tree_val@U?$_Tree_simple_types@U?$pair@$$CBIUEnumConstant@cldb@@@std@@@std@@@std@@QEAAPEAU?$_Tree_node@U?$pair@$$CBIUEnumConstant@cldb@@@std@@PEAX@2@V?$_Tree_const_iterator@V?$_Tree_val@U?$_Tree_simple_types@U?$pair@$$CBIUEnumConstant@cldb@@@std@@@std@@@std@@@2@@Z 0000000180000000     clReflectCore:Database.obj
 0002:fffcc000       $unwind$?erase@?$_Tree@V?$_Tmap_traits@IUEnumConstant@cldb@@U?$less@I@std@@V?$allocator@U?$pair@$$CBIUEnumConstant@cldb@@@std@@@4@$00@std@@@std@@QEAA?AV?$_Tree_iterator@V?$_Tree_val@U?$_Tree_simple_types@U?$pair@$$CBIUEnumConstant@cldb@@@std@@@std@@@std@@@2@V?$_Tree_const_iterator@V?$_Tree_val@U?$_Tree_simple_types@U?$pair@$$CBIUEnumConstant@cldb@@@std@@@std@@@std@@@2@@Z 0000000180000000     clReflectCore:Database.obj
 0004:fffba000       $pdata$?erase@?$_Tree@V?$_Tmap_traits@IUEnumConstant@cldb@@U?$less@I@std@@V?$allocator@U?$pair@$$CBIUEnumConstant@cldb@@@std@@@4@$00@std@@@std@@QEAA?AV?$_Tree_iterator@V?$_Tree_val@U?$_Tree_simple_types@U?$pair@$$CBIUEnumConstant@cldb@@@std@@@std@@@std@@@2@V?$_Tree_const_iterator@V?$_Tree_val@U?$_Tree_simple_types@U?$pair@$$CBIUEnumConstant@cldb@@@std@@@std@@@std@@@2@@Z 0000000180000000     clReflectCore:Database.obj
 0002:fffcc000       $unwind$?erase@?$_Tree@V?$_Tmap_traits@IUEnumConstant@cldb@@U?$less@I@std@@V?$allocator@U?$pair@$$CBIUEnumConstant@cldb@@@std@@@4@$00@std@@@std@@QEAA?AV?$_Tree_iterator@V?$_Tree_val@U?$_Tree_simple_types@U?$pair@$$CBIUEnumConstant@cldb@@@std@@@std@@@std@@@2@V?$_Tree_const_iterator@V?$_Tree_val@U?$_Tree_simple_types@U?$pair@$$CBIUEnumConstant@cldb@@@std@@@std@@@std@@@2@0@Z 0000000180000000     clReflectCore:Database.obj
 0004:fffba000       $pdata$?erase@?$_Tree@V?$_Tmap_traits@IUEnumConstant@cldb@@U?$less@I@std@@V?$allocator@U?$pair@$$CBIUEnumConstant@cldb@@@std@@@4@$00@std@@@std@@QEAA?AV?$_Tree_iterator@V?$_Tree_val@U?$_Tree_simple_types@U?$pair@$$CBIUEnumConstant@cldb@@@std@@@std@@@std@@@2@V?$_Tree_const_iterator@V?$_Tree_val@U?$_Tree_simple_types@U?$pair@$$CBIUEnumConstant@cldb@@@std@@@std@@@std@@@2@0@Z 0000000180000000     clReflectCore:Database.obj
 0002:fffcc000       $unwind$?clear@?$_Tree@V?$_Tmap_traits@IUEnumConstant@cldb@@U?$less@I@std@@V?$allocator@U?$pair@$$CBIUEnumConstant@cldb@@@std@@@4@$00@std@@@std@@QEAAXXZ 0000000180000000     clReflectCore:Database.obj
 0004:fffba000       $pdata$?clear@?$_Tree@V?$_Tmap_traits@IUEnumConstant@cldb@@U?$less@I@std@@V?$allocator@U?$pair@$$CBIUEnumConstant@cldb@@@std@@@4@$00@std@@@std@@QEAAXXZ 0000000180000000     clReflectCore:Database.obj
 0002:fffcc000       $cppxdata$?clear@?$_Tree@V?$_Tmap_traits@IUEnumConstant@cldb@@U?$less@I@std@@V?$allocator@U?$pair@$$CBIUEnumConstant@cldb@@@std@@@4@$00@std@@@std@@QEAAXXZ 0000000180000000     clReflectCore:Database.obj
 0002:fffcc000       $ip2state$?clear@?$_Tree@V?$_Tmap_traits@IUEnumConstant@cldb@@U?$less@I@std@@V?$allocator@U?$pair@$$CBIUEnumConstant@cldb@@@std@@@4@$00@std@@@std@@QEAAXXZ 0000000180000000     clReflectCore:Database.obj
 0002:fffcc000       $unwind$?_Erase@?$_Tree@V?$_Tmap_traits@IUEnumConstant@cldb@@U?$less@I@std@@V?$allocator@U?$pair@$$CBIUEnumConstant@cldb@@@std@@@4@$00@std@@@std@@IEAAXPEAU?$_Tree_node@U?$pair@$$CBIUEnumConstant@cldb@@@std@@PEAX@2@@Z 0000000180000000     clReflectCore:Database.obj
 0004:fffba000       $pdata$?_Erase@?$_Tree@V?$_Tmap_traits@IUEnumConstant@cldb@@U?$less@I@std@@V?$allocator@U?$pair@$$CBIUEnumConstant@cldb@@@std@@@4@$00@std@@@std@@IEAAXPEAU?$_Tree_node@U?$pair@$$CBIUEnumConstant@cldb@@@std@@PEAX@2@@Z 0000000180000000     clReflectCore:Database.obj
 0004:fffba000       $pdata$?catch$0@?0??_Buynode0@?$_Tree_comp_alloc@V?$_Tmap_traits@IUTypeInheritance@cldb@@U?$less@I@std@@V?$allocator@U?$pair@$$CBIUTypeInheritance@cldb@@@std@@@4@$0A@@std@@@std@@QEAAPEAU?$_Tree_node@U?$pair@$$CBIUTypeInheritance@cldb@@@std@@PEAX@2@XZ@4HA 0000000180000000     clReflectCore:Database.obj
 0002:fffcc000       $unwind$?deallocate@?$allocator@U?$_Tree_node@U?$pair@$$CBIUFunction@cldb@@@std@@PEAX@std@@@std@@QEAAXQEAU?$_Tree_node@U?$pair@$$CBIUFunction@cldb@@@std@@PEAX@2@_K@Z 0000000180000000     clReflectCore:Database.obj
 0004:fffba000       $pdata$?deallocate@?$allocator@U?$_Tree_node@U?$pair@$$CBIUFunction@cldb@@@std@@PEAX@std@@@std@@QEAAXQEAU?$_Tree_node@U?$pair@$$CBIUFunction@cldb@@@std@@PEAX@2@_K@Z 0000000180000000     clReflectCore:Database.obj
 0002:fffcc000       $unwind$?catch$0@?0??_Buynode0@?$_Tree_comp_alloc@V?$_Tmap_traits@IUTypeInheritance@cldb@@U?$less@I@std@@V?$allocator@U?$pair@$$CBIUTypeInheritance@cldb@@@std@@@4@$0A@@std@@@std@@QEAAPEAU?$_Tree_node@U?$pair@$$CBIUTypeInheritance@cldb@@@std@@PEAX@2@XZ@4HA 0000000180000000     clReflectCore:Database.obj
 0002:fffcc000       $ip2state$?_Buynode0@?$_Tree_comp_alloc@V?$_Tmap_traits@IUTypeInheritance@cldb@@U?$less@I@std@@V?$allocator@U?$pair@$$CBIUTypeInheritance@cldb@@@std@@@4@$0A@@std@@@std@@QEAAPEAU?$_Tree_node@U?$pair@$$CBIUTypeInheritance@cldb@@@std@@PEAX@2@XZ 0000000180000000     clReflectCore:Database.obj
 0002:fffcc000       $unwind$?_Extract@?$_Tree_val@U?$_Tree_simple_types@U?$pair@$$CBIUFunction@cldb@@@std@@@std@@@std@@QEAAPEAU?$_Tree_node@U?$pair@$$CBIUFunction@cldb@@@std@@PEAX@2@V?$_Tree_const_iterator@V?$_Tree_val@U?$_Tree_simple_types@U?$pair@$$CBIUFunction@cldb@@@std@@@std@@@std@@@2@@Z 0000000180000000     clReflectCore:Database.obj
 0004:fffba000       $pdata$?_Extract@?$_Tree_val@U?$_Tree_simple_types@U?$pair@$$CBIUFunction@cldb@@@std@@@std@@@std@@QEAAPEAU?$_Tree_node@U?$pair@$$CBIUFunction@cldb@@@std@@PEAX@2@V?$_Tree_const_iterator@V?$_Tree_val@U?$_Tree_simple_types@U?$pair@$$CBIUFunction@cldb@@@std@@@std@@@std@@@2@@Z 0000000180000000     clReflectCore:Database.obj
 0002:fffcc000       $unwind$?erase@?$_Tree@V?$_Tmap_traits@IUFunction@cldb@@U?$less@I@std@@V?$allocator@U?$pair@$$CBIUFunction@cldb@@@std@@@4@$00@std@@@std@@QEAA?AV?$_Tree_iterator@V?$_Tree_val@U?$_Tree_simple_types@U?$pair@$$CBIUFunction@cldb@@@std@@@std@@@std@@@2@V?$_Tree_const_iterator@V?$_Tree_val@U?$_Tree_simple_types@U?$pair@$$CBIUFunction@cldb@@@std@@@std@@@std@@@2@@Z 0000000180000000     clReflectCore:Database.obj
 0004:fffba000       $pdata$?erase@?$_Tree@V?$_Tmap_traits@IUFunction@cldb@@U?$less@I@std@@V?$allocator@U?$pair@$$CBIUFunction@cldb@@@std@@@4@$00@std@@@std@@QEAA?AV?$_Tree_iterator@V?$_Tree_val@U?$_Tree_simple_types@U?$pair@$$CBIUFunction@cldb@@@std@@@std@@@std@@@2@V?$_Tree_const_iterator@V?$_Tree_val@U?$_Tree_simple_types@U?$pair@$$CBIUFunction@cldb@@@std@@@std@@@std@@@2@@Z 0000000180000000     clReflectCore:Database.obj
 0002:fffcc000       $unwind$?erase@?$_Tree@V?$_Tmap_traits@IUFunction@cldb@@U?$less@I@std@@V?$allocator@U?$pair@$$CBIUFunction@cldb@@@std@@@4@$00@std@@@std@@QEAA?AV?$_Tree_iterator@V?$_Tree_val@U?$_Tree_simple_types@U?$pair@$$CBIUFunction@cldb@@@std@@@std@@@std@@@2@V?$_Tree_const_iterator@V?$_Tree_val@U?$_Tree_simple_types@U?$pair@$$CBIUFunction@cldb@@@std@@@std@@@std@@@2@0@Z 0000000180000000     clReflectCore:Database.obj
 0004:fffba000       $pdata$?erase@?$_Tree@V?$_Tmap_traits@IUFunction@cldb@@U?$less@I@std@@V?$allocator@U?$pair@$$CBIUFunction@cldb@@@std@@@4@$00@std@@@std@@QEAA?AV?$_Tree_iterator@V?$_Tree_val@U?$_Tree_simple_types@U?$pair@$$CBIUFunction@cldb@@@std@@@std@@@std@@@2@V?$_Tree_const_iterator@V?$_Tree_val@U?$_Tree_simple_types@U?$pair@$$CBIUFunction@cldb@@@std@@@std@@@std@@@2@0@Z 0000000180000000     clReflectCore:Database.obj
 0002:fffcc000       $unwind$?clear@?$_Tree@V?$_Tmap_traits@IUFunction@cldb@@U?$less@I@std@@V?$allocator@U?$pair@$$CBIUFunction@cldb@@@std@@@4@$00@std@@@std@@QEAAXXZ 0000000180000000     clReflectCore:Database.obj
 0004:fffba000       $pdata$?clear@?$_Tree@V?$_Tmap_traits@IUFunction@cldb@@U?$less@I@std@@V?$allocator@U?$pair@$$CBIUFunction@cldb@@@std@@@4@$00@std@@@std@@QEAAXXZ 0000000180000000     clReflectCore:Database.obj
 0002:fffcc000       $cppxdata$?clear@?$_Tree@V?$_Tmap_traits@IUFunction@cldb@@U?$less@I@std@@V?$allocator@U?$pair@$$CBIUFunction@cldb@@@std@@@4@$00@std@@@std@@QEAAXXZ 0000000180000000     clReflectCore:Database.obj
 0002:fffcc000       $ip2state$?clear@?$_Tree@V?$_Tmap_traits@IUFunction@cldb@@U?$less@I@std@@V?$allocator@U?$pair@$$CBIUFunction@cldb@@@std@@@4@$00@std@@@std@@QEAAXXZ 0000000180000000     clReflectCore:Database.obj
 0002:fffcc000       $unwind$?_Erase@?$_Tree@V?$_Tmap_traits@IUFunction@cldb@@U?$less@I@std@@V?$allocator@U?$pair@$$CBIUFunction@cldb@@@std@@@4@$00@std@@@std@@IEAAXPEAU?$_Tree_node@U?$pair@$$CBIUFunction@cldb@@@std@@PEAX@2@@Z 0000000180000000     clReflectCore:Database.obj
 0004:fffba000       $pdata$?_Erase@?$_Tree@V?$_Tmap_traits@IUFunction@cldb@@U?$less@I@std@@V?$allocator@U?$pair@$$CBIUFunction@cldb@@@std@@@4@$00@std@@@std@@IEAAXPEAU?$_Tree_node@U?$pair@$$CBIUFunction@cldb@@@std@@PEAX@2@@Z 0000000180000000     clReflectCore:Database.obj
 0002:fffcc000       $handlerMap$0$?_Buynode0@?$_Tree_comp_alloc@V?$_Tmap_traits@IUTypeInheritance@cldb@@U?$less@I@std@@V?$allocator@U?$pair@$$CBIUTypeInheritance@cldb@@@std@@@4@$0A@@std@@@std@@QEAAPEAU?$_Tree_node@U?$pair@$$CBIUTypeInheritance@cldb@@@std@@PEAX@2@XZ 0000000180000000     clReflectCore:Database.obj
 0002:fffcc000       $ip2state$??$_Insert_nohint@U?$pair@$$CBIUTypeInheritance@cldb@@@std@@U_Not_a_node_tag@2@@?$_Tree@V?$_Tmap_traits@IUTypeInheritance@cldb@@U?$less@I@std@@V?$allocator@U?$pair@$$CBIUTypeInheritance@cldb@@@std@@@4@$0A@@std@@@std@@IEAA?AU?$pair@V?$_Tree_iterator@V?$_Tree_val@U?$_Tree_simple_types@U?$pair@$$CBIUTypeInheritance@cldb@@@std@@@std@@@std@@@std@@_N@1@_N$$QEAU?$pair@$$CBIUTypeInheritance@cldb@@@1@U_Not_a_node_tag@1@@Z 0000000180000000     clReflectCore:DatabaseTextSerialiser.obj
 0002:fffcc000       $unwind$?catch$0@?0???$_Insert_nohint@U?$pair@$$CBIUTypeInheritance@cldb@@@std@@U_Not_a_node_tag@2@@?$_Tree@V?$_Tmap_traits@IUTypeInheritance@cldb@@U?$less@I@std@@V?$allocator@U?$pair@$$CBIUTypeInheritance@cldb@@@std@@@4@$0A@@std@@@std@@IEAA?AU?$pair@V?$_Tree_iterator@V?$_Tree_val@U?$_Tree_simple_types@U?$pair@$$CBIUTypeInheritance@cldb@@@std@@@std@@@std@@@std@@_N@1@_N$$QEAU?$pair@$$CBIUTypeInheritance@cldb@@@1@U_Not_a_node_tag@1@@Z@4HA 0000000180000000     clReflectCore:DatabaseTextSerialiser.obj
 0004:fffba000       $pdata$?catch$0@?0???$_Insert_nohint@U?$pair@$$CBIUTypeInheritance@cldb@@@std@@U_Not_a_node_tag@2@@?$_Tree@V?$_Tmap_traits@IUTypeInheritance@cldb@@U?$less@I@std@@V?$allocator@U?$pair@$$CBIUTypeInheritance@cldb@@@std@@@4@$0A@@std@@@std@@IEAA?AU?$pair@V?$_Tree_iterator@V?$_Tree_val@U?$_Tree_simple_types@U?$pair@$$CBIUTypeInheritance@cldb@@@std@@@std@@@std@@@std@@_N@1@_N$$QEAU?$pair@$$CBIUTypeInheritance@cldb@@@1@U_Not_a_node_tag@1@@Z@4HA 0000000180000000     clReflectCore:DatabaseTextSerialiser.obj
 0002:fffcc000       $unwind$?deallocate@?$allocator@U?$_Tree_node@U?$pair@$$CBIUField@cldb@@@std@@PEAX@std@@@std@@QEAAXQEAU?$_Tree_node@U?$pair@$$CBIUField@cldb@@@std@@PEAX@2@_K@Z 0000000180000000     clReflectCore:Database.obj
 0002:fffcc000       $unwind$??$Add@UNamespace@cldb@@@Database@cldb@@QEAAXAEBUName@1@AEBUNamespace@1@@Z 0000000180000000     clReflectCore:DatabaseTextSerialiser.obj
 0004:fffba000       $pdata$??$Add@UNamespace@cldb@@@Database@cldb@@QEAAXAEBUName@1@AEBUNamespace@1@@Z 0000000180000000     clReflectCore:DatabaseTextSerialiser.obj
 0002:fffcc000       $cppxdata$??$Add@UNamespace@cldb@@@Database@cldb@@QEAAXAEBUName@1@AEBUNamespace@1@@Z 0000000180000000     clReflectCore:DatabaseTextSerialiser.obj
 0002:fffcc000       $stateUnwindMap$??$Add@UNamespace@cldb@@@Database@cldb@@QEAAXAEBUName@1@AEBUNamespace@1@@Z 0000000180000000     clReflectCore:DatabaseTextSerialiser.obj
 0002:fffcc000       $ip2state$??$Add@UNamespace@cldb@@@Database@cldb@@QEAAXAEBUName@1@AEBUNamespace@1@@Z 0000000180000000     clReflectCore:DatabaseTextSerialiser.obj
 0002:fffcc000       $unwind$??$Add@UTemplate@cldb@@@Database@cldb@@QEAAXAEBUName@1@AEBUTemplate@1@@Z 0000000180000000     clReflectCore:DatabaseTextSerialiser.obj
 0004:fffba000       $pdata$??$Add@UTemplate@cldb@@@Database@cldb@@QEAAXAEBUName@1@AEBUTemplate@1@@Z 0000000180000000     clReflectCore:DatabaseTextSerialiser.obj
 0002:fffcc000       $cppxdata$??$Add@UTemplate@cldb@@@Database@cldb@@QEAAXAEBUName@1@AEBUTemplate@1@@Z 0000000180000000     clReflectCore:DatabaseTextSerialiser.obj
 0002:fffcc000       $stateUnwindMap$??$Add@UTemplate@cldb@@@Database@cldb@@QEAAXAEBUName@1@AEBUTemplate@1@@Z 0000000180000000     clReflectCore:DatabaseTextSerialiser.obj
 0002:fffcc000       $ip2state$??$Add@UTemplate@cldb@@@Database@cldb@@QEAAXAEBUName@1@AEBUTemplate@1@@Z 0000000180000000     clReflectCore:DatabaseTextSerialiser.obj
 0002:fffcc000       $unwind$??$Add@UFlagAttribute@cldb@@@Database@cldb@@QEAAXAEBUName@1@AEBUFlagAttribute@1@@Z 0000000180000000     clReflectCore:DatabaseTextSerialiser.obj
 0004:fffba000       $pdata$??$Add@UFlagAttribute@cldb@@@Database@cldb@@QEAAXAEBUName@1@AEBUFlagAttribute@1@@Z 0000000180000000     clReflectCore:DatabaseTextSerialiser.obj
 0002:fffcc000       $cppxdata$??$Add@UFlagAttribute@cldb@@@Database@cldb@@QEAAXAEBUName@1@AEBUFlagAttribute@1@@Z 0000000180000000     clReflectCore:DatabaseTextSerialiser.obj
 0002:fffcc000       $stateUnwindMap$??$Add@UFlagAttribute@cldb@@@Database@cldb@@QEAAXAEBUName@1@AEBUFlagAttribute@1@@Z 0000000180000000     clReflectCore:DatabaseTextSerialiser.obj
 0002:fffcc000       $ip2state$??$Add@UFlagAttribute@cldb@@@Database@cldb@@QEAAXAEBUName@1@AEBUFlagAttribute@1@@Z 0000000180000000     clReflectCore:DatabaseTextSerialiser.obj
 0002:fffcc000       $unwind$??$_Insert_nohint@U?$pair@$$CBIUType@cldb@@@std@@U_Not_a_node_tag@2@@?$_Tree@V?$_Tmap_traits@IUType@cldb@@U?$less@I@std@@V?$allocator@U?$pair@$$CBIUType@cldb@@@std@@@4@$00@std@@@std@@IEAA?AU?$pair@V?$_Tree_iterator@V?$_Tree_val@U?$_Tree_simple_types@U?$pair@$$CBIUType@cldb@@@std@@@std@@@std@@@std@@_N@1@_N$$QEAU?$pair@$$CBIUType@cldb@@@1@U_Not_a_node_tag@1@@Z 0000000180000000     clReflectCore:DatabaseTextSerialiser.obj
 0004:fffba000       $pdata$??$_Insert_nohint@U?$pair@$$CBIUType@cldb@@@std@@U_Not_a_node_tag@2@@?$_Tree@V?$_Tmap_traits@IUType@cldb@@U?$less@I@std@@V?$allocator@U?$pair@$$CBIUType@cldb@@@std@@@4@$00@std@@@std@@IEAA?AU?$pair@V?$_Tree_iterator@V?$_Tree_val@U?$_Tree_simple_types@U?$pair@$$CBIUType@cldb@@@std@@@std@@@std@@@std@@_N@1@_N$$QEAU?$pair@$$CBIUType@cldb@@@1@U_Not_a_node_tag@1@@Z 0000000180000000     clReflectCore:DatabaseTextSerialiser.obj
 0002:fffcc000       $cppxdata$??$_Insert_nohint@U?$pair@$$CBIUType@cldb@@@std@@U_Not_a_node_tag@2@@?$_Tree@V?$_Tmap_traits@IUType@cldb@@U?$less@I@std@@V?$allocator@U?$pair@$$CBIUType@cldb@@@std@@@4@$00@std@@@std@@IEAA?AU?$pair@V?$_Tree_iterator@V?$_Tree_val@U?$_Tree_simple_types@U?$pair@$$CBIUType@cldb@@@std@@@std@@@std@@@std@@_N@1@_N$$QEAU?$pair@$$CBIUType@cldb@@@1@U_Not_a_node_tag@1@@Z 0000000180000000     clReflectCore:DatabaseTextSerialiser.obj
 0002:fffcc000       $stateUnwindMap$??$_Insert_nohint@U?$pair@$$CBIUType@cldb@@@std@@U_Not_a_node_tag@2@@?$_Tree@V?$_Tmap_traits@IUType@cldb@@U?$less@I@std@@V?$allocator@U?$pair@$$CBIUType@cldb@@@std@@@4@$00@std@@@std@@IEAA?AU?$pair@V?$_Tree_iterator@V?$_Tree_val@U?$_Tree_simple_types@U?$pair@$$CBIUType@cldb@@@std@@@std@@@std@@@std@@_N@1@_N$$QEAU?$pair@$$CBIUType@cldb@@@1@U_Not_a_node_tag@1@@Z 0000000180000000     clReflectCore:DatabaseTextSerialiser.obj
 0002:fffcc000       $tryMap$??$_Insert_nohint@U?$pair@$$CBIUType@cldb@@@std@@U_Not_a_node_tag@2@@?$_Tree@V?$_Tmap_traits@IUType@cldb@@U?$less@I@std@@V?$allocator@U?$pair@$$CBIUType@cldb@@@std@@@4@$00@std@@@std@@IEAA?AU?$pair@V?$_Tree_iterator@V?$_Tree_val@U?$_Tree_simple_types@U?$pair@$$CBIUType@cldb@@@std@@@std@@@std@@@std@@_N@1@_N$$QEAU?$pair@$$CBIUType@cldb@@@1@U_Not_a_node_tag@1@@Z 0000000180000000     clReflectCore:DatabaseTextSerialiser.obj
 0002:fffcc000       $handlerMap$0$??$_Insert_nohint@U?$pair@$$CBIUType@cldb@@@std@@U_Not_a_node_tag@2@@?$_Tree@V?$_Tmap_traits@IUType@cldb@@U?$less@I@std@@V?$allocator@U?$pair@$$CBIUType@cldb@@@std@@@4@$00@std@@@std@@IEAA?AU?$pair@V?$_Tree_iterator@V?$_Tree_val@U?$_Tree_simple_types@U?$pair@$$CBIUType@cldb@@@std@@@std@@@std@@@std@@_N@1@_N$$QEAU?$pair@$$CBIUType@cldb@@@1@U_Not_a_node_tag@1@@Z 0000000180000000     clReflectCore:DatabaseTextSerialiser.obj
 0002:fffcc000       $ip2state$??$_Insert_nohint@U?$pair@$$CBIUType@cldb@@@std@@U_Not_a_node_tag@2@@?$_Tree@V?$_Tmap_traits@IUType@cldb@@U?$less@I@std@@V?$allocator@U?$pair@$$CBIUType@cldb@@@std@@@4@$00@std@@@std@@IEAA?AU?$pair@V?$_Tree_iterator@V?$_Tree_val@U?$_Tree_simple_types@U?$pair@$$CBIUType@cldb@@@std@@@std@@@std@@@std@@_N@1@_N$$QEAU?$pair@$$CBIUType@cldb@@@1@U_Not_a_node_tag@1@@Z 0000000180000000     clReflectCore:DatabaseTextSerialiser.obj
 0002:fffcc000       $unwind$?catch$0@?0???$_Insert_nohint@U?$pair@$$CBIUType@cldb@@@std@@U_Not_a_node_tag@2@@?$_Tree@V?$_Tmap_traits@IUType@cldb@@U?$less@I@std@@V?$allocator@U?$pair@$$CBIUType@cldb@@@std@@@4@$00@std@@@std@@IEAA?AU?$pair@V?$_Tree_iterator@V?$_Tree_val@U?$_Tree_simple_types@U?$pair@$$CBIUType@cldb@@@std@@@std@@@std@@@std@@_N@1@_N$$QEAU?$pair@$$CBIUType@cldb@@@1@U_Not_a_node_tag@1@@Z@4HA 0000000180000000     clReflectCore:DatabaseTextSerialiser.obj
 0004:fffba000       $pdata$?catch$0@?0???$_Insert_nohint@U?$pair@$$CBIUType@cldb@@@std@@U_Not_a_node_tag@2@@?$_Tree@V?$_Tmap_traits@IUType@cldb@@U?$less@I@std@@V?$allocator@U?$pair@$$CBIUType@cldb@@@std@@@4@$00@std@@@std@@IEAA?AU?$pair@V?$_Tree_iterator@V?$_Tree_val@U?$_Tree_simple_types@U?$pair@$$CBIUType@cldb@@@std@@@std@@@std@@@std@@_N@1@_N$$QEAU?$pair@$$CBIUType@cldb@@@1@U_Not_a_node_tag@1@@Z@4HA 0000000180000000     clReflectCore:DatabaseTextSerialiser.obj
 0002:fffcc000       $unwind$??$_Insert_nohint@U?$pair@$$CBIUEnumConstant@cldb@@@std@@U_Not_a_node_tag@2@@?$_Tree@V?$_Tmap_traits@IUEnumConstant@cldb@@U?$less@I@std@@V?$allocator@U?$pair@$$CBIUEnumConstant@cldb@@@std@@@4@$00@std@@@std@@IEAA?AU?$pair@V?$_Tree_iterator@V?$_Tree_val@U?$_Tree_simple_types@U?$pair@$$CBIUEnumConstant@cldb@@@std@@@std@@@std@@@std@@_N@1@_N$$QEAU?$pair@$$CBIUEnumConstant@cldb@@@1@U_Not_a_node_tag@1@@Z 0000000180000000     clReflectCore:DatabaseTextSerialiser.obj
 0004:fffba000       $pdata$??$_Insert_nohint@U?$pair@$$CBIUEnumConstant@cldb@@@std@@U_Not_a_node_tag@2@@?$_Tree@V?$_Tmap_traits@IUEnumConstant@cldb@@U?$less@I@std@@V?$allocator@U?$pair@$$CBIUEnumConstant@cldb@@@std@@@4@$00@std@@@std@@IEAA?AU?$pair@V?$_Tree_iterator@V?$_Tree_val@U?$_Tree_simple_types@U?$pair@$$CBIUEnumConstant@cldb@@@std@@@std@@@std@@@std@@_N@1@_N$$QEAU?$pair@$$CBIUEnumConstant@cldb@@@1@U_Not_a_node_tag@1@@Z 0000000180000000     clReflectCore:DatabaseTextSerialiser.obj
 0002:fffcc000       $cppxdata$??$_Insert_nohint@U?$pair@$$CBIUEnumConstant@cldb@@@std@@U_Not_a_node_tag@2@@?$_Tree@V?$_Tmap_traits@IUEnumConstant@cldb@@U?$less@I@std@@V?$allocator@U?$pair@$$CBIUEnumConstant@cldb@@@std@@@4@$00@std@@@std@@IEAA?AU?$pair@V?$_Tree_iterator@V?$_Tree_val@U?$_Tree_simple_types@U?$pair@$$CBIUEnumConstant@cldb@@@std@@@std@@@std@@@std@@_N@1@_N$$QEAU?$pair@$$CBIUEnumConstant@cldb@@@1@U_Not_a_node_tag@1@@Z 0000000180000000     clReflectCore:DatabaseTextSerialiser.obj
 0002:fffcc000       $stateUnwindMap$??$_Insert_nohint@U?$pair@$$CBIUEnumConstant@cldb@@@std@@U_Not_a_node_tag@2@@?$_Tree@V?$_Tmap_traits@IUEnumConstant@cldb@@U?$less@I@std@@V?$allocator@U?$pair@$$CBIUEnumConstant@cldb@@@std@@@4@$00@std@@@std@@IEAA?AU?$pair@V?$_Tree_iterator@V?$_Tree_val@U?$_Tree_simple_types@U?$pair@$$CBIUEnumConstant@cldb@@@std@@@std@@@std@@@std@@_N@1@_N$$QEAU?$pair@$$CBIUEnumConstant@cldb@@@1@U_Not_a_node_tag@1@@Z 0000000180000000     clReflectCore:DatabaseTextSerialiser.obj
 0002:fffcc000       $tryMap$??$_Insert_nohint@U?$pair@$$CBIUEnumConstant@cldb@@@std@@U_Not_a_node_tag@2@@?$_Tree@V?$_Tmap_traits@IUEnumConstant@cldb@@U?$less@I@std@@V?$allocator@U?$pair@$$CBIUEnumConstant@cldb@@@std@@@4@$00@std@@@std@@IEAA?AU?$pair@V?$_Tree_iterator@V?$_Tree_val@U?$_Tree_simple_types@U?$pair@$$CBIUEnumConstant@cldb@@@std@@@std@@@std@@@std@@_N@1@_N$$QEAU?$pair@$$CBIUEnumConstant@cldb@@@1@U_Not_a_node_tag@1@@Z 0000000180000000     clReflectCore:DatabaseTextSerialiser.obj
 0002:fffcc000       $handlerMap$0$??$_Insert_nohint@U?$pair@$$CBIUEnumConstant@cldb@@@std@@U_Not_a_node_tag@2@@?$_Tree@V?$_Tmap_traits@IUEnumConstant@cldb@@U?$less@I@std@@V?$allocator@U?$pair@$$CBIUEnumConstant@cldb@@@std@@@4@$00@std@@@std@@IEAA?AU?$pair@V?$_Tree_iterator@V?$_Tree_val@U?$_Tree_simple_types@U?$pair@$$CBIUEnumConstant@cldb@@@std@@@std@@@std@@@std@@_N@1@_N$$QEAU?$pair@$$CBIUEnumConstant@cldb@@@1@U_Not_a_node_tag@1@@Z 0000000180000000     clReflectCore:DatabaseTextSerialiser.obj
 0002:fffcc000       $ip2state$??$_Insert_nohint@U?$pair@$$CBIUEnumConstant@cldb@@@std@@U_Not_a_node_tag@2@@?$_Tree@V?$_Tmap_traits@IUEnumConstant@cldb@@U?$less@I@std@@V?$allocator@U?$pair@$$CBIUEnumConstant@cldb@@@std@@@4@$00@std@@@std@@IEAA?AU?$pair@V?$_Tree_iterator@V?$_Tree_val@U?$_Tree_simple_types@U?$pair@$$CBIUEnumConstant@cldb@@@std@@@std@@@std@@@std@@_N@1@_N$$QEAU?$pair@$$CBIUEnumConstant@cldb@@@1@U_Not_a_node_tag@1@@Z 0000000180000000     clReflectCore:DatabaseTextSerialiser.obj
 0002:fffcc000       $unwind$?catch$0@?0???$_Insert_nohint@U?$pair@$$CBIUEnumConstant@cldb@@@std@@U_Not_a_node_tag@2@@?$_Tree@V?$_Tmap_traits@IUEnumConstant@cldb@@U?$less@I@std@@V?$allocator@U?$pair@$$CBIUEnumConstant@cldb@@@std@@@4@$00@std@@@std@@IEAA?AU?$pair@V?$_Tree_iterator@V?$_Tree_val@U?$_Tree_simple_types@U?$pair@$$CBIUEnumConstant@cldb@@@std@@@std@@@std@@@std@@_N@1@_N$$QEAU?$pair@$$CBIUEnumConstant@cldb@@@1@U_Not_a_node_tag@1@@Z@4HA 0000000180000000     clReflectCore:DatabaseTextSerialiser.obj
 0004:fffba000       $pdata$?catch$0@?0???$_Insert_nohint@U?$pair@$$CBIUEnumConstant@cldb@@@std@@U_Not_a_node_tag@2@@?$_Tree@V?$_Tmap_traits@IUEnumConstant@cldb@@U?$less@I@std@@V?$allocator@U?$pair@$$CBIUEnumConstant@cldb@@@std@@@4@$00@std@@@std@@IEAA?AU?$pair@V?$_Tree_iterator@V?$_Tree_val@U?$_Tree_simple_types@U?$pair@$$CBIUEnumConstant@cldb@@@std@@@std@@@std@@@std@@_N@1@_N$$QEAU?$pair@$$CBIUEnumConstant@cldb@@@1@U_Not_a_node_tag@1@@Z@4HA 0000000180000000     clReflectCore:DatabaseTextSerialiser.obj
 0002:fffcc000       $unwind$??$_Insert_nohint@U?$pair@$$CBIUEnum@cldb@@@std@@U_Not_a_node_tag@2@@?$_Tree@V?$_Tmap_traits@IUEnum@cldb@@U?$less@I@std@@V?$allocator@U?$pair@$$CBIUEnum@cldb@@@std@@@4@$00@std@@@std@@IEAA?AU?$pair@V?$_Tree_iterator@V?$_Tree_val@U?$_Tree_simple_types@U?$pair@$$CBIUEnum@cldb@@@std@@@std@@@std@@@std@@_N@1@_N$$QEAU?$pair@$$CBIUEnum@cldb@@@1@U_Not_a_node_tag@1@@Z 0000000180000000     clReflectCore:DatabaseTextSerialiser.obj
 0004:fffba000       $pdata$??$_Insert_nohint@U?$pair@$$CBIUEnum@cldb@@@std@@U_Not_a_node_tag@2@@?$_Tree@V?$_Tmap_traits@IUEnum@cldb@@U?$less@I@std@@V?$allocator@U?$pair@$$CBIUEnum@cldb@@@std@@@4@$00@std@@@std@@IEAA?AU?$pair@V?$_Tree_iterator@V?$_Tree_val@U?$_Tree_simple_types@U?$pair@$$CBIUEnum@cldb@@@std@@@std@@@std@@@std@@_N@1@_N$$QEAU?$pair@$$CBIUEnum@cldb@@@1@U_Not_a_node_tag@1@@Z 0000000180000000     clReflectCore:DatabaseTextSerialiser.obj
 0002:fffcc000       $cppxdata$??$_Insert_nohint@U?$pair@$$CBIUEnum@cldb@@@std@@U_Not_a_node_tag@2@@?$_Tree@V?$_Tmap_traits@IUEnum@cldb@@U?$less@I@std@@V?$allocator@U?$pair@$$CBIUEnum@cldb@@@std@@@4@$00@std@@@std@@IEAA?AU?$pair@V?$_Tree_iterator@V?$_Tree_val@U?$_Tree_simple_types@U?$pair@$$CBIUEnum@cldb@@@std@@@std@@@std@@@std@@_N@1@_N$$QEAU?$pair@$$CBIUEnum@cldb@@@1@U_Not_a_node_tag@1@@Z 0000000180000000     clReflectCore:DatabaseTextSerialiser.obj
 0002:fffcc000       $stateUnwindMap$??$_Insert_nohint@U?$pair@$$CBIUEnum@cldb@@@std@@U_Not_a_node_tag@2@@?$_Tree@V?$_Tmap_traits@IUEnum@cldb@@U?$less@I@std@@V?$allocator@U?$pair@$$CBIUEnum@cldb@@@std@@@4@$00@std@@@std@@IEAA?AU?$pair@V?$_Tree_iterator@V?$_Tree_val@U?$_Tree_simple_types@U?$pair@$$CBIUEnum@cldb@@@std@@@std@@@std@@@std@@_N@1@_N$$QEAU?$pair@$$CBIUEnum@cldb@@@1@U_Not_a_node_tag@1@@Z 0000000180000000     clReflectCore:DatabaseTextSerialiser.obj
 0002:fffcc000       $tryMap$??$_Insert_nohint@U?$pair@$$CBIUEnum@cldb@@@std@@U_Not_a_node_tag@2@@?$_Tree@V?$_Tmap_traits@IUEnum@cldb@@U?$less@I@std@@V?$allocator@U?$pair@$$CBIUEnum@cldb@@@std@@@4@$00@std@@@std@@IEAA?AU?$pair@V?$_Tree_iterator@V?$_Tree_val@U?$_Tree_simple_types@U?$pair@$$CBIUEnum@cldb@@@std@@@std@@@std@@@std@@_N@1@_N$$QEAU?$pair@$$CBIUEnum@cldb@@@1@U_Not_a_node_tag@1@@Z 0000000180000000     clReflectCore:DatabaseTextSerialiser.obj
 0002:fffcc000       $handlerMap$0$??$_Insert_nohint@U?$pair@$$CBIUEnum@cldb@@@std@@U_Not_a_node_tag@2@@?$_Tree@V?$_Tmap_traits@IUEnum@cldb@@U?$less@I@std@@V?$allocator@U?$pair@$$CBIUEnum@cldb@@@std@@@4@$00@std@@@std@@IEAA?AU?$pair@V?$_Tree_iterator@V?$_Tree_val@U?$_Tree_simple_types@U?$pair@$$CBIUEnum@cldb@@@std@@@std@@@std@@@std@@_N@1@_N$$QEAU?$pair@$$CBIUEnum@cldb@@@1@U_Not_a_node_tag@1@@Z 0000000180000000     clReflectCore:DatabaseTextSerialiser.obj
 0002:fffcc000       $ip2state$??$_Insert_nohint@U?$pair@$$CBIUEnum@cldb@@@std@@U_Not_a_node_tag@2@@?$_Tree@V?$_Tmap_traits@IUEnum@cldb@@U?$less@I@std@@V?$allocator@U?$pair@$$CBIUEnum@cldb@@@std@@@4@$00@std@@@std@@IEAA?AU?$pair@V?$_Tree_iterator@V?$_Tree_val@U?$_Tree_simple_types@U?$pair@$$CBIUEnum@cldb@@@std@@@std@@@std@@@std@@_N@1@_N$$QEAU?$pair@$$CBIUEnum@cldb@@@1@U_Not_a_node_tag@1@@Z 0000000180000000     clReflectCore:DatabaseTextSerialiser.obj
 0002:fffcc000       $unwind$?catch$0@?0???$_Insert_nohint@U?$pair@$$CBIUEnum@cldb@@@std@@U_Not_a_node_tag@2@@?$_Tree@V?$_Tmap_traits@IUEnum@cldb@@U?$less@I@std@@V?$allocator@U?$pair@$$CBIUEnum@cldb@@@std@@@4@$00@std@@@std@@IEAA?AU?$pair@V?$_Tree_iterator@V?$_Tree_val@U?$_Tree_simple_types@U?$pair@$$CBIUEnum@cldb@@@std@@@std@@@std@@@std@@_N@1@_N$$QEAU?$pair@$$CBIUEnum@cldb@@@1@U_Not_a_node_tag@1@@Z@4HA 0000000180000000     clReflectCore:DatabaseTextSerialiser.obj
 0004:fffba000       $pdata$?catch$0@?0???$_Insert_nohint@U?$pair@$$CBIUEnum@cldb@@@std@@U_Not_a_node_tag@2@@?$_Tree@V?$_Tmap_traits@IUEnum@cldb@@U?$less@I@std@@V?$allocator@U?$pair@$$CBIUEnum@cldb@@@std@@@4@$00@std@@@std@@IEAA?AU?$pair@V?$_Tree_iterator@V?$_Tree_val@U?$_Tree_simple_types@U?$pair@$$CBIUEnum@cldb@@@std@@@std@@@std@@@std@@_N@1@_N$$QEAU?$pair@$$CBIUEnum@cldb@@@1@U_Not_a_node_tag@1@@Z@4HA 0000000180000000     clReflectCore:DatabaseTextSerialiser.obj
 0002:fffcc000       $unwind$??$_Insert_nohint@U?$pair@$$CBIUField@cldb@@@std@@U_Not_a_node_tag@2@@?$_Tree@V?$_Tmap_traits@IUField@cldb@@U?$less@I@std@@V?$allocator@U?$pair@$$CBIUField@cldb@@@std@@@4@$00@std@@@std@@IEAA?AU?$pair@V?$_Tree_iterator@V?$_Tree_val@U?$_Tree_simple_types@U?$pair@$$CBIUField@cldb@@@std@@@std@@@std@@@std@@_N@1@_N$$QEAU?$pair@$$CBIUField@cldb@@@1@U_Not_a_node_tag@1@@Z 0000000180000000     clReflectCore:DatabaseTextSerialiser.obj
 0004:fffba000       $pdata$??$_Insert_nohint@U?$pair@$$CBIUField@cldb@@@std@@U_Not_a_node_tag@2@@?$_Tree@V?$_Tmap_traits@IUField@cldb@@U?$less@I@std@@V?$allocator@U?$pair@$$CBIUField@cldb@@@std@@@4@$00@std@@@std@@IEAA?AU?$pair@V?$_Tree_iterator@V?$_Tree_val@U?$_Tree_simple_types@U?$pair@$$CBIUField@cldb@@@std@@@std@@@std@@@std@@_N@1@_N$$QEAU?$pair@$$CBIUField@cldb@@@1@U_Not_a_node_tag@1@@Z 0000000180000000     clReflectCore:DatabaseTextSerialiser.obj
 0002:fffcc000       $cppxdata$??$_Insert_nohint@U?$pair@$$CBIUField@cldb@@@std@@U_Not_a_node_tag@2@@?$_Tree@V?$_Tmap_traits@IUField@cldb@@U?$less@I@std@@V?$allocator@U?$pair@$$CBIUField@cldb@@@std@@@4@$00@std@@@std@@IEAA?AU?$pair@V?$_Tree_iterator@V?$_Tree_val@U?$_Tree_simple_types@U?$pair@$$CBIUField@cldb@@@std@@@std@@@std@@@std@@_N@1@_N$$QEAU?$pair@$$CBIUField@cldb@@@1@U_Not_a_node_tag@1@@Z 0000000180000000     clReflectCore:DatabaseTextSerialiser.obj
 0002:fffcc000       $stateUnwindMap$??$_Insert_nohint@U?$pair@$$CBIUField@cldb@@@std@@U_Not_a_node_tag@2@@?$_Tree@V?$_Tmap_traits@IUField@cldb@@U?$less@I@std@@V?$allocator@U?$pair@$$CBIUField@cldb@@@std@@@4@$00@std@@@std@@IEAA?AU?$pair@V?$_Tree_iterator@V?$_Tree_val@U?$_Tree_simple_types@U?$pair@$$CBIUField@cldb@@@std@@@std@@@std@@@std@@_N@1@_N$$QEAU?$pair@$$CBIUField@cldb@@@1@U_Not_a_node_tag@1@@Z 0000000180000000     clReflectCore:DatabaseTextSerialiser.obj
 0002:fffcc000       $tryMap$??$_Insert_nohint@U?$pair@$$CBIUField@cldb@@@std@@U_Not_a_node_tag@2@@?$_Tree@V?$_Tmap_traits@IUField@cldb@@U?$less@I@std@@V?$allocator@U?$pair@$$CBIUField@cldb@@@std@@@4@$00@std@@@std@@IEAA?AU?$pair@V?$_Tree_iterator@V?$_Tree_val@U?$_Tree_simple_types@U?$pair@$$CBIUField@cldb@@@std@@@std@@@std@@@std@@_N@1@_N$$QEAU?$pair@$$CBIUField@cldb@@@1@U_Not_a_node_tag@1@@Z 0000000180000000     clReflectCore:DatabaseTextSerialiser.obj
 0002:fffcc000       $handlerMap$0$??$_Insert_nohint@U?$pair@$$CBIUField@cldb@@@std@@U_Not_a_node_tag@2@@?$_Tree@V?$_Tmap_traits@IUField@cldb@@U?$less@I@std@@V?$allocator@U?$pair@$$CBIUField@cldb@@@std@@@4@$00@std@@@std@@IEAA?AU?$pair@V?$_Tree_iterator@V?$_Tree_val@U?$_Tree_simple_types@U?$pair@$$CBIUField@cldb@@@std@@@std@@@std@@@std@@_N@1@_N$$QEAU?$pair@$$CBIUField@cldb@@@1@U_Not_a_node_tag@1@@Z 0000000180000000     clReflectCore:DatabaseTextSerialiser.obj
 0002:fffcc000       $ip2state$??$_Insert_nohint@U?$pair@$$CBIUField@cldb@@@std@@U_Not_a_node_tag@2@@?$_Tree@V?$_Tmap_traits@IUField@cldb@@U?$less@I@std@@V?$allocator@U?$pair@$$CBIUField@cldb@@@std@@@4@$00@std@@@std@@IEAA?AU?$pair@V?$_Tree_iterator@V?$_Tree_val@U?$_Tree_simple_types@U?$pair@$$CBIUField@cldb@@@std@@@std@@@std@@@std@@_N@1@_N$$QEAU?$pair@$$CBIUField@cldb@@@1@U_Not_a_node_tag@1@@Z 0000000180000000     clReflectCore:DatabaseTextSerialiser.obj
 0002:fffcc000       $unwind$?catch$0@?0???$_Insert_nohint@U?$pair@$$CBIUField@cldb@@@std@@U_Not_a_node_tag@2@@?$_Tree@V?$_Tmap_traits@IUField@cldb@@U?$less@I@std@@V?$allocator@U?$pair@$$CBIUField@cldb@@@std@@@4@$00@std@@@std@@IEAA?AU?$pair@V?$_Tree_iterator@V?$_Tree_val@U?$_Tree_simple_types@U?$pair@$$CBIUField@cldb@@@std@@@std@@@std@@@std@@_N@1@_N$$QEAU?$pair@$$CBIUField@cldb@@@1@U_Not_a_node_tag@1@@Z@4HA 0000000180000000     clReflectCore:DatabaseTextSerialiser.obj
 0004:fffba000       $pdata$?catch$0@?0???$_Insert_nohint@U?$pair@$$CBIUField@cldb@@@std@@U_Not_a_node_tag@2@@?$_Tree@V?$_Tmap_traits@IUField@cldb@@U?$less@I@std@@V?$allocator@U?$pair@$$CBIUField@cldb@@@std@@@4@$00@std@@@std@@IEAA?AU?$pair@V?$_Tree_iterator@V?$_Tree_val@U?$_Tree_simple_types@U?$pair@$$CBIUField@cldb@@@std@@@std@@@std@@@std@@_N@1@_N$$QEAU?$pair@$$CBIUField@cldb@@@1@U_Not_a_node_tag@1@@Z@4HA 0000000180000000     clReflectCore:DatabaseTextSerialiser.obj
 0002:fffcc000       $unwind$??$_Insert_nohint@U?$pair@$$CBIUFunction@cldb@@@std@@U_Not_a_node_tag@2@@?$_Tree@V?$_Tmap_traits@IUFunction@cldb@@U?$less@I@std@@V?$allocator@U?$pair@$$CBIUFunction@cldb@@@std@@@4@$00@std@@@std@@IEAA?AU?$pair@V?$_Tree_iterator@V?$_Tree_val@U?$_Tree_simple_types@U?$pair@$$CBIUFunction@cldb@@@std@@@std@@@std@@@std@@_N@1@_N$$QEAU?$pair@$$CBIUFunction@cldb@@@1@U_Not_a_node_tag@1@@Z 0000000180000000     clReflectCore:DatabaseTextSerialiser.obj
 0004:fffba000       $pdata$??$_Insert_nohint@U?$pair@$$CBIUFunction@cldb@@@std@@U_Not_a_node_tag@2@@?$_Tree@V?$_Tmap_traits@IUFunction@cldb@@U?$less@I@std@@V?$allocator@U?$pair@$$CBIUFunction@cldb@@@std@@@4@$00@std@@@std@@IEAA?AU?$pair@V?$_Tree_iterator@V?$_Tree_val@U?$_Tree_simple_types@U?$pair@$$CBIUFunction@cldb@@@std@@@std@@@std@@@std@@_N@1@_N$$QEAU?$pair@$$CBIUFunction@cldb@@@1@U_Not_a_node_tag@1@@Z 0000000180000000     clReflectCore:DatabaseTextSerialiser.obj
 0002:fffcc000       $cppxdata$??$_Insert_nohint@U?$pair@$$CBIUFunction@cldb@@@std@@U_Not_a_node_tag@2@@?$_Tree@V?$_Tmap_traits@IUFunction@cldb@@U?$less@I@std@@V?$allocator@U?$pair@$$CBIUFunction@cldb@@@std@@@4@$00@std@@@std@@IEAA?AU?$pair@V?$_Tree_iterator@V?$_Tree_val@U?$_Tree_simple_types@U?$pair@$$CBIUFunction@cldb@@@std@@@std@@@std@@@std@@_N@1@_N$$QEAU?$pair@$$CBIUFunction@cldb@@@1@U_Not_a_node_tag@1@@Z 0000000180000000     clReflectCore:DatabaseTextSerialiser.obj
 0002:fffcc000       $stateUnwindMap$??$_Insert_nohint@U?$pair@$$CBIUFunction@cldb@@@std@@U_Not_a_node_tag@2@@?$_Tree@V?$_Tmap_traits@IUFunction@cldb@@U?$less@I@std@@V?$allocator@U?$pair@$$CBIUFunction@cldb@@@std@@@4@$00@std@@@std@@IEAA?AU?$pair@V?$_Tree_iterator@V?$_Tree_val@U?$_Tree_simple_types@U?$pair@$$CBIUFunction@cldb@@@std@@@std@@@std@@@std@@_N@1@_N$$QEAU?$pair@$$CBIUFunction@cldb@@@1@U_Not_a_node_tag@1@@Z 0000000180000000     clReflectCore:DatabaseTextSerialiser.obj
 0002:fffcc000       $tryMap$??$_Insert_nohint@U?$pair@$$CBIUFunction@cldb@@@std@@U_Not_a_node_tag@2@@?$_Tree@V?$_Tmap_traits@IUFunction@cldb@@U?$less@I@std@@V?$allocator@U?$pair@$$CBIUFunction@cldb@@@std@@@4@$00@std@@@std@@IEAA?AU?$pair@V?$_Tree_iterator@V?$_Tree_val@U?$_Tree_simple_types@U?$pair@$$CBIUFunction@cldb@@@std@@@std@@@std@@@std@@_N@1@_N$$QEAU?$pair@$$CBIUFunction@cldb@@@1@U_Not_a_node_tag@1@@Z 0000000180000000     clReflectCore:DatabaseTextSerialiser.obj
 0002:fffcc000       $handlerMap$0$??$_Insert_nohint@U?$pair@$$CBIUFunction@cldb@@@std@@U_Not_a_node_tag@2@@?$_Tree@V?$_Tmap_traits@IUFunction@cldb@@U?$less@I@std@@V?$allocator@U?$pair@$$CBIUFunction@cldb@@@std@@@4@$00@std@@@std@@IEAA?AU?$pair@V?$_Tree_iterator@V?$_Tree_val@U?$_Tree_simple_types@U?$pair@$$CBIUFunction@cldb@@@std@@@std@@@std@@@std@@_N@1@_N$$QEAU?$pair@$$CBIUFunction@cldb@@@1@U_Not_a_node_tag@1@@Z 0000000180000000     clReflectCore:DatabaseTextSerialiser.obj
 0002:fffcc000       $ip2state$??$_Insert_nohint@U?$pair@$$CBIUFunction@cldb@@@std@@U_Not_a_node_tag@2@@?$_Tree@V?$_Tmap_traits@IUFunction@cldb@@U?$less@I@std@@V?$allocator@U?$pair@$$CBIUFunction@cldb@@@std@@@4@$00@std@@@std@@IEAA?AU?$pair@V?$_Tree_iterator@V?$_Tree_val@U?$_Tree_simple_types@U?$pair@$$CBIUFunction@cldb@@@std@@@std@@@std@@@std@@_N@1@_N$$QEAU?$pair@$$CBIUFunction@cldb@@@1@U_Not_a_node_tag@1@@Z 0000000180000000     clReflectCore:DatabaseTextSerialiser.obj
 0002:fffcc000       $unwind$?catch$0@?0???$_Insert_nohint@U?$pair@$$CBIUFunction@cldb@@@std@@U_Not_a_node_tag@2@@?$_Tree@V?$_Tmap_traits@IUFunction@cldb@@U?$less@I@std@@V?$allocator@U?$pair@$$CBIUFunction@cldb@@@std@@@4@$00@std@@@std@@IEAA?AU?$pair@V?$_Tree_iterator@V?$_Tree_val@U?$_Tree_simple_types@U?$pair@$$CBIUFunction@cldb@@@std@@@std@@@std@@@std@@_N@1@_N$$QEAU?$pair@$$CBIUFunction@cldb@@@1@U_Not_a_node_tag@1@@Z@4HA 0000000180000000     clReflectCore:DatabaseTextSerialiser.obj
 0004:fffba000       $pdata$?catch$0@?0???$_Insert_nohint@U?$pair@$$CBIUFunction@cldb@@@std@@U_Not_a_node_tag@2@@?$_Tree@V?$_Tmap_traits@IUFunction@cldb@@U?$less@I@std@@V?$allocator@U?$pair@$$CBIUFunction@cldb@@@std@@@4@$00@std@@@std@@IEAA?AU?$pair@V?$_Tree_iterator@V?$_Tree_val@U?$_Tree_simple_types@U?$pair@$$CBIUFunction@cldb@@@std@@@std@@@std@@@std@@_N@1@_N$$QEAU?$pair@$$CBIUFunction@cldb@@@1@U_Not_a_node_tag@1@@Z@4HA 0000000180000000     clReflectCore:DatabaseTextSerialiser.obj
 0002:fffcc000       $unwind$??$_Insert_nohint@U?$pair@$$CBIUClass@cldb@@@std@@U_Not_a_node_tag@2@@?$_Tree@V?$_Tmap_traits@IUClass@cldb@@U?$less@I@std@@V?$allocator@U?$pair@$$CBIUClass@cldb@@@std@@@4@$00@std@@@std@@IEAA?AU?$pair@V?$_Tree_iterator@V?$_Tree_val@U?$_Tree_simple_types@U?$pair@$$CBIUClass@cldb@@@std@@@std@@@std@@@std@@_N@1@_N$$QEAU?$pair@$$CBIUClass@cldb@@@1@U_Not_a_node_tag@1@@Z 0000000180000000     clReflectCore:DatabaseTextSerialiser.obj
 0004:fffba000       $pdata$??$_Insert_nohint@U?$pair@$$CBIUClass@cldb@@@std@@U_Not_a_node_tag@2@@?$_Tree@V?$_Tmap_traits@IUClass@cldb@@U?$less@I@std@@V?$allocator@U?$pair@$$CBIUClass@cldb@@@std@@@4@$00@std@@@std@@IEAA?AU?$pair@V?$_Tree_iterator@V?$_Tree_val@U?$_Tree_simple_types@U?$pair@$$CBIUClass@cldb@@@std@@@std@@@std@@@std@@_N@1@_N$$QEAU?$pair@$$CBIUClass@cldb@@@1@U_Not_a_node_tag@1@@Z 0000000180000000     clReflectCore:DatabaseTextSerialiser.obj
 0002:fffcc000       $cppxdata$??$_Insert_nohint@U?$pair@$$CBIUClass@cldb@@@std@@U_Not_a_node_tag@2@@?$_Tree@V?$_Tmap_traits@IUClass@cldb@@U?$less@I@std@@V?$allocator@U?$pair@$$CBIUClass@cldb@@@std@@@4@$00@std@@@std@@IEAA?AU?$pair@V?$_Tree_iterator@V?$_Tree_val@U?$_Tree_simple_types@U?$pair@$$CBIUClass@cldb@@@std@@@std@@@std@@@std@@_N@1@_N$$QEAU?$pair@$$CBIUClass@cldb@@@1@U_Not_a_node_tag@1@@Z 0000000180000000     clReflectCore:DatabaseTextSerialiser.obj
 0002:fffcc000       $stateUnwindMap$??$_Insert_nohint@U?$pair@$$CBIUClass@cldb@@@std@@U_Not_a_node_tag@2@@?$_Tree@V?$_Tmap_traits@IUClass@cldb@@U?$less@I@std@@V?$allocator@U?$pair@$$CBIUClass@cldb@@@std@@@4@$00@std@@@std@@IEAA?AU?$pair@V?$_Tree_iterator@V?$_Tree_val@U?$_Tree_simple_types@U?$pair@$$CBIUClass@cldb@@@std@@@std@@@std@@@std@@_N@1@_N$$QEAU?$pair@$$CBIUClass@cldb@@@1@U_Not_a_node_tag@1@@Z 0000000180000000     clReflectCore:DatabaseTextSerialiser.obj
 0002:fffcc000       $tryMap$??$_Insert_nohint@U?$pair@$$CBIUClass@cldb@@@std@@U_Not_a_node_tag@2@@?$_Tree@V?$_Tmap_traits@IUClass@cldb@@U?$less@I@std@@V?$allocator@U?$pair@$$CBIUClass@cldb@@@std@@@4@$00@std@@@std@@IEAA?AU?$pair@V?$_Tree_iterator@V?$_Tree_val@U?$_Tree_simple_types@U?$pair@$$CBIUClass@cldb@@@std@@@std@@@std@@@std@@_N@1@_N$$QEAU?$pair@$$CBIUClass@cldb@@@1@U_Not_a_node_tag@1@@Z 0000000180000000     clReflectCore:DatabaseTextSerialiser.obj
 0002:fffcc000       $handlerMap$0$??$_Insert_nohint@U?$pair@$$CBIUClass@cldb@@@std@@U_Not_a_node_tag@2@@?$_Tree@V?$_Tmap_traits@IUClass@cldb@@U?$less@I@std@@V?$allocator@U?$pair@$$CBIUClass@cldb@@@std@@@4@$00@std@@@std@@IEAA?AU?$pair@V?$_Tree_iterator@V?$_Tree_val@U?$_Tree_simple_types@U?$pair@$$CBIUClass@cldb@@@std@@@std@@@std@@@std@@_N@1@_N$$QEAU?$pair@$$CBIUClass@cldb@@@1@U_Not_a_node_tag@1@@Z 0000000180000000     clReflectCore:DatabaseTextSerialiser.obj
 0002:fffcc000       $ip2state$??$_Insert_nohint@U?$pair@$$CBIUClass@cldb@@@std@@U_Not_a_node_tag@2@@?$_Tree@V?$_Tmap_traits@IUClass@cldb@@U?$less@I@std@@V?$allocator@U?$pair@$$CBIUClass@cldb@@@std@@@4@$00@std@@@std@@IEAA?AU?$pair@V?$_Tree_iterator@V?$_Tree_val@U?$_Tree_simple_types@U?$pair@$$CBIUClass@cldb@@@std@@@std@@@std@@@std@@_N@1@_N$$QEAU?$pair@$$CBIUClass@cldb@@@1@U_Not_a_node_tag@1@@Z 0000000180000000     clReflectCore:DatabaseTextSerialiser.obj
 0002:fffcc000       $unwind$?catch$0@?0???$_Insert_nohint@U?$pair@$$CBIUClass@cldb@@@std@@U_Not_a_node_tag@2@@?$_Tree@V?$_Tmap_traits@IUClass@cldb@@U?$less@I@std@@V?$allocator@U?$pair@$$CBIUClass@cldb@@@std@@@4@$00@std@@@std@@IEAA?AU?$pair@V?$_Tree_iterator@V?$_Tree_val@U?$_Tree_simple_types@U?$pair@$$CBIUClass@cldb@@@std@@@std@@@std@@@std@@_N@1@_N$$QEAU?$pair@$$CBIUClass@cldb@@@1@U_Not_a_node_tag@1@@Z@4HA 0000000180000000     clReflectCore:DatabaseTextSerialiser.obj
 0004:fffba000       $pdata$?catch$0@?0???$_Insert_nohint@U?$pair@$$CBIUClass@cldb@@@std@@U_Not_a_node_tag@2@@?$_Tree@V?$_Tmap_traits@IUClass@cldb@@U?$less@I@std@@V?$allocator@U?$pair@$$CBIUClass@cldb@@@std@@@4@$00@std@@@std@@IEAA?AU?$pair@V?$_Tree_iterator@V?$_Tree_val@U?$_Tree_simple_types@U?$pair@$$CBIUClass@cldb@@@std@@@std@@@std@@@std@@_N@1@_N$$QEAU?$pair@$$CBIUClass@cldb@@@1@U_Not_a_node_tag@1@@Z@4HA 0000000180000000     clReflectCore:DatabaseTextSerialiser.obj
 0002:fffcc000       $unwind$??$_Insert_nohint@U?$pair@$$CBIUTemplateType@cldb@@@std@@U_Not_a_node_tag@2@@?$_Tree@V?$_Tmap_traits@IUTemplateType@cldb@@U?$less@I@std@@V?$allocator@U?$pair@$$CBIUTemplateType@cldb@@@std@@@4@$00@std@@@std@@IEAA?AU?$pair@V?$_Tree_iterator@V?$_Tree_val@U?$_Tree_simple_types@U?$pair@$$CBIUTemplateType@cldb@@@std@@@std@@@std@@@std@@_N@1@_N$$QEAU?$pair@$$CBIUTemplateType@cldb@@@1@U_Not_a_node_tag@1@@Z 0000000180000000     clReflectCore:DatabaseTextSerialiser.obj
 0004:fffba000       $pdata$??$_Insert_nohint@U?$pair@$$CBIUTemplateType@cldb@@@std@@U_Not_a_node_tag@2@@?$_Tree@V?$_Tmap_traits@IUTemplateType@cldb@@U?$less@I@std@@V?$allocator@U?$pair@$$CBIUTemplateType@cldb@@@std@@@4@$00@std@@@std@@IEAA?AU?$pair@V?$_Tree_iterator@V?$_Tree_val@U?$_Tree_simple_types@U?$pair@$$CBIUTemplateType@cldb@@@std@@@std@@@std@@@std@@_N@1@_N$$QEAU?$pair@$$CBIUTemplateType@cldb@@@1@U_Not_a_node_tag@1@@Z 0000000180000000     clReflectCore:DatabaseTextSerialiser.obj
 0002:fffcc000       $cppxdata$??$_Insert_nohint@U?$pair@$$CBIUTemplateType@cldb@@@std@@U_Not_a_node_tag@2@@?$_Tree@V?$_Tmap_traits@IUTemplateType@cldb@@U?$less@I@std@@V?$allocator@U?$pair@$$CBIUTemplateType@cldb@@@std@@@4@$00@std@@@std@@IEAA?AU?$pair@V?$_Tree_iterator@V?$_Tree_val@U?$_Tree_simple_types@U?$pair@$$CBIUTemplateType@cldb@@@std@@@std@@@std@@@std@@_N@1@_N$$QEAU?$pair@$$CBIUTemplateType@cldb@@@1@U_Not_a_node_tag@1@@Z 0000000180000000     clReflectCore:DatabaseTextSerialiser.obj
 0002:fffcc000       $stateUnwindMap$??$_Insert_nohint@U?$pair@$$CBIUTemplateType@cldb@@@std@@U_Not_a_node_tag@2@@?$_Tree@V?$_Tmap_traits@IUTemplateType@cldb@@U?$less@I@std@@V?$allocator@U?$pair@$$CBIUTemplateType@cldb@@@std@@@4@$00@std@@@std@@IEAA?AU?$pair@V?$_Tree_iterator@V?$_Tree_val@U?$_Tree_simple_types@U?$pair@$$CBIUTemplateType@cldb@@@std@@@std@@@std@@@std@@_N@1@_N$$QEAU?$pair@$$CBIUTemplateType@cldb@@@1@U_Not_a_node_tag@1@@Z 0000000180000000     clReflectCore:DatabaseTextSerialiser.obj
 0002:fffcc000       $tryMap$??$_Insert_nohint@U?$pair@$$CBIUTemplateType@cldb@@@std@@U_Not_a_node_tag@2@@?$_Tree@V?$_Tmap_traits@IUTemplateType@cldb@@U?$less@I@std@@V?$allocator@U?$pair@$$CBIUTemplateType@cldb@@@std@@@4@$00@std@@@std@@IEAA?AU?$pair@V?$_Tree_iterator@V?$_Tree_val@U?$_Tree_simple_types@U?$pair@$$CBIUTemplateType@cldb@@@std@@@std@@@std@@@std@@_N@1@_N$$QEAU?$pair@$$CBIUTemplateType@cldb@@@1@U_Not_a_node_tag@1@@Z 0000000180000000     clReflectCore:DatabaseTextSerialiser.obj
 0002:fffcc000       $handlerMap$0$??$_Insert_nohint@U?$pair@$$CBIUTemplateType@cldb@@@std@@U_Not_a_node_tag@2@@?$_Tree@V?$_Tmap_traits@IUTemplateType@cldb@@U?$less@I@std@@V?$allocator@U?$pair@$$CBIUTemplateType@cldb@@@std@@@4@$00@std@@@std@@IEAA?AU?$pair@V?$_Tree_iterator@V?$_Tree_val@U?$_Tree_simple_types@U?$pair@$$CBIUTemplateType@cldb@@@std@@@std@@@std@@@std@@_N@1@_N$$QEAU?$pair@$$CBIUTemplateType@cldb@@@1@U_Not_a_node_tag@1@@Z 0000000180000000     clReflectCore:DatabaseTextSerialiser.obj
 0002:fffcc000       $ip2state$??$_Insert_nohint@U?$pair@$$CBIUTemplateType@cldb@@@std@@U_Not_a_node_tag@2@@?$_Tree@V?$_Tmap_traits@IUTemplateType@cldb@@U?$less@I@std@@V?$allocator@U?$pair@$$CBIUTemplateType@cldb@@@std@@@4@$00@std@@@std@@IEAA?AU?$pair@V?$_Tree_iterator@V?$_Tree_val@U?$_Tree_simple_types@U?$pair@$$CBIUTemplateType@cldb@@@std@@@std@@@std@@@std@@_N@1@_N$$QEAU?$pair@$$CBIUTemplateType@cldb@@@1@U_Not_a_node_tag@1@@Z 0000000180000000     clReflectCore:DatabaseTextSerialiser.obj
 0002:fffcc000       $unwind$?catch$0@?0???$_Insert_nohint@U?$pair@$$CBIUTemplateType@cldb@@@std@@U_Not_a_node_tag@2@@?$_Tree@V?$_Tmap_traits@IUTemplateType@cldb@@U?$less@I@std@@V?$allocator@U?$pair@$$CBIUTemplateType@cldb@@@std@@@4@$00@std@@@std@@IEAA?AU?$pair@V?$_Tree_iterator@V?$_Tree_val@U?$_Tree_simple_types@U?$pair@$$CBIUTemplateType@cldb@@@std@@@std@@@std@@@std@@_N@1@_N$$QEAU?$pair@$$CBIUTemplateType@cldb@@@1@U_Not_a_node_tag@1@@Z@4HA 0000000180000000     clReflectCore:DatabaseTextSerialiser.obj
 0004:fffba000       $pdata$?catch$0@?0???$_Insert_nohint@U?$pair@$$CBIUTemplateType@cldb@@@std@@U_Not_a_node_tag@2@@?$_Tree@V?$_Tmap_traits@IUTemplateType@cldb@@U?$less@I@std@@V?$allocator@U?$pair@$$CBIUTemplateType@cldb@@@std@@@4@$00@std@@@std@@IEAA?AU?$pair@V?$_Tree_iterator@V?$_Tree_val@U?$_Tree_simple_types@U?$pair@$$CBIUTemplateType@cldb@@@std@@@std@@@std@@@std@@_N@1@_N$$QEAU?$pair@$$CBIUTemplateType@cldb@@@1@U_Not_a_node_tag@1@@Z@4HA 0000000180000000     clReflectCore:DatabaseTextSerialiser.obj
 0002:fffcc000       $unwind$??$_Insert_nohint@U?$pair@$$CBIUIntAttribute@cldb@@@std@@U_Not_a_node_tag@2@@?$_Tree@V?$_Tmap_traits@IUIntAttribute@cldb@@U?$less@I@std@@V?$allocator@U?$pair@$$CBIUIntAttribute@cldb@@@std@@@4@$00@std@@@std@@IEAA?AU?$pair@V?$_Tree_iterator@V?$_Tree_val@U?$_Tree_simple_types@U?$pair@$$CBIUIntAttribute@cldb@@@std@@@std@@@std@@@std@@_N@1@_N$$QEAU?$pair@$$CBIUIntAttribute@cldb@@@1@U_Not_a_node_tag@1@@Z 0000000180000000     clReflectCore:DatabaseTextSerialiser.obj
 0004:fffba000       $pdata$??$_Insert_nohint@U?$pair@$$CBIUIntAttribute@cldb@@@std@@U_Not_a_node_tag@2@@?$_Tree@V?$_Tmap_traits@IUIntAttribute@cldb@@U?$less@I@std@@V?$allocator@U?$pair@$$CBIUIntAttribute@cldb@@@std@@@4@$00@std@@@std@@IEAA?AU?$pair@V?$_Tree_iterator@V?$_Tree_val@U?$_Tree_simple_types@U?$pair@$$CBIUIntAttribute@cldb@@@std@@@std@@@std@@@std@@_N@1@_N$$QEAU?$pair@$$CBIUIntAttribute@cldb@@@1@U_Not_a_node_tag@1@@Z 0000000180000000     clReflectCore:DatabaseTextSerialiser.obj
 0002:fffcc000       $cppxdata$??$_Insert_nohint@U?$pair@$$CBIUIntAttribute@cldb@@@std@@U_Not_a_node_tag@2@@?$_Tree@V?$_Tmap_traits@IUIntAttribute@cldb@@U?$less@I@std@@V?$allocator@U?$pair@$$CBIUIntAttribute@cldb@@@std@@@4@$00@std@@@std@@IEAA?AU?$pair@V?$_Tree_iterator@V?$_Tree_val@U?$_Tree_simple_types@U?$pair@$$CBIUIntAttribute@cldb@@@std@@@std@@@std@@@std@@_N@1@_N$$QEAU?$pair@$$CBIUIntAttribute@cldb@@@1@U_Not_a_node_tag@1@@Z 0000000180000000     clReflectCore:DatabaseTextSerialiser.obj
 0002:fffcc000       $stateUnwindMap$??$_Insert_nohint@U?$pair@$$CBIUIntAttribute@cldb@@@std@@U_Not_a_node_tag@2@@?$_Tree@V?$_Tmap_traits@IUIntAttribute@cldb@@U?$less@I@std@@V?$allocator@U?$pair@$$CBIUIntAttribute@cldb@@@std@@@4@$00@std@@@std@@IEAA?AU?$pair@V?$_Tree_iterator@V?$_Tree_val@U?$_Tree_simple_types@U?$pair@$$CBIUIntAttribute@cldb@@@std@@@std@@@std@@@std@@_N@1@_N$$QEAU?$pair@$$CBIUIntAttribute@cldb@@@1@U_Not_a_node_tag@1@@Z 0000000180000000     clReflectCore:DatabaseTextSerialiser.obj
 0002:fffcc000       $tryMap$??$_Insert_nohint@U?$pair@$$CBIUIntAttribute@cldb@@@std@@U_Not_a_node_tag@2@@?$_Tree@V?$_Tmap_traits@IUIntAttribute@cldb@@U?$less@I@std@@V?$allocator@U?$pair@$$CBIUIntAttribute@cldb@@@std@@@4@$00@std@@@std@@IEAA?AU?$pair@V?$_Tree_iterator@V?$_Tree_val@U?$_Tree_simple_types@U?$pair@$$CBIUIntAttribute@cldb@@@std@@@std@@@std@@@std@@_N@1@_N$$QEAU?$pair@$$CBIUIntAttribute@cldb@@@1@U_Not_a_node_tag@1@@Z 0000000180000000     clReflectCore:DatabaseTextSerialiser.obj
 0002:fffcc000       $handlerMap$0$??$_Insert_nohint@U?$pair@$$CBIUIntAttribute@cldb@@@std@@U_Not_a_node_tag@2@@?$_Tree@V?$_Tmap_traits@IUIntAttribute@cldb@@U?$less@I@std@@V?$allocator@U?$pair@$$CBIUIntAttribute@cldb@@@std@@@4@$00@std@@@std@@IEAA?AU?$pair@V?$_Tree_iterator@V?$_Tree_val@U?$_Tree_simple_types@U?$pair@$$CBIUIntAttribute@cldb@@@std@@@std@@@std@@@std@@_N@1@_N$$QEAU?$pair@$$CBIUIntAttribute@cldb@@@1@U_Not_a_node_tag@1@@Z 0000000180000000     clReflectCore:DatabaseTextSerialiser.obj
 0002:fffcc000       $ip2state$??$_Insert_nohint@U?$pair@$$CBIUIntAttribute@cldb@@@std@@U_Not_a_node_tag@2@@?$_Tree@V?$_Tmap_traits@IUIntAttribute@cldb@@U?$less@I@std@@V?$allocator@U?$pair@$$CBIUIntAttribute@cldb@@@std@@@4@$00@std@@@std@@IEAA?AU?$pair@V?$_Tree_iterator@V?$_Tree_val@U?$_Tree_simple_types@U?$pair@$$CBIUIntAttribute@cldb@@@std@@@std@@@std@@@std@@_N@1@_N$$QEAU?$pair@$$CBIUIntAttribute@cldb@@@1@U_Not_a_node_tag@1@@Z 0000000180000000     clReflectCore:DatabaseTextSerialiser.obj
 0002:fffcc000       $unwind$?catch$0@?0???$_Insert_nohint@U?$pair@$$CBIUIntAttribute@cldb@@@std@@U_Not_a_node_tag@2@@?$_Tree@V?$_Tmap_traits@IUIntAttribute@cldb@@U?$less@I@std@@V?$allocator@U?$pair@$$CBIUIntAttribute@cldb@@@std@@@4@$00@std@@@std@@IEAA?AU?$pair@V?$_Tree_iterator@V?$_Tree_val@U?$_Tree_simple_types@U?$pair@$$CBIUIntAttribute@cldb@@@std@@@std@@@std@@@std@@_N@1@_N$$QEAU?$pair@$$CBIUIntAttribute@cldb@@@1@U_Not_a_node_tag@1@@Z@4HA 0000000180000000     clReflectCore:DatabaseTextSerialiser.obj
 0004:fffba000       $pdata$?catch$0@?0???$_Insert_nohint@U?$pair@$$CBIUIntAttribute@cldb@@@std@@U_Not_a_node_tag@2@@?$_Tree@V?$_Tmap_traits@IUIntAttribute@cldb@@U?$less@I@std@@V?$allocator@U?$pair@$$CBIUIntAttribute@cldb@@@std@@@4@$00@std@@@std@@IEAA?AU?$pair@V?$_Tree_iterator@V?$_Tree_val@U?$_Tree_simple_types@U?$pair@$$CBIUIntAttribute@cldb@@@std@@@std@@@std@@@std@@_N@1@_N$$QEAU?$pair@$$CBIUIntAttribute@cldb@@@1@U_Not_a_node_tag@1@@Z@4HA 0000000180000000     clReflectCore:DatabaseTextSerialiser.obj
 0002:fffcc000       $unwind$??$_Insert_nohint@U?$pair@$$CBIUFloatAttribute@cldb@@@std@@U_Not_a_node_tag@2@@?$_Tree@V?$_Tmap_traits@IUFloatAttribute@cldb@@U?$less@I@std@@V?$allocator@U?$pair@$$CBIUFloatAttribute@cldb@@@std@@@4@$00@std@@@std@@IEAA?AU?$pair@V?$_Tree_iterator@V?$_Tree_val@U?$_Tree_simple_types@U?$pair@$$CBIUFloatAttribute@cldb@@@std@@@std@@@std@@@std@@_N@1@_N$$QEAU?$pair@$$CBIUFloatAttribute@cldb@@@1@U_Not_a_node_tag@1@@Z 0000000180000000     clReflectCore:DatabaseTextSerialiser.obj
 0004:fffba000       $pdata$??$_Insert_nohint@U?$pair@$$CBIUFloatAttribute@cldb@@@std@@U_Not_a_node_tag@2@@?$_Tree@V?$_Tmap_traits@IUFloatAttribute@cldb@@U?$less@I@std@@V?$allocator@U?$pair@$$CBIUFloatAttribute@cldb@@@std@@@4@$00@std@@@std@@IEAA?AU?$pair@V?$_Tree_iterator@V?$_Tree_val@U?$_Tree_simple_types@U?$pair@$$CBIUFloatAttribute@cldb@@@std@@@std@@@std@@@std@@_N@1@_N$$QEAU?$pair@$$CBIUFloatAttribute@cldb@@@1@U_Not_a_node_tag@1@@Z 0000000180000000     clReflectCore:DatabaseTextSerialiser.obj
 0002:fffcc000       $cppxdata$??$_Insert_nohint@U?$pair@$$CBIUFloatAttribute@cldb@@@std@@U_Not_a_node_tag@2@@?$_Tree@V?$_Tmap_traits@IUFloatAttribute@cldb@@U?$less@I@std@@V?$allocator@U?$pair@$$CBIUFloatAttribute@cldb@@@std@@@4@$00@std@@@std@@IEAA?AU?$pair@V?$_Tree_iterator@V?$_Tree_val@U?$_Tree_simple_types@U?$pair@$$CBIUFloatAttribute@cldb@@@std@@@std@@@std@@@std@@_N@1@_N$$QEAU?$pair@$$CBIUFloatAttribute@cldb@@@1@U_Not_a_node_tag@1@@Z 0000000180000000     clReflectCore:DatabaseTextSerialiser.obj
 0002:fffcc000       $stateUnwindMap$??$_Insert_nohint@U?$pair@$$CBIUFloatAttribute@cldb@@@std@@U_Not_a_node_tag@2@@?$_Tree@V?$_Tmap_traits@IUFloatAttribute@cldb@@U?$less@I@std@@V?$allocator@U?$pair@$$CBIUFloatAttribute@cldb@@@std@@@4@$00@std@@@std@@IEAA?AU?$pair@V?$_Tree_iterator@V?$_Tree_val@U?$_Tree_simple_types@U?$pair@$$CBIUFloatAttribute@cldb@@@std@@@std@@@std@@@std@@_N@1@_N$$QEAU?$pair@$$CBIUFloatAttribute@cldb@@@1@U_Not_a_node_tag@1@@Z 0000000180000000     clReflectCore:DatabaseTextSerialiser.obj
 0002:fffcc000       $tryMap$??$_Insert_nohint@U?$pair@$$CBIUFloatAttribute@cldb@@@std@@U_Not_a_node_tag@2@@?$_Tree@V?$_Tmap_traits@IUFloatAttribute@cldb@@U?$less@I@std@@V?$allocator@U?$pair@$$CBIUFloatAttribute@cldb@@@std@@@4@$00@std@@@std@@IEAA?AU?$pair@V?$_Tree_iterator@V?$_Tree_val@U?$_Tree_simple_types@U?$pair@$$CBIUFloatAttribute@cldb@@@std@@@std@@@std@@@std@@_N@1@_N$$QEAU?$pair@$$CBIUFloatAttribute@cldb@@@1@U_Not_a_node_tag@1@@Z 0000000180000000     clReflectCore:DatabaseTextSerialiser.obj
 0002:fffcc000       $handlerMap$0$??$_Insert_nohint@U?$pair@$$CBIUFloatAttribute@cldb@@@std@@U_Not_a_node_tag@2@@?$_Tree@V?$_Tmap_traits@IUFloatAttribute@cldb@@U?$less@I@std@@V?$allocator@U?$pair@$$CBIUFloatAttribute@cldb@@@std@@@4@$00@std@@@std@@IEAA?AU?$pair@V?$_Tree_iterator@V?$_Tree_val@U?$_Tree_simple_types@U?$pair@$$CBIUFloatAttribute@cldb@@@std@@@std@@@std@@@std@@_N@1@_N$$QEAU?$pair@$$CBIUFloatAttribute@cldb@@@1@U_Not_a_node_tag@1@@Z 0000000180000000     clReflectCore:DatabaseTextSerialiser.obj
 0002:fffcc000       $ip2state$??$_Insert_nohint@U?$pair@$$CBIUFloatAttribute@cldb@@@std@@U_Not_a_node_tag@2@@?$_Tree@V?$_Tmap_traits@IUFloatAttribute@cldb@@U?$less@I@std@@V?$allocator@U?$pair@$$CBIUFloatAttribute@cldb@@@std@@@4@$00@std@@@std@@IEAA?AU?$pair@V?$_Tree_iterator@V?$_Tree_val@U?$_Tree_simple_types@U?$pair@$$CBIUFloatAttribute@cldb@@@std@@@std@@@std@@@std@@_N@1@_N$$QEAU?$pair@$$CBIUFloatAttribute@cldb@@@1@U_Not_a_node_tag@1@@Z 0000000180000000     clReflectCore:DatabaseTextSerialiser.obj
 0002:fffcc000       $unwind$?catch$0@?0???$_Insert_nohint@U?$pair@$$CBIUFloatAttribute@cldb@@@std@@U_Not_a_node_tag@2@@?$_Tree@V?$_Tmap_traits@IUFloatAttribute@cldb@@U?$less@I@std@@V?$allocator@U?$pair@$$CBIUFloatAttribute@cldb@@@std@@@4@$00@std@@@std@@IEAA?AU?$pair@V?$_Tree_iterator@V?$_Tree_val@U?$_Tree_simple_types@U?$pair@$$CBIUFloatAttribute@cldb@@@std@@@std@@@std@@@std@@_N@1@_N$$QEAU?$pair@$$CBIUFloatAttribute@cldb@@@1@U_Not_a_node_tag@1@@Z@4HA 0000000180000000     clReflectCore:DatabaseTextSerialiser.obj
 0004:fffba000       $pdata$?catch$0@?0???$_Insert_nohint@U?$pair@$$CBIUFloatAttribute@cldb@@@std@@U_Not_a_node_tag@2@@?$_Tree@V?$_Tmap_traits@IUFloatAttribute@cldb@@U?$less@I@std@@V?$allocator@U?$pair@$$CBIUFloatAttribute@cldb@@@std@@@4@$00@std@@@std@@IEAA?AU?$pair@V?$_Tree_iterator@V?$_Tree_val@U?$_Tree_simple_types@U?$pair@$$CBIUFloatAttribute@cldb@@@std@@@std@@@std@@@std@@_N@1@_N$$QEAU?$pair@$$CBIUFloatAttribute@cldb@@@1@U_Not_a_node_tag@1@@Z@4HA 0000000180000000     clReflectCore:DatabaseTextSerialiser.obj
 0002:fffcc000       $unwind$??$_Insert_nohint@U?$pair@$$CBIUPrimitiveAttribute@cldb@@@std@@U_Not_a_node_tag@2@@?$_Tree@V?$_Tmap_traits@IUPrimitiveAttribute@cldb@@U?$less@I@std@@V?$allocator@U?$pair@$$CBIUPrimitiveAttribute@cldb@@@std@@@4@$00@std@@@std@@IEAA?AU?$pair@V?$_Tree_iterator@V?$_Tree_val@U?$_Tree_simple_types@U?$pair@$$CBIUPrimitiveAttribute@cldb@@@std@@@std@@@std@@@std@@_N@1@_N$$QEAU?$pair@$$CBIUPrimitiveAttribute@cldb@@@1@U_Not_a_node_tag@1@@Z 0000000180000000     clReflectCore:DatabaseTextSerialiser.obj
 0004:fffba000       $pdata$??$_Insert_nohint@U?$pair@$$CBIUPrimitiveAttribute@cldb@@@std@@U_Not_a_node_tag@2@@?$_Tree@V?$_Tmap_traits@IUPrimitiveAttribute@cldb@@U?$less@I@std@@V?$allocator@U?$pair@$$CBIUPrimitiveAttribute@cldb@@@std@@@4@$00@std@@@std@@IEAA?AU?$pair@V?$_Tree_iterator@V?$_Tree_val@U?$_Tree_simple_types@U?$pair@$$CBIUPrimitiveAttribute@cldb@@@std@@@std@@@std@@@std@@_N@1@_N$$QEAU?$pair@$$CBIUPrimitiveAttribute@cldb@@@1@U_Not_a_node_tag@1@@Z 0000000180000000     clReflectCore:DatabaseTextSerialiser.obj
 0002:fffcc000       $cppxdata$??$_Insert_nohint@U?$pair@$$CBIUPrimitiveAttribute@cldb@@@std@@U_Not_a_node_tag@2@@?$_Tree@V?$_Tmap_traits@IUPrimitiveAttribute@cldb@@U?$less@I@std@@V?$allocator@U?$pair@$$CBIUPrimitiveAttribute@cldb@@@std@@@4@$00@std@@@std@@IEAA?AU?$pair@V?$_Tree_iterator@V?$_Tree_val@U?$_Tree_simple_types@U?$pair@$$CBIUPrimitiveAttribute@cldb@@@std@@@std@@@std@@@std@@_N@1@_N$$QEAU?$pair@$$CBIUPrimitiveAttribute@cldb@@@1@U_Not_a_node_tag@1@@Z 0000000180000000     clReflectCore:DatabaseTextSerialiser.obj
 0002:fffcc000       $stateUnwindMap$??$_Insert_nohint@U?$pair@$$CBIUPrimitiveAttribute@cldb@@@std@@U_Not_a_node_tag@2@@?$_Tree@V?$_Tmap_traits@IUPrimitiveAttribute@cldb@@U?$less@I@std@@V?$allocator@U?$pair@$$CBIUPrimitiveAttribute@cldb@@@std@@@4@$00@std@@@std@@IEAA?AU?$pair@V?$_Tree_iterator@V?$_Tree_val@U?$_Tree_simple_types@U?$pair@$$CBIUPrimitiveAttribute@cldb@@@std@@@std@@@std@@@std@@_N@1@_N$$QEAU?$pair@$$CBIUPrimitiveAttribute@cldb@@@1@U_Not_a_node_tag@1@@Z 0000000180000000     clReflectCore:DatabaseTextSerialiser.obj
 0002:fffcc000       $tryMap$??$_Insert_nohint@U?$pair@$$CBIUPrimitiveAttribute@cldb@@@std@@U_Not_a_node_tag@2@@?$_Tree@V?$_Tmap_traits@IUPrimitiveAttribute@cldb@@U?$less@I@std@@V?$allocator@U?$pair@$$CBIUPrimitiveAttribute@cldb@@@std@@@4@$00@std@@@std@@IEAA?AU?$pair@V?$_Tree_iterator@V?$_Tree_val@U?$_Tree_simple_types@U?$pair@$$CBIUPrimitiveAttribute@cldb@@@std@@@std@@@std@@@std@@_N@1@_N$$QEAU?$pair@$$CBIUPrimitiveAttribute@cldb@@@1@U_Not_a_node_tag@1@@Z 0000000180000000     clReflectCore:DatabaseTextSerialiser.obj
 0002:fffcc000       $handlerMap$0$??$_Insert_nohint@U?$pair@$$CBIUPrimitiveAttribute@cldb@@@std@@U_Not_a_node_tag@2@@?$_Tree@V?$_Tmap_traits@IUPrimitiveAttribute@cldb@@U?$less@I@std@@V?$allocator@U?$pair@$$CBIUPrimitiveAttribute@cldb@@@std@@@4@$00@std@@@std@@IEAA?AU?$pair@V?$_Tree_iterator@V?$_Tree_val@U?$_Tree_simple_types@U?$pair@$$CBIUPrimitiveAttribute@cldb@@@std@@@std@@@std@@@std@@_N@1@_N$$QEAU?$pair@$$CBIUPrimitiveAttribute@cldb@@@1@U_Not_a_node_tag@1@@Z 0000000180000000     clReflectCore:DatabaseTextSerialiser.obj
 0002:fffcc000       $ip2state$??$_Insert_nohint@U?$pair@$$CBIUPrimitiveAttribute@cldb@@@std@@U_Not_a_node_tag@2@@?$_Tree@V?$_Tmap_traits@IUPrimitiveAttribute@cldb@@U?$less@I@std@@V?$allocator@U?$pair@$$CBIUPrimitiveAttribute@cldb@@@std@@@4@$00@std@@@std@@IEAA?AU?$pair@V?$_Tree_iterator@V?$_Tree_val@U?$_Tree_simple_types@U?$pair@$$CBIUPrimitiveAttribute@cldb@@@std@@@std@@@std@@@std@@_N@1@_N$$QEAU?$pair@$$CBIUPrimitiveAttribute@cldb@@@1@U_Not_a_node_tag@1@@Z 0000000180000000     clReflectCore:DatabaseTextSerialiser.obj
 0002:fffcc000       $unwind$?catch$0@?0???$_Insert_nohint@U?$pair@$$CBIUPrimitiveAttribute@cldb@@@std@@U_Not_a_node_tag@2@@?$_Tree@V?$_Tmap_traits@IUPrimitiveAttribute@cldb@@U?$less@I@std@@V?$allocator@U?$pair@$$CBIUPrimitiveAttribute@cldb@@@std@@@4@$00@std@@@std@@IEAA?AU?$pair@V?$_Tree_iterator@V?$_Tree_val@U?$_Tree_simple_types@U?$pair@$$CBIUPrimitiveAttribute@cldb@@@std@@@std@@@std@@@std@@_N@1@_N$$QEAU?$pair@$$CBIUPrimitiveAttribute@cldb@@@1@U_Not_a_node_tag@1@@Z@4HA 0000000180000000     clReflectCore:DatabaseTextSerialiser.obj
 0004:fffba000       $pdata$?catch$0@?0???$_Insert_nohint@U?$pair@$$CBIUPrimitiveAttribute@cldb@@@std@@U_Not_a_node_tag@2@@?$_Tree@V?$_Tmap_traits@IUPrimitiveAttribute@cldb@@U?$less@I@std@@V?$allocator@U?$pair@$$CBIUPrimitiveAttribute@cldb@@@std@@@4@$00@std@@@std@@IEAA?AU?$pair@V?$_Tree_iterator@V?$_Tree_val@U?$_Tree_simple_types@U?$pair@$$CBIUPrimitiveAttribute@cldb@@@std@@@std@@@std@@@std@@_N@1@_N$$QEAU?$pair@$$CBIUPrimitiveAttribute@cldb@@@1@U_Not_a_node_tag@1@@Z@4HA 0000000180000000     clReflectCore:DatabaseTextSerialiser.obj
 0002:fffcc000       $unwind$??$_Insert_nohint@U?$pair@$$CBIUTextAttribute@cldb@@@std@@U_Not_a_node_tag@2@@?$_Tree@V?$_Tmap_traits@IUTextAttribute@cldb@@U?$less@I@std@@V?$allocator@U?$pair@$$CBIUTextAttribute@cldb@@@std@@@4@$00@std@@@std@@IEAA?AU?$pair@V?$_Tree_iterator@V?$_Tree_val@U?$_Tree_simple_types@U?$pair@$$CBIUTextAttribute@cldb@@@std@@@std@@@std@@@std@@_N@1@_N$$QEAU?$pair@$$CBIUTextAttribute@cldb@@@1@U_Not_a_node_tag@1@@Z 0000000180000000     clReflectCore:DatabaseTextSerialiser.obj
 0004:fffba000       $pdata$??$_Insert_nohint@U?$pair@$$CBIUTextAttribute@cldb@@@std@@U_Not_a_node_tag@2@@?$_Tree@V?$_Tmap_traits@IUTextAttribute@cldb@@U?$less@I@std@@V?$allocator@U?$pair@$$CBIUTextAttribute@cldb@@@std@@@4@$00@std@@@std@@IEAA?AU?$pair@V?$_Tree_iterator@V?$_Tree_val@U?$_Tree_simple_types@U?$pair@$$CBIUTextAttribute@cldb@@@std@@@std@@@std@@@std@@_N@1@_N$$QEAU?$pair@$$CBIUTextAttribute@cldb@@@1@U_Not_a_node_tag@1@@Z 0000000180000000     clReflectCore:DatabaseTextSerialiser.obj
 0002:fffcc000       $cppxdata$??$_Insert_nohint@U?$pair@$$CBIUTextAttribute@cldb@@@std@@U_Not_a_node_tag@2@@?$_Tree@V?$_Tmap_traits@IUTextAttribute@cldb@@U?$less@I@std@@V?$allocator@U?$pair@$$CBIUTextAttribute@cldb@@@std@@@4@$00@std@@@std@@IEAA?AU?$pair@V?$_Tree_iterator@V?$_Tree_val@U?$_Tree_simple_types@U?$pair@$$CBIUTextAttribute@cldb@@@std@@@std@@@std@@@std@@_N@1@_N$$QEAU?$pair@$$CBIUTextAttribute@cldb@@@1@U_Not_a_node_tag@1@@Z 0000000180000000     clReflectCore:DatabaseTextSerialiser.obj
 0002:fffcc000       $stateUnwindMap$??$_Insert_nohint@U?$pair@$$CBIUTextAttribute@cldb@@@std@@U_Not_a_node_tag@2@@?$_Tree@V?$_Tmap_traits@IUTextAttribute@cldb@@U?$less@I@std@@V?$allocator@U?$pair@$$CBIUTextAttribute@cldb@@@std@@@4@$00@std@@@std@@IEAA?AU?$pair@V?$_Tree_iterator@V?$_Tree_val@U?$_Tree_simple_types@U?$pair@$$CBIUTextAttribute@cldb@@@std@@@std@@@std@@@std@@_N@1@_N$$QEAU?$pair@$$CBIUTextAttribute@cldb@@@1@U_Not_a_node_tag@1@@Z 0000000180000000     clReflectCore:DatabaseTextSerialiser.obj
 0002:fffcc000       $tryMap$??$_Insert_nohint@U?$pair@$$CBIUTextAttribute@cldb@@@std@@U_Not_a_node_tag@2@@?$_Tree@V?$_Tmap_traits@IUTextAttribute@cldb@@U?$less@I@std@@V?$allocator@U?$pair@$$CBIUTextAttribute@cldb@@@std@@@4@$00@std@@@std@@IEAA?AU?$pair@V?$_Tree_iterator@V?$_Tree_val@U?$_Tree_simple_types@U?$pair@$$CBIUTextAttribute@cldb@@@std@@@std@@@std@@@std@@_N@1@_N$$QEAU?$pair@$$CBIUTextAttribute@cldb@@@1@U_Not_a_node_tag@1@@Z 0000000180000000     clReflectCore:DatabaseTextSerialiser.obj
 0002:fffcc000       $handlerMap$0$??$_Insert_nohint@U?$pair@$$CBIUTextAttribute@cldb@@@std@@U_Not_a_node_tag@2@@?$_Tree@V?$_Tmap_traits@IUTextAttribute@cldb@@U?$less@I@std@@V?$allocator@U?$pair@$$CBIUTextAttribute@cldb@@@std@@@4@$00@std@@@std@@IEAA?AU?$pair@V?$_Tree_iterator@V?$_Tree_val@U?$_Tree_simple_types@U?$pair@$$CBIUTextAttribute@cldb@@@std@@@std@@@std@@@std@@_N@1@_N$$QEAU?$pair@$$CBIUTextAttribute@cldb@@@1@U_Not_a_node_tag@1@@Z 0000000180000000     clReflectCore:DatabaseTextSerialiser.obj
 0002:fffcc000       $ip2state$??$_Insert_nohint@U?$pair@$$CBIUTextAttribute@cldb@@@std@@U_Not_a_node_tag@2@@?$_Tree@V?$_Tmap_traits@IUTextAttribute@cldb@@U?$less@I@std@@V?$allocator@U?$pair@$$CBIUTextAttribute@cldb@@@std@@@4@$00@std@@@std@@IEAA?AU?$pair@V?$_Tree_iterator@V?$_Tree_val@U?$_Tree_simple_types@U?$pair@$$CBIUTextAttribute@cldb@@@std@@@std@@@std@@@std@@_N@1@_N$$QEAU?$pair@$$CBIUTextAttribute@cldb@@@1@U_Not_a_node_tag@1@@Z 0000000180000000     clReflectCore:DatabaseTextSerialiser.obj
 0002:fffcc000       $unwind$?catch$0@?0???$_Insert_nohint@U?$pair@$$CBIUTextAttribute@cldb@@@std@@U_Not_a_node_tag@2@@?$_Tree@V?$_Tmap_traits@IUTextAttribute@cldb@@U?$less@I@std@@V?$allocator@U?$pair@$$CBIUTextAttribute@cldb@@@std@@@4@$00@std@@@std@@IEAA?AU?$pair@V?$_Tree_iterator@V?$_Tree_val@U?$_Tree_simple_types@U?$pair@$$CBIUTextAttribute@cldb@@@std@@@std@@@std@@@std@@_N@1@_N$$QEAU?$pair@$$CBIUTextAttribute@cldb@@@1@U_Not_a_node_tag@1@@Z@4HA 0000000180000000     clReflectCore:DatabaseTextSerialiser.obj
 0004:fffba000       $pdata$?catch$0@?0???$_Insert_nohint@U?$pair@$$CBIUTextAttribute@cldb@@@std@@U_Not_a_node_tag@2@@?$_Tree@V?$_Tmap_traits@IUTextAttribute@cldb@@U?$less@I@std@@V?$allocator@U?$pair@$$CBIUTextAttribute@cldb@@@std@@@4@$00@std@@@std@@IEAA?AU?$pair@V?$_Tree_iterator@V?$_Tree_val@U?$_Tree_simple_types@U?$pair@$$CBIUTextAttribute@cldb@@@std@@@std@@@std@@@std@@_N@1@_N$$QEAU?$pair@$$CBIUTextAttribute@cldb@@@1@U_Not_a_node_tag@1@@Z@4HA 0000000180000000     clReflectCore:DatabaseTextSerialiser.obj
 0004:fffba000       $pdata$?deallocate@?$allocator@U?$_Tree_node@U?$pair@$$CBIUField@cldb@@@std@@PEAX@std@@@std@@QEAAXQEAU?$_Tree_node@U?$pair@$$CBIUField@cldb@@@std@@PEAX@2@_K@Z 0000000180000000     clReflectCore:Database.obj
 0002:fffcc000       $unwind$??$_Insert_at@U?$pair@$$CBIUContainerInfo@cldb@@@std@@U_Not_a_node_tag@2@@?$_Tree@V?$_Tmap_traits@IUContainerInfo@cldb@@U?$less@I@std@@V?$allocator@U?$pair@$$CBIUContainerInfo@cldb@@@std@@@4@$0A@@std@@@std@@IEAA?AV?$_Tree_iterator@V?$_Tree_val@U?$_Tree_simple_types@U?$pair@$$CBIUContainerInfo@cldb@@@std@@@std@@@std@@@1@_NPEAU?$_Tree_node@U?$pair@$$CBIUContainerInfo@cldb@@@std@@PEAX@1@$$QEAU?$pair@$$CBIUContainerInfo@cldb@@@1@U_Not_a_node_tag@1@@Z 0000000180000000     clReflectCore:DatabaseTextSerialiser.obj
 0004:fffba000       $pdata$??$_Insert_at@U?$pair@$$CBIUContainerInfo@cldb@@@std@@U_Not_a_node_tag@2@@?$_Tree@V?$_Tmap_traits@IUContainerInfo@cldb@@U?$less@I@std@@V?$allocator@U?$pair@$$CBIUContainerInfo@cldb@@@std@@@4@$0A@@std@@@std@@IEAA?AV?$_Tree_iterator@V?$_Tree_val@U?$_Tree_simple_types@U?$pair@$$CBIUContainerInfo@cldb@@@std@@@std@@@std@@@1@_NPEAU?$_Tree_node@U?$pair@$$CBIUContainerInfo@cldb@@@std@@PEAX@1@$$QEAU?$pair@$$CBIUContainerInfo@cldb@@@1@U_Not_a_node_tag@1@@Z 0000000180000000     clReflectCore:DatabaseTextSerialiser.obj
 0002:fffcc000       $unwind$??$_Insert_at@U?$pair@$$CBIUTypeInheritance@cldb@@@std@@U_Not_a_node_tag@2@@?$_Tree@V?$_Tmap_traits@IUTypeInheritance@cldb@@U?$less@I@std@@V?$allocator@U?$pair@$$CBIUTypeInheritance@cldb@@@std@@@4@$0A@@std@@@std@@IEAA?AV?$_Tree_iterator@V?$_Tree_val@U?$_Tree_simple_types@U?$pair@$$CBIUTypeInheritance@cldb@@@std@@@std@@@std@@@1@_NPEAU?$_Tree_node@U?$pair@$$CBIUTypeInheritance@cldb@@@std@@PEAX@1@$$QEAU?$pair@$$CBIUTypeInheritance@cldb@@@1@U_Not_a_node_tag@1@@Z 0000000180000000     clReflectCore:DatabaseTextSerialiser.obj
 0004:fffba000       $pdata$??$_Insert_at@U?$pair@$$CBIUTypeInheritance@cldb@@@std@@U_Not_a_node_tag@2@@?$_Tree@V?$_Tmap_traits@IUTypeInheritance@cldb@@U?$less@I@std@@V?$allocator@U?$pair@$$CBIUTypeInheritance@cldb@@@std@@@4@$0A@@std@@@std@@IEAA?AV?$_Tree_iterator@V?$_Tree_val@U?$_Tree_simple_types@U?$pair@$$CBIUTypeInheritance@cldb@@@std@@@std@@@std@@@1@_NPEAU?$_Tree_node@U?$pair@$$CBIUTypeInheritance@cldb@@@std@@PEAX@1@$$QEAU?$pair@$$CBIUTypeInheritance@cldb@@@1@U_Not_a_node_tag@1@@Z 0000000180000000     clReflectCore:DatabaseTextSerialiser.obj
 0001:fffff000       ?catch$0@?0???$_Insert_nohint@U?$pair@$$CBIUType@cldb@@@std@@U_Not_a_node_tag@2@@?$_Tree@V?$_Tmap_traits@IUType@cldb@@U?$less@I@std@@V?$allocator@U?$pair@$$CBIUType@cldb@@@std@@@4@$00@std@@@std@@IEAA?AU?$pair@V?$_Tree_iterator@V?$_Tree_val@U?$_Tree_simple_types@U?$pair@$$CBIUType@cldb@@@std@@@std@@@std@@@std@@_N@1@_N$$QEAU?$pair@$$CBIUType@cldb@@@1@U_Not_a_node_tag@1@@Z@4HA 0000000180000000 f   clReflectCore:Database.obj
 0002:fffcc000       $ip2state$??$Add@UContainerInfo@cldb@@@Database@cldb@@QEAAXAEBUName@1@AEBUContainerInfo@1@@Z 0000000180000000     clReflectCore:DatabaseTextSerialiser.obj
 0002:fffcc000       $tryMap$?_Buynode0@?$_Tree_comp_alloc@V?$_Tmap_traits@IUTypeInheritance@cldb@@U?$less@I@std@@V?$allocator@U?$pair@$$CBIUTypeInheritance@cldb@@@std@@@4@$0A@@std@@@std@@QEAAPEAU?$_Tree_node@U?$pair@$$CBIUTypeInheritance@cldb@@@std@@PEAX@2@XZ 0000000180000000     clReflectCore:Database.obj
 0002:fffcc000       $stateUnwindMap$??$Add@UContainerInfo@cldb@@@Database@cldb@@QEAAXAEBUName@1@AEBUContainerInfo@1@@Z 0000000180000000     clReflectCore:DatabaseTextSerialiser.obj
 0002:fffcc000       $cppxdata$??$Add@UContainerInfo@cldb@@@Database@cldb@@QEAAXAEBUName@1@AEBUContainerInfo@1@@Z 0000000180000000     clReflectCore:DatabaseTextSerialiser.obj
 0004:fffba000       $pdata$??$Add@UContainerInfo@cldb@@@Database@cldb@@QEAAXAEBUName@1@AEBUContainerInfo@1@@Z 0000000180000000     clReflectCore:DatabaseTextSerialiser.obj
 0002:fffcc000       $unwind$??$Add@UContainerInfo@cldb@@@Database@cldb@@QEAAXAEBUName@1@AEBUContainerInfo@1@@Z 0000000180000000     clReflectCore:DatabaseTextSerialiser.obj
 0002:fffcc000       $unwind$??$_Insert_at@U?$pair@$$CBIUType@cldb@@@std@@U_Not_a_node_tag@2@@?$_Tree@V?$_Tmap_traits@IUType@cldb@@U?$less@I@std@@V?$allocator@U?$pair@$$CBIUType@cldb@@@std@@@4@$00@std@@@std@@IEAA?AV?$_Tree_iterator@V?$_Tree_val@U?$_Tree_simple_types@U?$pair@$$CBIUType@cldb@@@std@@@std@@@std@@@1@_NPEAU?$_Tree_node@U?$pair@$$CBIUType@cldb@@@std@@PEAX@1@$$QEAU?$pair@$$CBIUType@cldb@@@1@U_Not_a_node_tag@1@@Z 0000000180000000     clReflectCore:DatabaseTextSerialiser.obj
 0004:fffba000       $pdata$??$_Insert_at@U?$pair@$$CBIUType@cldb@@@std@@U_Not_a_node_tag@2@@?$_Tree@V?$_Tmap_traits@IUType@cldb@@U?$less@I@std@@V?$allocator@U?$pair@$$CBIUType@cldb@@@std@@@4@$00@std@@@std@@IEAA?AV?$_Tree_iterator@V?$_Tree_val@U?$_Tree_simple_types@U?$pair@$$CBIUType@cldb@@@std@@@std@@@std@@@1@_NPEAU?$_Tree_node@U?$pair@$$CBIUType@cldb@@@std@@PEAX@1@$$QEAU?$pair@$$CBIUType@cldb@@@1@U_Not_a_node_tag@1@@Z 0000000180000000     clReflectCore:DatabaseTextSerialiser.obj
 0002:fffcc000       $unwind$??$_Insert_at@U?$pair@$$CBIUEnumConstant@cldb@@@std@@U_Not_a_node_tag@2@@?$_Tree@V?$_Tmap_traits@IUEnumConstant@cldb@@U?$less@I@std@@V?$allocator@U?$pair@$$CBIUEnumConstant@cldb@@@std@@@4@$00@std@@@std@@IEAA?AV?$_Tree_iterator@V?$_Tree_val@U?$_Tree_simple_types@U?$pair@$$CBIUEnumConstant@cldb@@@std@@@std@@@std@@@1@_NPEAU?$_Tree_node@U?$pair@$$CBIUEnumConstant@cldb@@@std@@PEAX@1@$$QEAU?$pair@$$CBIUEnumConstant@cldb@@@1@U_Not_a_node_tag@1@@Z 0000000180000000     clReflectCore:DatabaseTextSerialiser.obj
 0004:fffba000       $pdata$??$_Insert_at@U?$pair@$$CBIUEnumConstant@cldb@@@std@@U_Not_a_node_tag@2@@?$_Tree@V?$_Tmap_traits@IUEnumConstant@cldb@@U?$less@I@std@@V?$allocator@U?$pair@$$CBIUEnumConstant@cldb@@@std@@@4@$00@std@@@std@@IEAA?AV?$_Tree_iterator@V?$_Tree_val@U?$_Tree_simple_types@U?$pair@$$CBIUEnumConstant@cldb@@@std@@@std@@@std@@@1@_NPEAU?$_Tree_node@U?$pair@$$CBIUEnumConstant@cldb@@@std@@PEAX@1@$$QEAU?$pair@$$CBIUEnumConstant@cldb@@@1@U_Not_a_node_tag@1@@Z 0000000180000000     clReflectCore:DatabaseTextSerialiser.obj
 0002:fffcc000       $unwind$??$_Insert_at@U?$pair@$$CBIUEnum@cldb@@@std@@U_Not_a_node_tag@2@@?$_Tree@V?$_Tmap_traits@IUEnum@cldb@@U?$less@I@std@@V?$allocator@U?$pair@$$CBIUEnum@cldb@@@std@@@4@$00@std@@@std@@IEAA?AV?$_Tree_iterator@V?$_Tree_val@U?$_Tree_simple_types@U?$pair@$$CBIUEnum@cldb@@@std@@@std@@@std@@@1@_NPEAU?$_Tree_node@U?$pair@$$CBIUEnum@cldb@@@std@@PEAX@1@$$QEAU?$pair@$$CBIUEnum@cldb@@@1@U_Not_a_node_tag@1@@Z 0000000180000000     clReflectCore:DatabaseTextSerialiser.obj
 0004:fffba000       $pdata$??$_Insert_at@U?$pair@$$CBIUEnum@cldb@@@std@@U_Not_a_node_tag@2@@?$_Tree@V?$_Tmap_traits@IUEnum@cldb@@U?$less@I@std@@V?$allocator@U?$pair@$$CBIUEnum@cldb@@@std@@@4@$00@std@@@std@@IEAA?AV?$_Tree_iterator@V?$_Tree_val@U?$_Tree_simple_types@U?$pair@$$CBIUEnum@cldb@@@std@@@std@@@std@@@1@_NPEAU?$_Tree_node@U?$pair@$$CBIUEnum@cldb@@@std@@PEAX@1@$$QEAU?$pair@$$CBIUEnum@cldb@@@1@U_Not_a_node_tag@1@@Z 0000000180000000     clReflectCore:DatabaseTextSerialiser.obj
 0002:fffcc000       $stateUnwindMap$?_Buynode0@?$_Tree_comp_alloc@V?$_Tmap_traits@IUTypeInheritance@cldb@@U?$less@I@std@@V?$allocator@U?$pair@$$CBIUTypeInheritance@cldb@@@std@@@4@$0A@@std@@@std@@QEAAPEAU?$_Tree_node@U?$pair@$$CBIUTypeInheritance@cldb@@@std@@PEAX@2@XZ 0000000180000000     clReflectCore:Database.obj
 0002:fffcc000       $unwind$??$_Insert_at@U?$pair@$$CBIUField@cldb@@@std@@U_Not_a_node_tag@2@@?$_Tree@V?$_Tmap_traits@IUField@cldb@@U?$less@I@std@@V?$allocator@U?$pair@$$CBIUField@cldb@@@std@@@4@$00@std@@@std@@IEAA?AV?$_Tree_iterator@V?$_Tree_val@U?$_Tree_simple_types@U?$pair@$$CBIUField@cldb@@@std@@@std@@@std@@@1@_NPEAU?$_Tree_node@U?$pair@$$CBIUField@cldb@@@std@@PEAX@1@$$QEAU?$pair@$$CBIUField@cldb@@@1@U_Not_a_node_tag@1@@Z 0000000180000000     clReflectCore:DatabaseTextSerialiser.obj
 0004:fffba000       $pdata$??$_Insert_at@U?$pair@$$CBIUField@cldb@@@std@@U_Not_a_node_tag@2@@?$_Tree@V?$_Tmap_traits@IUField@cldb@@U?$less@I@std@@V?$allocator@U?$pair@$$CBIUField@cldb@@@std@@@4@$00@std@@@std@@IEAA?AV?$_Tree_iterator@V?$_Tree_val@U?$_Tree_simple_types@U?$pair@$$CBIUField@cldb@@@std@@@std@@@std@@@1@_NPEAU?$_Tree_node@U?$pair@$$CBIUField@cldb@@@std@@PEAX@1@$$QEAU?$pair@$$CBIUField@cldb@@@1@U_Not_a_node_tag@1@@Z 0000000180000000     clReflectCore:DatabaseTextSerialiser.obj
 0002:fffcc000       $unwind$??$_Insert_at@U?$pair@$$CBIUFunction@cldb@@@std@@U_Not_a_node_tag@2@@?$_Tree@V?$_Tmap_traits@IUFunction@cldb@@U?$less@I@std@@V?$allocator@U?$pair@$$CBIUFunction@cldb@@@std@@@4@$00@std@@@std@@IEAA?AV?$_Tree_iterator@V?$_Tree_val@U?$_Tree_simple_types@U?$pair@$$CBIUFunction@cldb@@@std@@@std@@@std@@@1@_NPEAU?$_Tree_node@U?$pair@$$CBIUFunction@cldb@@@std@@PEAX@1@$$QEAU?$pair@$$CBIUFunction@cldb@@@1@U_Not_a_node_tag@1@@Z 0000000180000000     clReflectCore:DatabaseTextSerialiser.obj
 0004:fffba000       $pdata$??$_Insert_at@U?$pair@$$CBIUFunction@cldb@@@std@@U_Not_a_node_tag@2@@?$_Tree@V?$_Tmap_traits@IUFunction@cldb@@U?$less@I@std@@V?$allocator@U?$pair@$$CBIUFunction@cldb@@@std@@@4@$00@std@@@std@@IEAA?AV?$_Tree_iterator@V?$_Tree_val@U?$_Tree_simple_types@U?$pair@$$CBIUFunction@cldb@@@std@@@std@@@std@@@1@_NPEAU?$_Tree_node@U?$pair@$$CBIUFunction@cldb@@@std@@PEAX@1@$$QEAU?$pair@$$CBIUFunction@cldb@@@1@U_Not_a_node_tag@1@@Z 0000000180000000     clReflectCore:DatabaseTextSerialiser.obj
 0002:fffcc000       $unwind$??$_Insert_at@U?$pair@$$CBIUClass@cldb@@@std@@U_Not_a_node_tag@2@@?$_Tree@V?$_Tmap_traits@IUClass@cldb@@U?$less@I@std@@V?$allocator@U?$pair@$$CBIUClass@cldb@@@std@@@4@$00@std@@@std@@IEAA?AV?$_Tree_iterator@V?$_Tree_val@U?$_Tree_simple_types@U?$pair@$$CBIUClass@cldb@@@std@@@std@@@std@@@1@_NPEAU?$_Tree_node@U?$pair@$$CBIUClass@cldb@@@std@@PEAX@1@$$QEAU?$pair@$$CBIUClass@cldb@@@1@U_Not_a_node_tag@1@@Z 0000000180000000     clReflectCore:DatabaseTextSerialiser.obj
 0004:fffba000       $pdata$??$_Insert_at@U?$pair@$$CBIUClass@cldb@@@std@@U_Not_a_node_tag@2@@?$_Tree@V?$_Tmap_traits@IUClass@cldb@@U?$less@I@std@@V?$allocator@U?$pair@$$CBIUClass@cldb@@@std@@@4@$00@std@@@std@@IEAA?AV?$_Tree_iterator@V?$_Tree_val@U?$_Tree_simple_types@U?$pair@$$CBIUClass@cldb@@@std@@@std@@@std@@@1@_NPEAU?$_Tree_node@U?$pair@$$CBIUClass@cldb@@@std@@PEAX@1@$$QEAU?$pair@$$CBIUClass@cldb@@@1@U_Not_a_node_tag@1@@Z 0000000180000000     clReflectCore:DatabaseTextSerialiser.obj
 0002:fffcc000       $unwind$??$_Insert_at@U?$pair@$$CBIUTemplateType@cldb@@@std@@U_Not_a_node_tag@2@@?$_Tree@V?$_Tmap_traits@IUTemplateType@cldb@@U?$less@I@std@@V?$allocator@U?$pair@$$CBIUTemplateType@cldb@@@std@@@4@$00@std@@@std@@IEAA?AV?$_Tree_iterator@V?$_Tree_val@U?$_Tree_simple_types@U?$pair@$$CBIUTemplateType@cldb@@@std@@@std@@@std@@@1@_NPEAU?$_Tree_node@U?$pair@$$CBIUTemplateType@cldb@@@std@@PEAX@1@$$QEAU?$pair@$$CBIUTemplateType@cldb@@@1@U_Not_a_node_tag@1@@Z 0000000180000000     clReflectCore:DatabaseTextSerialiser.obj
 0004:fffba000       $pdata$??$_Insert_at@U?$pair@$$CBIUTemplateType@cldb@@@std@@U_Not_a_node_tag@2@@?$_Tree@V?$_Tmap_traits@IUTemplateType@cldb@@U?$less@I@std@@V?$allocator@U?$pair@$$CBIUTemplateType@cldb@@@std@@@4@$00@std@@@std@@IEAA?AV?$_Tree_iterator@V?$_Tree_val@U?$_Tree_simple_types@U?$pair@$$CBIUTemplateType@cldb@@@std@@@std@@@std@@@1@_NPEAU?$_Tree_node@U?$pair@$$CBIUTemplateType@cldb@@@std@@PEAX@1@$$QEAU?$pair@$$CBIUTemplateType@cldb@@@1@U_Not_a_node_tag@1@@Z 0000000180000000     clReflectCore:DatabaseTextSerialiser.obj
 0002:fffcc000       $unwind$??$_Insert_at@U?$pair@$$CBIUIntAttribute@cldb@@@std@@U_Not_a_node_tag@2@@?$_Tree@V?$_Tmap_traits@IUIntAttribute@cldb@@U?$less@I@std@@V?$allocator@U?$pair@$$CBIUIntAttribute@cldb@@@std@@@4@$00@std@@@std@@IEAA?AV?$_Tree_iterator@V?$_Tree_val@U?$_Tree_simple_types@U?$pair@$$CBIUIntAttribute@cldb@@@std@@@std@@@std@@@1@_NPEAU?$_Tree_node@U?$pair@$$CBIUIntAttribute@cldb@@@std@@PEAX@1@$$QEAU?$pair@$$CBIUIntAttribute@cldb@@@1@U_Not_a_node_tag@1@@Z 0000000180000000     clReflectCore:DatabaseTextSerialiser.obj
 0004:fffba000       $pdata$??$_Insert_at@U?$pair@$$CBIUIntAttribute@cldb@@@std@@U_Not_a_node_tag@2@@?$_Tree@V?$_Tmap_traits@IUIntAttribute@cldb@@U?$less@I@std@@V?$allocator@U?$pair@$$CBIUIntAttribute@cldb@@@std@@@4@$00@std@@@std@@IEAA?AV?$_Tree_iterator@V?$_Tree_val@U?$_Tree_simple_types@U?$pair@$$CBIUIntAttribute@cldb@@@std@@@std@@@std@@@1@_NPEAU?$_Tree_node@U?$pair@$$CBIUIntAttribute@cldb@@@std@@PEAX@1@$$QEAU?$pair@$$CBIUIntAttribute@cldb@@@1@U_Not_a_node_tag@1@@Z 0000000180000000     clReflectCore:DatabaseTextSerialiser.obj
 0002:fffcc000       $unwind$??$_Insert_at@U?$pair@$$CBIUFloatAttribute@cldb@@@std@@U_Not_a_node_tag@2@@?$_Tree@V?$_Tmap_traits@IUFloatAttribute@cldb@@U?$less@I@std@@V?$allocator@U?$pair@$$CBIUFloatAttribute@cldb@@@std@@@4@$00@std@@@std@@IEAA?AV?$_Tree_iterator@V?$_Tree_val@U?$_Tree_simple_types@U?$pair@$$CBIUFloatAttribute@cldb@@@std@@@std@@@std@@@1@_NPEAU?$_Tree_node@U?$pair@$$CBIUFloatAttribute@cldb@@@std@@PEAX@1@$$QEAU?$pair@$$CBIUFloatAttribute@cldb@@@1@U_Not_a_node_tag@1@@Z 0000000180000000     clReflectCore:DatabaseTextSerialiser.obj
 0004:fffba000       $pdata$??$_Insert_at@U?$pair@$$CBIUFloatAttribute@cldb@@@std@@U_Not_a_node_tag@2@@?$_Tree@V?$_Tmap_traits@IUFloatAttribute@cldb@@U?$less@I@std@@V?$allocator@U?$pair@$$CBIUFloatAttribute@cldb@@@std@@@4@$00@std@@@std@@IEAA?AV?$_Tree_iterator@V?$_Tree_val@U?$_Tree_simple_types@U?$pair@$$CBIUFloatAttribute@cldb@@@std@@@std@@@std@@@1@_NPEAU?$_Tree_node@U?$pair@$$CBIUFloatAttribute@cldb@@@std@@PEAX@1@$$QEAU?$pair@$$CBIUFloatAttribute@cldb@@@1@U_Not_a_node_tag@1@@Z 0000000180000000     clReflectCore:DatabaseTextSerialiser.obj
 0002:fffcc000       $unwind$?_Extract@?$_Tree_val@U?$_Tree_simple_types@U?$pair@$$CBIUField@cldb@@@std@@@std@@@std@@QEAAPEAU?$_Tree_node@U?$pair@$$CBIUField@cldb@@@std@@PEAX@2@V?$_Tree_const_iterator@V?$_Tree_val@U?$_Tree_simple_types@U?$pair@$$CBIUField@cldb@@@std@@@std@@@std@@@2@@Z 0000000180000000     clReflectCore:Database.obj
 0002:fffcc000       $unwind$??$_Insert_at@U?$pair@$$CBIUPrimitiveAttribute@cldb@@@std@@U_Not_a_node_tag@2@@?$_Tree@V?$_Tmap_traits@IUPrimitiveAttribute@cldb@@U?$less@I@std@@V?$allocator@U?$pair@$$CBIUPrimitiveAttribute@cldb@@@std@@@4@$00@std@@@std@@IEAA?AV?$_Tree_iterator@V?$_Tree_val@U?$_Tree_simple_types@U?$pair@$$CBIUPrimitiveAttribute@cldb@@@std@@@std@@@std@@@1@_NPEAU?$_Tree_node@U?$pair@$$CBIUPrimitiveAttribute@cldb@@@std@@PEAX@1@$$QEAU?$pair@$$CBIUPrimitiveAttribute@cldb@@@1@U_Not_a_node_tag@1@@Z 0000000180000000     clReflectCore:DatabaseTextSerialiser.obj
 0004:fffba000       $pdata$??$_Insert_at@U?$pair@$$CBIUPrimitiveAttribute@cldb@@@std@@U_Not_a_node_tag@2@@?$_Tree@V?$_Tmap_traits@IUPrimitiveAttribute@cldb@@U?$less@I@std@@V?$allocator@U?$pair@$$CBIUPrimitiveAttribute@cldb@@@std@@@4@$00@std@@@std@@IEAA?AV?$_Tree_iterator@V?$_Tree_val@U?$_Tree_simple_types@U?$pair@$$CBIUPrimitiveAttribute@cldb@@@std@@@std@@@std@@@1@_NPEAU?$_Tree_node@U?$pair@$$CBIUPrimitiveAttribute@cldb@@@std@@PEAX@1@$$QEAU?$pair@$$CBIUPrimitiveAttribute@cldb@@@1@U_Not_a_node_tag@1@@Z 0000000180000000     clReflectCore:DatabaseTextSerialiser.obj
 0002:fffcc000       $unwind$??$_Insert_at@U?$pair@$$CBIUTextAttribute@cldb@@@std@@U_Not_a_node_tag@2@@?$_Tree@V?$_Tmap_traits@IUTextAttribute@cldb@@U?$less@I@std@@V?$allocator@U?$pair@$$CBIUTextAttribute@cldb@@@std@@@4@$00@std@@@std@@IEAA?AV?$_Tree_iterator@V?$_Tree_val@U?$_Tree_simple_types@U?$pair@$$CBIUTextAttribute@cldb@@@std@@@std@@@std@@@1@_NPEAU?$_Tree_node@U?$pair@$$CBIUTextAttribute@cldb@@@std@@PEAX@1@$$QEAU?$pair@$$CBIUTextAttribute@cldb@@@1@U_Not_a_node_tag@1@@Z 0000000180000000     clReflectCore:DatabaseTextSerialiser.obj
 0004:fffba000       $pdata$??$_Insert_at@U?$pair@$$CBIUTextAttribute@cldb@@@std@@U_Not_a_node_tag@2@@?$_Tree@V?$_Tmap_traits@IUTextAttribute@cldb@@U?$less@I@std@@V?$allocator@U?$pair@$$CBIUTextAttribute@cldb@@@std@@@4@$00@std@@@std@@IEAA?AV?$_Tree_iterator@V?$_Tree_val@U?$_Tree_simple_types@U?$pair@$$CBIUTextAttribute@cldb@@@std@@@std@@@std@@@1@_NPEAU?$_Tree_node@U?$pair@$$CBIUTextAttribute@cldb@@@std@@PEAX@1@$$QEAU?$pair@$$CBIUTextAttribute@cldb@@@1@U_Not_a_node_tag@1@@Z 0000000180000000     clReflectCore:DatabaseTextSerialiser.obj
 0004:fffba000       $pdata$?_Tidy@?$vector@UDatabaseField@meta@cldb@@V?$allocator@UDatabaseField@meta@cldb@@@std@@@std@@AEAAXXZ 0000000180000000     clReflectCore:DatabaseMetadata.obj
 0002:fffcc000       $unwind$?_Tidy@?$vector@UDatabaseField@meta@cldb@@V?$allocator@UDatabaseField@meta@cldb@@@std@@@std@@AEAAXXZ 0000000180000000     clReflectCore:DatabaseMetadata.obj
 0002:fffcc000       $unwind$??$_Insert_nohint@U?$pair@$$CBIUNamespace@cldb@@@std@@U_Not_a_node_tag@2@@?$_Tree@V?$_Tmap_traits@IUNamespace@cldb@@U?$less@I@std@@V?$allocator@U?$pair@$$CBIUNamespace@cldb@@@std@@@4@$00@std@@@std@@IEAA?AU?$pair@V?$_Tree_iterator@V?$_Tree_val@U?$_Tree_simple_types@U?$pair@$$CBIUNamespace@cldb@@@std@@@std@@@std@@@std@@_N@1@_N$$QEAU?$pair@$$CBIUNamespace@cldb@@@1@U_Not_a_node_tag@1@@Z 0000000180000000     clReflectCore:DatabaseTextSerialiser.obj
 0004:fffba000       $pdata$??$_Insert_nohint@U?$pair@$$CBIUNamespace@cldb@@@std@@U_Not_a_node_tag@2@@?$_Tree@V?$_Tmap_traits@IUNamespace@cldb@@U?$less@I@std@@V?$allocator@U?$pair@$$CBIUNamespace@cldb@@@std@@@4@$00@std@@@std@@IEAA?AU?$pair@V?$_Tree_iterator@V?$_Tree_val@U?$_Tree_simple_types@U?$pair@$$CBIUNamespace@cldb@@@std@@@std@@@std@@@std@@_N@1@_N$$QEAU?$pair@$$CBIUNamespace@cldb@@@1@U_Not_a_node_tag@1@@Z 0000000180000000     clReflectCore:DatabaseTextSerialiser.obj
 0002:fffcc000       $cppxdata$??$_Insert_nohint@U?$pair@$$CBIUNamespace@cldb@@@std@@U_Not_a_node_tag@2@@?$_Tree@V?$_Tmap_traits@IUNamespace@cldb@@U?$less@I@std@@V?$allocator@U?$pair@$$CBIUNamespace@cldb@@@std@@@4@$00@std@@@std@@IEAA?AU?$pair@V?$_Tree_iterator@V?$_Tree_val@U?$_Tree_simple_types@U?$pair@$$CBIUNamespace@cldb@@@std@@@std@@@std@@@std@@_N@1@_N$$QEAU?$pair@$$CBIUNamespace@cldb@@@1@U_Not_a_node_tag@1@@Z 0000000180000000     clReflectCore:DatabaseTextSerialiser.obj
 0002:fffcc000       $stateUnwindMap$??$_Insert_nohint@U?$pair@$$CBIUNamespace@cldb@@@std@@U_Not_a_node_tag@2@@?$_Tree@V?$_Tmap_traits@IUNamespace@cldb@@U?$less@I@std@@V?$allocator@U?$pair@$$CBIUNamespace@cldb@@@std@@@4@$00@std@@@std@@IEAA?AU?$pair@V?$_Tree_iterator@V?$_Tree_val@U?$_Tree_simple_types@U?$pair@$$CBIUNamespace@cldb@@@std@@@std@@@std@@@std@@_N@1@_N$$QEAU?$pair@$$CBIUNamespace@cldb@@@1@U_Not_a_node_tag@1@@Z 0000000180000000     clReflectCore:DatabaseTextSerialiser.obj
 0002:fffcc000       $tryMap$??$_Insert_nohint@U?$pair@$$CBIUNamespace@cldb@@@std@@U_Not_a_node_tag@2@@?$_Tree@V?$_Tmap_traits@IUNamespace@cldb@@U?$less@I@std@@V?$allocator@U?$pair@$$CBIUNamespace@cldb@@@std@@@4@$00@std@@@std@@IEAA?AU?$pair@V?$_Tree_iterator@V?$_Tree_val@U?$_Tree_simple_types@U?$pair@$$CBIUNamespace@cldb@@@std@@@std@@@std@@@std@@_N@1@_N$$QEAU?$pair@$$CBIUNamespace@cldb@@@1@U_Not_a_node_tag@1@@Z 0000000180000000     clReflectCore:DatabaseTextSerialiser.obj
 0002:fffcc000       $handlerMap$0$??$_Insert_nohint@U?$pair@$$CBIUNamespace@cldb@@@std@@U_Not_a_node_tag@2@@?$_Tree@V?$_Tmap_traits@IUNamespace@cldb@@U?$less@I@std@@V?$allocator@U?$pair@$$CBIUNamespace@cldb@@@std@@@4@$00@std@@@std@@IEAA?AU?$pair@V?$_Tree_iterator@V?$_Tree_val@U?$_Tree_simple_types@U?$pair@$$CBIUNamespace@cldb@@@std@@@std@@@std@@@std@@_N@1@_N$$QEAU?$pair@$$CBIUNamespace@cldb@@@1@U_Not_a_node_tag@1@@Z 0000000180000000     clReflectCore:DatabaseTextSerialiser.obj
 0004:fffba000       $pdata$??1TypeInheritance@cldb@@QEAA@XZ 0000000180000000     clReflectCore:DatabaseMetadata.obj
 0002:fffcc000       $unwind$??1TypeInheritance@cldb@@QEAA@XZ 0000000180000000     clReflectCore:DatabaseMetadata.obj
 0004:fffba000       $pdata$??1ContainerInfo@cldb@@QEAA@XZ 0000000180000000     clReflectCore:DatabaseMetadata.obj
 0002:fffcc000       $unwind$??1ContainerInfo@cldb@@QEAA@XZ 0000000180000000     clReflectCore:DatabaseMetadata.obj
 0002:fffcc000       $ip2state$??0TemplateType@cldb@@QEAA@XZ 0000000180000000     clReflectCore:DatabaseMetadata.obj
 0002:fffcc000       $stateUnwindMap$??0TemplateType@cldb@@QEAA@XZ 0000000180000000     clReflectCore:DatabaseMetadata.obj
 0002:fffcc000       $cppxdata$??0TemplateType@cldb@@QEAA@XZ 0000000180000000     clReflectCore:DatabaseMetadata.obj
 0004:fffba000       $pdata$??0TemplateType@cldb@@QEAA@XZ 0000000180000000     clReflectCore:DatabaseMetadata.obj
 0002:fffcc000       $unwind$??0TemplateType@cldb@@QEAA@XZ 0000000180000000     clReflectCore:DatabaseMetadata.obj
 0004:fffba000       $pdata$??1Field@cldb@@QEAA@XZ 0000000180000000     clReflectCore:DatabaseMetadata.obj
 0002:fffcc000       $unwind$??1Field@cldb@@QEAA@XZ 0000000180000000     clReflectCore:DatabaseMetadata.obj
 0004:fffba000       $pdata$??_GTextAttribute@cldb@@UEAAPEAXI@Z 0000000180000000     clReflectCore:DatabaseMetadata.obj
 0002:fffcc000       $unwind$??_GTextAttribute@cldb@@UEAAPEAXI@Z 0000000180000000     clReflectCore:DatabaseMetadata.obj
 0004:fffba000       $pdata$??1TextAttribute@cldb@@UEAA@XZ 0000000180000000     clReflectCore:DatabaseMetadata.obj
 0002:fffcc000       $unwind$??1TextAttribute@cldb@@UEAA@XZ 0000000180000000     clReflectCore:DatabaseMetadata.obj
 0004:fffba000       $pdata$??_GPrimitiveAttribute@cldb@@UEAAPEAXI@Z 0000000180000000     clReflectCore:DatabaseMetadata.obj
 0002:fffcc000       $unwind$??_GPrimitiveAttribute@cldb@@UEAAPEAXI@Z 0000000180000000     clReflectCore:DatabaseMetadata.obj
 0004:fffba000       $pdata$??1PrimitiveAttribute@cldb@@UEAA@XZ 0000000180000000     clReflectCore:DatabaseMetadata.obj
 0002:fffcc000       $unwind$??1PrimitiveAttribute@cldb@@UEAA@XZ 0000000180000000     clReflectCore:DatabaseMetadata.obj
 0004:fffba000       $pdata$??_GFloatAttribute@cldb@@UEAAPEAXI@Z 0000000180000000     clReflectCore:DatabaseMetadata.obj
 0002:fffcc000       $unwind$??_GFloatAttribute@cldb@@UEAAPEAXI@Z 0000000180000000     clReflectCore:DatabaseMetadata.obj
 0004:fffba000       $pdata$??_GIntAttribute@cldb@@UEAAPEAXI@Z 0000000180000000     clReflectCore:DatabaseMetadata.obj
 0002:fffcc000       $unwind$??_GIntAttribute@cldb@@UEAAPEAXI@Z 0000000180000000     clReflectCore:DatabaseMetadata.obj
 0004:fffba000       $pdata$??_GAttribute@cldb@@UEAAPEAXI@Z 0000000180000000     clReflectCore:DatabaseMetadata.obj
 0002:fffcc000       $unwind$??_GAttribute@cldb@@UEAAPEAXI@Z 0000000180000000     clReflectCore:DatabaseMetadata.obj
 0004:fffba000       $pdata$??1Primitive@cldb@@QEAA@XZ 0000000180000000     clReflectCore:DatabaseMetadata.obj
 0002:fffcc000       $unwind$??1Primitive@cldb@@QEAA@XZ 0000000180000000     clReflectCore:DatabaseMetadata.obj
 0004:fffba000       $pdata$??1Name@cldb@@QEAA@XZ 0000000180000000     clReflectCore:DatabaseMetadata.obj
 0002:fffcc000       $unwind$??1Name@cldb@@QEAA@XZ 0000000180000000     clReflectCore:DatabaseMetadata.obj
 0002:fffcc000       $ip2state$??$_Insert_nohint@U?$pair@$$CBIUNamespace@cldb@@@std@@U_Not_a_node_tag@2@@?$_Tree@V?$_Tmap_traits@IUNamespace@cldb@@U?$less@I@std@@V?$allocator@U?$pair@$$CBIUNamespace@cldb@@@std@@@4@$00@std@@@std@@IEAA?AU?$pair@V?$_Tree_iterator@V?$_Tree_val@U?$_Tree_simple_types@U?$pair@$$CBIUNamespace@cldb@@@std@@@std@@@std@@@std@@_N@1@_N$$QEAU?$pair@$$CBIUNamespace@cldb@@@1@U_Not_a_node_tag@1@@Z 0000000180000000     clReflectCore:DatabaseTextSerialiser.obj
 0002:fffcc000       $unwind$?catch$0@?0???$_Insert_nohint@U?$pair@$$CBIUNamespace@cldb@@@std@@U_Not_a_node_tag@2@@?$_Tree@V?$_Tmap_traits@IUNamespace@cldb@@U?$less@I@std@@V?$allocator@U?$pair@$$CBIUNamespace@cldb@@@std@@@4@$00@std@@@std@@IEAA?AU?$pair@V?$_Tree_iterator@V?$_Tree_val@U?$_Tree_simple_types@U?$pair@$$CBIUNamespace@cldb@@@std@@@std@@@std@@@std@@_N@1@_N$$QEAU?$pair@$$CBIUNamespace@cldb@@@1@U_Not_a_node_tag@1@@Z@4HA 0000000180000000     clReflectCore:DatabaseTextSerialiser.obj
 0004:fffba000       $pdata$?catch$0@?0???$_Insert_nohint@U?$pair@$$CBIUNamespace@cldb@@@std@@U_Not_a_node_tag@2@@?$_Tree@V?$_Tmap_traits@IUNamespace@cldb@@U?$less@I@std@@V?$allocator@U?$pair@$$CBIUNamespace@cldb@@@std@@@4@$00@std@@@std@@IEAA?AU?$pair@V?$_Tree_iterator@V?$_Tree_val@U?$_Tree_simple_types@U?$pair@$$CBIUNamespace@cldb@@@std@@@std@@@std@@@std@@_N@1@_N$$QEAU?$pair@$$CBIUNamespace@cldb@@@1@U_Not_a_node_tag@1@@Z@4HA 0000000180000000     clReflectCore:DatabaseTextSerialiser.obj
 0002:fffcc000       $unwind$??$_Insert_nohint@U?$pair@$$CBIUTemplate@cldb@@@std@@U_Not_a_node_tag@2@@?$_Tree@V?$_Tmap_traits@IUTemplate@cldb@@U?$less@I@std@@V?$allocator@U?$pair@$$CBIUTemplate@cldb@@@std@@@4@$00@std@@@std@@IEAA?AU?$pair@V?$_Tree_iterator@V?$_Tree_val@U?$_Tree_simple_types@U?$pair@$$CBIUTemplate@cldb@@@std@@@std@@@std@@@std@@_N@1@_N$$QEAU?$pair@$$CBIUTemplate@cldb@@@1@U_Not_a_node_tag@1@@Z 0000000180000000     clReflectCore:DatabaseTextSerialiser.obj
 0004:fffba000       $pdata$??$_Insert_nohint@U?$pair@$$CBIUTemplate@cldb@@@std@@U_Not_a_node_tag@2@@?$_Tree@V?$_Tmap_traits@IUTemplate@cldb@@U?$less@I@std@@V?$allocator@U?$pair@$$CBIUTemplate@cldb@@@std@@@4@$00@std@@@std@@IEAA?AU?$pair@V?$_Tree_iterator@V?$_Tree_val@U?$_Tree_simple_types@U?$pair@$$CBIUTemplate@cldb@@@std@@@std@@@std@@@std@@_N@1@_N$$QEAU?$pair@$$CBIUTemplate@cldb@@@1@U_Not_a_node_tag@1@@Z 0000000180000000     clReflectCore:DatabaseTextSerialiser.obj
 0002:fffcc000       $cppxdata$??$_Insert_nohint@U?$pair@$$CBIUTemplate@cldb@@@std@@U_Not_a_node_tag@2@@?$_Tree@V?$_Tmap_traits@IUTemplate@cldb@@U?$less@I@std@@V?$allocator@U?$pair@$$CBIUTemplate@cldb@@@std@@@4@$00@std@@@std@@IEAA?AU?$pair@V?$_Tree_iterator@V?$_Tree_val@U?$_Tree_simple_types@U?$pair@$$CBIUTemplate@cldb@@@std@@@std@@@std@@@std@@_N@1@_N$$QEAU?$pair@$$CBIUTemplate@cldb@@@1@U_Not_a_node_tag@1@@Z 0000000180000000     clReflectCore:DatabaseTextSerialiser.obj
 0002:fffcc000       $stateUnwindMap$??$_Insert_nohint@U?$pair@$$CBIUTemplate@cldb@@@std@@U_Not_a_node_tag@2@@?$_Tree@V?$_Tmap_traits@IUTemplate@cldb@@U?$less@I@std@@V?$allocator@U?$pair@$$CBIUTemplate@cldb@@@std@@@4@$00@std@@@std@@IEAA?AU?$pair@V?$_Tree_iterator@V?$_Tree_val@U?$_Tree_simple_types@U?$pair@$$CBIUTemplate@cldb@@@std@@@std@@@std@@@std@@_N@1@_N$$QEAU?$pair@$$CBIUTemplate@cldb@@@1@U_Not_a_node_tag@1@@Z 0000000180000000     clReflectCore:DatabaseTextSerialiser.obj
 0002:fffcc000       $tryMap$??$_Insert_nohint@U?$pair@$$CBIUTemplate@cldb@@@std@@U_Not_a_node_tag@2@@?$_Tree@V?$_Tmap_traits@IUTemplate@cldb@@U?$less@I@std@@V?$allocator@U?$pair@$$CBIUTemplate@cldb@@@std@@@4@$00@std@@@std@@IEAA?AU?$pair@V?$_Tree_iterator@V?$_Tree_val@U?$_Tree_simple_types@U?$pair@$$CBIUTemplate@cldb@@@std@@@std@@@std@@@std@@_N@1@_N$$QEAU?$pair@$$CBIUTemplate@cldb@@@1@U_Not_a_node_tag@1@@Z 0000000180000000     clReflectCore:DatabaseTextSerialiser.obj
 0002:fffcc000       $handlerMap$0$??$_Insert_nohint@U?$pair@$$CBIUTemplate@cldb@@@std@@U_Not_a_node_tag@2@@?$_Tree@V?$_Tmap_traits@IUTemplate@cldb@@U?$less@I@std@@V?$allocator@U?$pair@$$CBIUTemplate@cldb@@@std@@@4@$00@std@@@std@@IEAA?AU?$pair@V?$_Tree_iterator@V?$_Tree_val@U?$_Tree_simple_types@U?$pair@$$CBIUTemplate@cldb@@@std@@@std@@@std@@@std@@_N@1@_N$$QEAU?$pair@$$CBIUTemplate@cldb@@@1@U_Not_a_node_tag@1@@Z 0000000180000000     clReflectCore:DatabaseTextSerialiser.obj
 0002:fffcc000       $ip2state$??$_Insert_nohint@U?$pair@$$CBIUTemplate@cldb@@@std@@U_Not_a_node_tag@2@@?$_Tree@V?$_Tmap_traits@IUTemplate@cldb@@U?$less@I@std@@V?$allocator@U?$pair@$$CBIUTemplate@cldb@@@std@@@4@$00@std@@@std@@IEAA?AU?$pair@V?$_Tree_iterator@V?$_Tree_val@U?$_Tree_simple_types@U?$pair@$$CBIUTemplate@cldb@@@std@@@std@@@std@@@std@@_N@1@_N$$QEAU?$pair@$$CBIUTemplate@cldb@@@1@U_Not_a_node_tag@1@@Z 0000000180000000     clReflectCore:DatabaseTextSerialiser.obj
 0002:fffcc000       $unwind$?catch$0@?0???$_Insert_nohint@U?$pair@$$CBIUTemplate@cldb@@@std@@U_Not_a_node_tag@2@@?$_Tree@V?$_Tmap_traits@IUTemplate@cldb@@U?$less@I@std@@V?$allocator@U?$pair@$$CBIUTemplate@cldb@@@std@@@4@$00@std@@@std@@IEAA?AU?$pair@V?$_Tree_iterator@V?$_Tree_val@U?$_Tree_simple_types@U?$pair@$$CBIUTemplate@cldb@@@std@@@std@@@std@@@std@@_N@1@_N$$QEAU?$pair@$$CBIUTemplate@cldb@@@1@U_Not_a_node_tag@1@@Z@4HA 0000000180000000     clReflectCore:DatabaseTextSerialiser.obj
 0004:fffba000       $pdata$?catch$0@?0???$_Insert_nohint@U?$pair@$$CBIUTemplate@cldb@@@std@@U_Not_a_node_tag@2@@?$_Tree@V?$_Tmap_traits@IUTemplate@cldb@@U?$less@I@std@@V?$allocator@U?$pair@$$CBIUTemplate@cldb@@@std@@@4@$00@std@@@std@@IEAA?AU?$pair@V?$_Tree_iterator@V?$_Tree_val@U?$_Tree_simple_types@U?$pair@$$CBIUTemplate@cldb@@@std@@@std@@@std@@@std@@_N@1@_N$$QEAU?$pair@$$CBIUTemplate@cldb@@@1@U_Not_a_node_tag@1@@Z@4HA 0000000180000000     clReflectCore:DatabaseTextSerialiser.obj
 0002:fffcc000       $unwind$??$_Insert_nohint@U?$pair@$$CBIUFlagAttribute@cldb@@@std@@U_Not_a_node_tag@2@@?$_Tree@V?$_Tmap_traits@IUFlagAttribute@cldb@@U?$less@I@std@@V?$allocator@U?$pair@$$CBIUFlagAttribute@cldb@@@std@@@4@$00@std@@@std@@IEAA?AU?$pair@V?$_Tree_iterator@V?$_Tree_val@U?$_Tree_simple_types@U?$pair@$$CBIUFlagAttribute@cldb@@@std@@@std@@@std@@@std@@_N@1@_N$$QEAU?$pair@$$CBIUFlagAttribute@cldb@@@1@U_Not_a_node_tag@1@@Z 0000000180000000     clReflectCore:DatabaseTextSerialiser.obj
 0004:fffba000       $pdata$??$_Insert_nohint@U?$pair@$$CBIUFlagAttribute@cldb@@@std@@U_Not_a_node_tag@2@@?$_Tree@V?$_Tmap_traits@IUFlagAttribute@cldb@@U?$less@I@std@@V?$allocator@U?$pair@$$CBIUFlagAttribute@cldb@@@std@@@4@$00@std@@@std@@IEAA?AU?$pair@V?$_Tree_iterator@V?$_Tree_val@U?$_Tree_simple_types@U?$pair@$$CBIUFlagAttribute@cldb@@@std@@@std@@@std@@@std@@_N@1@_N$$QEAU?$pair@$$CBIUFlagAttribute@cldb@@@1@U_Not_a_node_tag@1@@Z 0000000180000000     clReflectCore:DatabaseTextSerialiser.obj
 0002:fffcc000       $cppxdata$??$_Insert_nohint@U?$pair@$$CBIUFlagAttribute@cldb@@@std@@U_Not_a_node_tag@2@@?$_Tree@V?$_Tmap_traits@IUFlagAttribute@cldb@@U?$less@I@std@@V?$allocator@U?$pair@$$CBIUFlagAttribute@cldb@@@std@@@4@$00@std@@@std@@IEAA?AU?$pair@V?$_Tree_iterator@V?$_Tree_val@U?$_Tree_simple_types@U?$pair@$$CBIUFlagAttribute@cldb@@@std@@@std@@@std@@@std@@_N@1@_N$$QEAU?$pair@$$CBIUFlagAttribute@cldb@@@1@U_Not_a_node_tag@1@@Z 0000000180000000     clReflectCore:DatabaseTextSerialiser.obj
 0002:fffcc000       $stateUnwindMap$??$_Insert_nohint@U?$pair@$$CBIUFlagAttribute@cldb@@@std@@U_Not_a_node_tag@2@@?$_Tree@V?$_Tmap_traits@IUFlagAttribute@cldb@@U?$less@I@std@@V?$allocator@U?$pair@$$CBIUFlagAttribute@cldb@@@std@@@4@$00@std@@@std@@IEAA?AU?$pair@V?$_Tree_iterator@V?$_Tree_val@U?$_Tree_simple_types@U?$pair@$$CBIUFlagAttribute@cldb@@@std@@@std@@@std@@@std@@_N@1@_N$$QEAU?$pair@$$CBIUFlagAttribute@cldb@@@1@U_Not_a_node_tag@1@@Z 0000000180000000     clReflectCore:DatabaseTextSerialiser.obj
 0002:fffcc000       $tryMap$??$_Insert_nohint@U?$pair@$$CBIUFlagAttribute@cldb@@@std@@U_Not_a_node_tag@2@@?$_Tree@V?$_Tmap_traits@IUFlagAttribute@cldb@@U?$less@I@std@@V?$allocator@U?$pair@$$CBIUFlagAttribute@cldb@@@std@@@4@$00@std@@@std@@IEAA?AU?$pair@V?$_Tree_iterator@V?$_Tree_val@U?$_Tree_simple_types@U?$pair@$$CBIUFlagAttribute@cldb@@@std@@@std@@@std@@@std@@_N@1@_N$$QEAU?$pair@$$CBIUFlagAttribute@cldb@@@1@U_Not_a_node_tag@1@@Z 0000000180000000     clReflectCore:DatabaseTextSerialiser.obj
 0001:fffff000       ?dtor$0@?0???0TemplateType@cldb@@QEAA@XZ@4HA 0000000180000000 f   clReflectCore:DatabaseMetadata.obj
 0002:fffcc000       $handlerMap$0$??$_Insert_nohint@U?$pair@$$CBIUFlagAttribute@cldb@@@std@@U_Not_a_node_tag@2@@?$_Tree@V?$_Tmap_traits@IUFlagAttribute@cldb@@U?$less@I@std@@V?$allocator@U?$pair@$$CBIUFlagAttribute@cldb@@@std@@@4@$00@std@@@std@@IEAA?AU?$pair@V?$_Tree_iterator@V?$_Tree_val@U?$_Tree_simple_types@U?$pair@$$CBIUFlagAttribute@cldb@@@std@@@std@@@std@@@std@@_N@1@_N$$QEAU?$pair@$$CBIUFlagAttribute@cldb@@@1@U_Not_a_node_tag@1@@Z 0000000180000000     clReflectCore:DatabaseTextSerialiser.obj
 0002:fffcc000       $ip2state$??$_Insert_nohint@U?$pair@$$CBIUFlagAttribute@cldb@@@std@@U_Not_a_node_tag@2@@?$_Tree@V?$_Tmap_traits@IUFlagAttribute@cldb@@U?$less@I@std@@V?$allocator@U?$pair@$$CBIUFlagAttribute@cldb@@@std@@@4@$00@std@@@std@@IEAA?AU?$pair@V?$_Tree_iterator@V?$_Tree_val@U?$_Tree_simple_types@U?$pair@$$CBIUFlagAttribute@cldb@@@std@@@std@@@std@@@std@@_N@1@_N$$QEAU?$pair@$$CBIUFlagAttribute@cldb@@@1@U_Not_a_node_tag@1@@Z 0000000180000000     clReflectCore:DatabaseTextSerialiser.obj
 0002:fffcc000       $unwind$?catch$0@?0???$_Insert_nohint@U?$pair@$$CBIUFlagAttribute@cldb@@@std@@U_Not_a_node_tag@2@@?$_Tree@V?$_Tmap_traits@IUFlagAttribute@cldb@@U?$less@I@std@@V?$allocator@U?$pair@$$CBIUFlagAttribute@cldb@@@std@@@4@$00@std@@@std@@IEAA?AU?$pair@V?$_Tree_iterator@V?$_Tree_val@U?$_Tree_simple_types@U?$pair@$$CBIUFlagAttribute@cldb@@@std@@@std@@@std@@@std@@_N@1@_N$$QEAU?$pair@$$CBIUFlagAttribute@cldb@@@1@U_Not_a_node_tag@1@@Z@4HA 0000000180000000     clReflectCore:DatabaseTextSerialiser.obj
 0004:fffba000       $pdata$?catch$0@?0???$_Insert_nohint@U?$pair@$$CBIUFlagAttribute@cldb@@@std@@U_Not_a_node_tag@2@@?$_Tree@V?$_Tmap_traits@IUFlagAttribute@cldb@@U?$less@I@std@@V?$allocator@U?$pair@$$CBIUFlagAttribute@cldb@@@std@@@4@$00@std@@@std@@IEAA?AU?$pair@V?$_Tree_iterator@V?$_Tree_val@U?$_Tree_simple_types@U?$pair@$$CBIUFlagAttribute@cldb@@@std@@@std@@@std@@@std@@_N@1@_N$$QEAU?$pair@$$CBIUFlagAttribute@cldb@@@1@U_Not_a_node_tag@1@@Z@4HA 0000000180000000     clReflectCore:DatabaseTextSerialiser.obj
 0002:fffcc000       $unwind$??$_Buynode@U?$pair@$$CBIUContainerInfo@cldb@@@std@@@?$_Tree_comp_alloc@V?$_Tmap_traits@IUContainerInfo@cldb@@U?$less@I@std@@V?$allocator@U?$pair@$$CBIUContainerInfo@cldb@@@std@@@4@$0A@@std@@@std@@QEAAPEAU?$_Tree_node@U?$pair@$$CBIUContainerInfo@cldb@@@std@@PEAX@1@$$QEAU?$pair@$$CBIUContainerInfo@cldb@@@1@@Z 0000000180000000     clReflectCore:DatabaseTextSerialiser.obj
 0004:fffba000       $pdata$??$_Buynode@U?$pair@$$CBIUContainerInfo@cldb@@@std@@@?$_Tree_comp_alloc@V?$_Tmap_traits@IUContainerInfo@cldb@@U?$less@I@std@@V?$allocator@U?$pair@$$CBIUContainerInfo@cldb@@@std@@@4@$0A@@std@@@std@@QEAAPEAU?$_Tree_node@U?$pair@$$CBIUContainerInfo@cldb@@@std@@PEAX@1@$$QEAU?$pair@$$CBIUContainerInfo@cldb@@@1@@Z 0000000180000000     clReflectCore:DatabaseTextSerialiser.obj
 0002:fffcc000       $cppxdata$??$_Buynode@U?$pair@$$CBIUContainerInfo@cldb@@@std@@@?$_Tree_comp_alloc@V?$_Tmap_traits@IUContainerInfo@cldb@@U?$less@I@std@@V?$allocator@U?$pair@$$CBIUContainerInfo@cldb@@@std@@@4@$0A@@std@@@std@@QEAAPEAU?$_Tree_node@U?$pair@$$CBIUContainerInfo@cldb@@@std@@PEAX@1@$$QEAU?$pair@$$CBIUContainerInfo@cldb@@@1@@Z 0000000180000000     clReflectCore:DatabaseTextSerialiser.obj
 0002:fffcc000       $stateUnwindMap$??$_Buynode@U?$pair@$$CBIUContainerInfo@cldb@@@std@@@?$_Tree_comp_alloc@V?$_Tmap_traits@IUContainerInfo@cldb@@U?$less@I@std@@V?$allocator@U?$pair@$$CBIUContainerInfo@cldb@@@std@@@4@$0A@@std@@@std@@QEAAPEAU?$_Tree_node@U?$pair@$$CBIUContainerInfo@cldb@@@std@@PEAX@1@$$QEAU?$pair@$$CBIUContainerInfo@cldb@@@1@@Z 0000000180000000     clReflectCore:DatabaseTextSerialiser.obj
 0002:fffcc000       $tryMap$??$_Buynode@U?$pair@$$CBIUContainerInfo@cldb@@@std@@@?$_Tree_comp_alloc@V?$_Tmap_traits@IUContainerInfo@cldb@@U?$less@I@std@@V?$allocator@U?$pair@$$CBIUContainerInfo@cldb@@@std@@@4@$0A@@std@@@std@@QEAAPEAU?$_Tree_node@U?$pair@$$CBIUContainerInfo@cldb@@@std@@PEAX@1@$$QEAU?$pair@$$CBIUContainerInfo@cldb@@@1@@Z 0000000180000000     clReflectCore:DatabaseTextSerialiser.obj
 0002:fffcc000       $handlerMap$0$??$_Buynode@U?$pair@$$CBIUContainerInfo@cldb@@@std@@@?$_Tree_comp_alloc@V?$_Tmap_traits@IUContainerInfo@cldb@@U?$less@I@std@@V?$allocator@U?$pair@$$CBIUContainerInfo@cldb@@@std@@@4@$0A@@std@@@std@@QEAAPEAU?$_Tree_node@U?$pair@$$CBIUContainerInfo@cldb@@@std@@PEAX@1@$$QEAU?$pair@$$CBIUContainerInfo@cldb@@@1@@Z 0000000180000000     clReflectCore:DatabaseTextSerialiser.obj
 0002:fffcc000       $ip2state$??$_Buynode@U?$pair@$$CBIUContainerInfo@cldb@@@std@@@?$_Tree_comp_alloc@V?$_Tmap_traits@IUContainerInfo@cldb@@U?$less@I@std@@V?$allocator@U?$pair@$$CBIUContainerInfo@cldb@@@std@@@4@$0A@@std@@@std@@QEAAPEAU?$_Tree_node@U?$pair@$$CBIUContainerInfo@cldb@@@std@@PEAX@1@$$QEAU?$pair@$$CBIUContainerInfo@cldb@@@1@@Z 0000000180000000     clReflectCore:DatabaseTextSerialiser.obj
 0002:fffcc000       $unwind$?catch$1@?0???$_Buynode@U?$pair@$$CBIUContainerInfo@cldb@@@std@@@?$_Tree_comp_alloc@V?$_Tmap_traits@IUContainerInfo@cldb@@U?$less@I@std@@V?$allocator@U?$pair@$$CBIUContainerInfo@cldb@@@std@@@4@$0A@@std@@@std@@QEAAPEAU?$_Tree_node@U?$pair@$$CBIUContainerInfo@cldb@@@std@@PEAX@1@$$QEAU?$pair@$$CBIUContainerInfo@cldb@@@1@@Z@4HA 0000000180000000     clReflectCore:DatabaseTextSerialiser.obj
 0004:fffba000       $pdata$?catch$1@?0???$_Buynode@U?$pair@$$CBIUContainerInfo@cldb@@@std@@@?$_Tree_comp_alloc@V?$_Tmap_traits@IUContainerInfo@cldb@@U?$less@I@std@@V?$allocator@U?$pair@$$CBIUContainerInfo@cldb@@@std@@@4@$0A@@std@@@std@@QEAAPEAU?$_Tree_node@U?$pair@$$CBIUContainerInfo@cldb@@@std@@PEAX@1@$$QEAU?$pair@$$CBIUContainerInfo@cldb@@@1@@Z@4HA 0000000180000000     clReflectCore:DatabaseTextSerialiser.obj
 0002:fffcc000       $unwind$??$_Buynode@U?$pair@$$CBIUTypeInheritance@cldb@@@std@@@?$_Tree_comp_alloc@V?$_Tmap_traits@IUTypeInheritance@cldb@@U?$less@I@std@@V?$allocator@U?$pair@$$CBIUTypeInheritance@cldb@@@std@@@4@$0A@@std@@@std@@QEAAPEAU?$_Tree_node@U?$pair@$$CBIUTypeInheritance@cldb@@@std@@PEAX@1@$$QEAU?$pair@$$CBIUTypeInheritance@cldb@@@1@@Z 0000000180000000     clReflectCore:DatabaseTextSerialiser.obj
 0004:fffba000       $pdata$??$_Buynode@U?$pair@$$CBIUTypeInheritance@cldb@@@std@@@?$_Tree_comp_alloc@V?$_Tmap_traits@IUTypeInheritance@cldb@@U?$less@I@std@@V?$allocator@U?$pair@$$CBIUTypeInheritance@cldb@@@std@@@4@$0A@@std@@@std@@QEAAPEAU?$_Tree_node@U?$pair@$$CBIUTypeInheritance@cldb@@@std@@PEAX@1@$$QEAU?$pair@$$CBIUTypeInheritance@cldb@@@1@@Z 0000000180000000     clReflectCore:DatabaseTextSerialiser.obj
 0002:fffcc000       $cppxdata$??$_Buynode@U?$pair@$$CBIUTypeInheritance@cldb@@@std@@@?$_Tree_comp_alloc@V?$_Tmap_traits@IUTypeInheritance@cldb@@U?$less@I@std@@V?$allocator@U?$pair@$$CBIUTypeInheritance@cldb@@@std@@@4@$0A@@std@@@std@@QEAAPEAU?$_Tree_node@U?$pair@$$CBIUTypeInheritance@cldb@@@std@@PEAX@1@$$QEAU?$pair@$$CBIUTypeInheritance@cldb@@@1@@Z 0000000180000000     clReflectCore:DatabaseTextSerialiser.obj
 0002:fffcc000       $stateUnwindMap$??$_Buynode@U?$pair@$$CBIUTypeInheritance@cldb@@@std@@@?$_Tree_comp_alloc@V?$_Tmap_traits@IUTypeInheritance@cldb@@U?$less@I@std@@V?$allocator@U?$pair@$$CBIUTypeInheritance@cldb@@@std@@@4@$0A@@std@@@std@@QEAAPEAU?$_Tree_node@U?$pair@$$CBIUTypeInheritance@cldb@@@std@@PEAX@1@$$QEAU?$pair@$$CBIUTypeInheritance@cldb@@@1@@Z 0000000180000000     clReflectCore:DatabaseTextSerialiser.obj
 0002:fffcc000       $tryMap$??$_Buynode@U?$pair@$$CBIUTypeInheritance@cldb@@@std@@@?$_Tree_comp_alloc@V?$_Tmap_traits@IUTypeInheritance@cldb@@U?$less@I@std@@V?$allocator@U?$pair@$$CBIUTypeInheritance@cldb@@@std@@@4@$0A@@std@@@std@@QEAAPEAU?$_Tree_node@U?$pair@$$CBIUTypeInheritance@cldb@@@std@@PEAX@1@$$QEAU?$pair@$$CBIUTypeInheritance@cldb@@@1@@Z 0000000180000000     clReflectCore:DatabaseTextSerialiser.obj
 0002:fffcc000       $handlerMap$0$??$_Buynode@U?$pair@$$CBIUTypeInheritance@cldb@@@std@@@?$_Tree_comp_alloc@V?$_Tmap_traits@IUTypeInheritance@cldb@@U?$less@I@std@@V?$allocator@U?$pair@$$CBIUTypeInheritance@cldb@@@std@@@4@$0A@@std@@@std@@QEAAPEAU?$_Tree_node@U?$pair@$$CBIUTypeInheritance@cldb@@@std@@PEAX@1@$$QEAU?$pair@$$CBIUTypeInheritance@cldb@@@1@@Z 0000000180000000     clReflectCore:DatabaseTextSerialiser.obj
 0002:fffcc000       $ip2state$??$_Buynode@U?$pair@$$CBIUTypeInheritance@cldb@@@std@@@?$_Tree_comp_alloc@V?$_Tmap_traits@IUTypeInheritance@cldb@@U?$less@I@std@@V?$allocator@U?$pair@$$CBIUTypeInheritance@cldb@@@std@@@4@$0A@@std@@@std@@QEAAPEAU?$_Tree_node@U?$pair@$$CBIUTypeInheritance@cldb@@@std@@PEAX@1@$$QEAU?$pair@$$CBIUTypeInheritance@cldb@@@1@@Z 0000000180000000     clReflectCore:DatabaseTextSerialiser.obj
 0002:fffcc000       $unwind$?catch$1@?0???$_Buynode@U?$pair@$$CBIUTypeInheritance@cldb@@@std@@@?$_Tree_comp_alloc@V?$_Tmap_traits@IUTypeInheritance@cldb@@U?$less@I@std@@V?$allocator@U?$pair@$$CBIUTypeInheritance@cldb@@@std@@@4@$0A@@std@@@std@@QEAAPEAU?$_Tree_node@U?$pair@$$CBIUTypeInheritance@cldb@@@std@@PEAX@1@$$QEAU?$pair@$$CBIUTypeInheritance@cldb@@@1@@Z@4HA 0000000180000000     clReflectCore:DatabaseTextSerialiser.obj
 0004:fffba000       $pdata$?catch$1@?0???$_Buynode@U?$pair@$$CBIUTypeInheritance@cldb@@@std@@@?$_Tree_comp_alloc@V?$_Tmap_traits@IUTypeInheritance@cldb@@U?$less@I@std@@V?$allocator@U?$pair@$$CBIUTypeInheritance@cldb@@@std@@@4@$0A@@std@@@std@@QEAAPEAU?$_Tree_node@U?$pair@$$CBIUTypeInheritance@cldb@@@std@@PEAX@1@$$QEAU?$pair@$$CBIUTypeInheritance@cldb@@@1@@Z@4HA 0000000180000000     clReflectCore:DatabaseTextSerialiser.obj
 0002:fffcc000       $unwind$??$_Insert_at@U?$pair@$$CBIUNamespace@cldb@@@std@@U_Not_a_node_tag@2@@?$_Tree@V?$_Tmap_traits@IUNamespace@cldb@@U?$less@I@std@@V?$allocator@U?$pair@$$CBIUNamespace@cldb@@@std@@@4@$00@std@@@std@@IEAA?AV?$_Tree_iterator@V?$_Tree_val@U?$_Tree_simple_types@U?$pair@$$CBIUNamespace@cldb@@@std@@@std@@@std@@@1@_NPEAU?$_Tree_node@U?$pair@$$CBIUNamespace@cldb@@@std@@PEAX@1@$$QEAU?$pair@$$CBIUNamespace@cldb@@@1@U_Not_a_node_tag@1@@Z 0000000180000000     clReflectCore:DatabaseTextSerialiser.obj
 0004:fffba000       $pdata$??$_Insert_at@U?$pair@$$CBIUNamespace@cldb@@@std@@U_Not_a_node_tag@2@@?$_Tree@V?$_Tmap_traits@IUNamespace@cldb@@U?$less@I@std@@V?$allocator@U?$pair@$$CBIUNamespace@cldb@@@std@@@4@$00@std@@@std@@IEAA?AV?$_Tree_iterator@V?$_Tree_val@U?$_Tree_simple_types@U?$pair@$$CBIUNamespace@cldb@@@std@@@std@@@std@@@1@_NPEAU?$_Tree_node@U?$pair@$$CBIUNamespace@cldb@@@std@@PEAX@1@$$QEAU?$pair@$$CBIUNamespace@cldb@@@1@U_Not_a_node_tag@1@@Z 0000000180000000     clReflectCore:DatabaseTextSerialiser.obj
 0002:fffcc000       $unwind$??$_Insert_at@U?$pair@$$CBIUTemplate@cldb@@@std@@U_Not_a_node_tag@2@@?$_Tree@V?$_Tmap_traits@IUTemplate@cldb@@U?$less@I@std@@V?$allocator@U?$pair@$$CBIUTemplate@cldb@@@std@@@4@$00@std@@@std@@IEAA?AV?$_Tree_iterator@V?$_Tree_val@U?$_Tree_simple_types@U?$pair@$$CBIUTemplate@cldb@@@std@@@std@@@std@@@1@_NPEAU?$_Tree_node@U?$pair@$$CBIUTemplate@cldb@@@std@@PEAX@1@$$QEAU?$pair@$$CBIUTemplate@cldb@@@1@U_Not_a_node_tag@1@@Z 0000000180000000     clReflectCore:DatabaseTextSerialiser.obj
 0004:fffba000       $pdata$??$_Insert_at@U?$pair@$$CBIUTemplate@cldb@@@std@@U_Not_a_node_tag@2@@?$_Tree@V?$_Tmap_traits@IUTemplate@cldb@@U?$less@I@std@@V?$allocator@U?$pair@$$CBIUTemplate@cldb@@@std@@@4@$00@std@@@std@@IEAA?AV?$_Tree_iterator@V?$_Tree_val@U?$_Tree_simple_types@U?$pair@$$CBIUTemplate@cldb@@@std@@@std@@@std@@@1@_NPEAU?$_Tree_node@U?$pair@$$CBIUTemplate@cldb@@@std@@PEAX@1@$$QEAU?$pair@$$CBIUTemplate@cldb@@@1@U_Not_a_node_tag@1@@Z 0000000180000000     clReflectCore:DatabaseTextSerialiser.obj
 0002:fffcc000       $unwind$??$_Insert_at@U?$pair@$$CBIUFlagAttribute@cldb@@@std@@U_Not_a_node_tag@2@@?$_Tree@V?$_Tmap_traits@IUFlagAttribute@cldb@@U?$less@I@std@@V?$allocator@U?$pair@$$CBIUFlagAttribute@cldb@@@std@@@4@$00@std@@@std@@IEAA?AV?$_Tree_iterator@V?$_Tree_val@U?$_Tree_simple_types@U?$pair@$$CBIUFlagAttribute@cldb@@@std@@@std@@@std@@@1@_NPEAU?$_Tree_node@U?$pair@$$CBIUFlagAttribute@cldb@@@std@@PEAX@1@$$QEAU?$pair@$$CBIUFlagAttribute@cldb@@@1@U_Not_a_node_tag@1@@Z 0000000180000000     clReflectCore:DatabaseTextSerialiser.obj
 0004:fffba000       $pdata$??$_Insert_at@U?$pair@$$CBIUFlagAttribute@cldb@@@std@@U_Not_a_node_tag@2@@?$_Tree@V?$_Tmap_traits@IUFlagAttribute@cldb@@U?$less@I@std@@V?$allocator@U?$pair@$$CBIUFlagAttribute@cldb@@@std@@@4@$00@std@@@std@@IEAA?AV?$_Tree_iterator@V?$_Tree_val@U?$_Tree_simple_types@U?$pair@$$CBIUFlagAttribute@cldb@@@std@@@std@@@std@@@1@_NPEAU?$_Tree_node@U?$pair@$$CBIUFlagAttribute@cldb@@@std@@PEAX@1@$$QEAU?$pair@$$CBIUFlagAttribute@cldb@@@1@U_Not_a_node_tag@1@@Z 0000000180000000     clReflectCore:DatabaseTextSerialiser.obj
 0002:fffcc000       $unwind$??$_Buynode@U?$pair@$$CBIUType@cldb@@@std@@@?$_Tree_comp_alloc@V?$_Tmap_traits@IUType@cldb@@U?$less@I@std@@V?$allocator@U?$pair@$$CBIUType@cldb@@@std@@@4@$00@std@@@std@@QEAAPEAU?$_Tree_node@U?$pair@$$CBIUType@cldb@@@std@@PEAX@1@$$QEAU?$pair@$$CBIUType@cldb@@@1@@Z 0000000180000000     clReflectCore:DatabaseTextSerialiser.obj
 0004:fffba000       $pdata$??$_Buynode@U?$pair@$$CBIUType@cldb@@@std@@@?$_Tree_comp_alloc@V?$_Tmap_traits@IUType@cldb@@U?$less@I@std@@V?$allocator@U?$pair@$$CBIUType@cldb@@@std@@@4@$00@std@@@std@@QEAAPEAU?$_Tree_node@U?$pair@$$CBIUType@cldb@@@std@@PEAX@1@$$QEAU?$pair@$$CBIUType@cldb@@@1@@Z 0000000180000000     clReflectCore:DatabaseTextSerialiser.obj
 0002:fffcc000       $cppxdata$??$_Buynode@U?$pair@$$CBIUType@cldb@@@std@@@?$_Tree_comp_alloc@V?$_Tmap_traits@IUType@cldb@@U?$less@I@std@@V?$allocator@U?$pair@$$CBIUType@cldb@@@std@@@4@$00@std@@@std@@QEAAPEAU?$_Tree_node@U?$pair@$$CBIUType@cldb@@@std@@PEAX@1@$$QEAU?$pair@$$CBIUType@cldb@@@1@@Z 0000000180000000     clReflectCore:DatabaseTextSerialiser.obj
 0002:fffcc000       $stateUnwindMap$??$_Buynode@U?$pair@$$CBIUType@cldb@@@std@@@?$_Tree_comp_alloc@V?$_Tmap_traits@IUType@cldb@@U?$less@I@std@@V?$allocator@U?$pair@$$CBIUType@cldb@@@std@@@4@$00@std@@@std@@QEAAPEAU?$_Tree_node@U?$pair@$$CBIUType@cldb@@@std@@PEAX@1@$$QEAU?$pair@$$CBIUType@cldb@@@1@@Z 0000000180000000     clReflectCore:DatabaseTextSerialiser.obj
 0002:fffcc000       $tryMap$??$_Buynode@U?$pair@$$CBIUType@cldb@@@std@@@?$_Tree_comp_alloc@V?$_Tmap_traits@IUType@cldb@@U?$less@I@std@@V?$allocator@U?$pair@$$CBIUType@cldb@@@std@@@4@$00@std@@@std@@QEAAPEAU?$_Tree_node@U?$pair@$$CBIUType@cldb@@@std@@PEAX@1@$$QEAU?$pair@$$CBIUType@cldb@@@1@@Z 0000000180000000     clReflectCore:DatabaseTextSerialiser.obj
 0002:fffcc000       $handlerMap$0$??$_Buynode@U?$pair@$$CBIUType@cldb@@@std@@@?$_Tree_comp_alloc@V?$_Tmap_traits@IUType@cldb@@U?$less@I@std@@V?$allocator@U?$pair@$$CBIUType@cldb@@@std@@@4@$00@std@@@std@@QEAAPEAU?$_Tree_node@U?$pair@$$CBIUType@cldb@@@std@@PEAX@1@$$QEAU?$pair@$$CBIUType@cldb@@@1@@Z 0000000180000000     clReflectCore:DatabaseTextSerialiser.obj
 0002:fffcc000       $ip2state$??$_Buynode@U?$pair@$$CBIUType@cldb@@@std@@@?$_Tree_comp_alloc@V?$_Tmap_traits@IUType@cldb@@U?$less@I@std@@V?$allocator@U?$pair@$$CBIUType@cldb@@@std@@@4@$00@std@@@std@@QEAAPEAU?$_Tree_node@U?$pair@$$CBIUType@cldb@@@std@@PEAX@1@$$QEAU?$pair@$$CBIUType@cldb@@@1@@Z 0000000180000000     clReflectCore:DatabaseTextSerialiser.obj
 0002:fffcc000       $unwind$?catch$2@?0???$_Buynode@U?$pair@$$CBIUType@cldb@@@std@@@?$_Tree_comp_alloc@V?$_Tmap_traits@IUType@cldb@@U?$less@I@std@@V?$allocator@U?$pair@$$CBIUType@cldb@@@std@@@4@$00@std@@@std@@QEAAPEAU?$_Tree_node@U?$pair@$$CBIUType@cldb@@@std@@PEAX@1@$$QEAU?$pair@$$CBIUType@cldb@@@1@@Z@4HA 0000000180000000     clReflectCore:DatabaseTextSerialiser.obj
 0004:fffba000       $pdata$?catch$2@?0???$_Buynode@U?$pair@$$CBIUType@cldb@@@std@@@?$_Tree_comp_alloc@V?$_Tmap_traits@IUType@cldb@@U?$less@I@std@@V?$allocator@U?$pair@$$CBIUType@cldb@@@std@@@4@$00@std@@@std@@QEAAPEAU?$_Tree_node@U?$pair@$$CBIUType@cldb@@@std@@PEAX@1@$$QEAU?$pair@$$CBIUType@cldb@@@1@@Z@4HA 0000000180000000     clReflectCore:DatabaseTextSerialiser.obj
 0002:fffcc000       $unwind$??$_Buynode@U?$pair@$$CBIUEnumConstant@cldb@@@std@@@?$_Tree_comp_alloc@V?$_Tmap_traits@IUEnumConstant@cldb@@U?$less@I@std@@V?$allocator@U?$pair@$$CBIUEnumConstant@cldb@@@std@@@4@$00@std@@@std@@QEAAPEAU?$_Tree_node@U?$pair@$$CBIUEnumConstant@cldb@@@std@@PEAX@1@$$QEAU?$pair@$$CBIUEnumConstant@cldb@@@1@@Z 0000000180000000     clReflectCore:DatabaseTextSerialiser.obj
 0004:fffba000       $pdata$??$_Buynode@U?$pair@$$CBIUEnumConstant@cldb@@@std@@@?$_Tree_comp_alloc@V?$_Tmap_traits@IUEnumConstant@cldb@@U?$less@I@std@@V?$allocator@U?$pair@$$CBIUEnumConstant@cldb@@@std@@@4@$00@std@@@std@@QEAAPEAU?$_Tree_node@U?$pair@$$CBIUEnumConstant@cldb@@@std@@PEAX@1@$$QEAU?$pair@$$CBIUEnumConstant@cldb@@@1@@Z 0000000180000000     clReflectCore:DatabaseTextSerialiser.obj
 0002:fffcc000       $cppxdata$??$_Buynode@U?$pair@$$CBIUEnumConstant@cldb@@@std@@@?$_Tree_comp_alloc@V?$_Tmap_traits@IUEnumConstant@cldb@@U?$less@I@std@@V?$allocator@U?$pair@$$CBIUEnumConstant@cldb@@@std@@@4@$00@std@@@std@@QEAAPEAU?$_Tree_node@U?$pair@$$CBIUEnumConstant@cldb@@@std@@PEAX@1@$$QEAU?$pair@$$CBIUEnumConstant@cldb@@@1@@Z 0000000180000000     clReflectCore:DatabaseTextSerialiser.obj
 0002:fffcc000       $stateUnwindMap$??$_Buynode@U?$pair@$$CBIUEnumConstant@cldb@@@std@@@?$_Tree_comp_alloc@V?$_Tmap_traits@IUEnumConstant@cldb@@U?$less@I@std@@V?$allocator@U?$pair@$$CBIUEnumConstant@cldb@@@std@@@4@$00@std@@@std@@QEAAPEAU?$_Tree_node@U?$pair@$$CBIUEnumConstant@cldb@@@std@@PEAX@1@$$QEAU?$pair@$$CBIUEnumConstant@cldb@@@1@@Z 0000000180000000     clReflectCore:DatabaseTextSerialiser.obj
 0002:fffcc000       $tryMap$??$_Buynode@U?$pair@$$CBIUEnumConstant@cldb@@@std@@@?$_Tree_comp_alloc@V?$_Tmap_traits@IUEnumConstant@cldb@@U?$less@I@std@@V?$allocator@U?$pair@$$CBIUEnumConstant@cldb@@@std@@@4@$00@std@@@std@@QEAAPEAU?$_Tree_node@U?$pair@$$CBIUEnumConstant@cldb@@@std@@PEAX@1@$$QEAU?$pair@$$CBIUEnumConstant@cldb@@@1@@Z 0000000180000000     clReflectCore:DatabaseTextSerialiser.obj
 0002:fffcc000       $handlerMap$0$??$_Buynode@U?$pair@$$CBIUEnumConstant@cldb@@@std@@@?$_Tree_comp_alloc@V?$_Tmap_traits@IUEnumConstant@cldb@@U?$less@I@std@@V?$allocator@U?$pair@$$CBIUEnumConstant@cldb@@@std@@@4@$00@std@@@std@@QEAAPEAU?$_Tree_node@U?$pair@$$CBIUEnumConstant@cldb@@@std@@PEAX@1@$$QEAU?$pair@$$CBIUEnumConstant@cldb@@@1@@Z 0000000180000000     clReflectCore:DatabaseTextSerialiser.obj
 0002:fffcc000       $ip2state$??$_Buynode@U?$pair@$$CBIUEnumConstant@cldb@@@std@@@?$_Tree_comp_alloc@V?$_Tmap_traits@IUEnumConstant@cldb@@U?$less@I@std@@V?$allocator@U?$pair@$$CBIUEnumConstant@cldb@@@std@@@4@$00@std@@@std@@QEAAPEAU?$_Tree_node@U?$pair@$$CBIUEnumConstant@cldb@@@std@@PEAX@1@$$QEAU?$pair@$$CBIUEnumConstant@cldb@@@1@@Z 0000000180000000     clReflectCore:DatabaseTextSerialiser.obj
 0002:fffcc000       $unwind$?catch$2@?0???$_Buynode@U?$pair@$$CBIUEnumConstant@cldb@@@std@@@?$_Tree_comp_alloc@V?$_Tmap_traits@IUEnumConstant@cldb@@U?$less@I@std@@V?$allocator@U?$pair@$$CBIUEnumConstant@cldb@@@std@@@4@$00@std@@@std@@QEAAPEAU?$_Tree_node@U?$pair@$$CBIUEnumConstant@cldb@@@std@@PEAX@1@$$QEAU?$pair@$$CBIUEnumConstant@cldb@@@1@@Z@4HA 0000000180000000     clReflectCore:DatabaseTextSerialiser.obj
 0004:fffba000       $pdata$?catch$2@?0???$_Buynode@U?$pair@$$CBIUEnumConstant@cldb@@@std@@@?$_Tree_comp_alloc@V?$_Tmap_traits@IUEnumConstant@cldb@@U?$less@I@std@@V?$allocator@U?$pair@$$CBIUEnumConstant@cldb@@@std@@@4@$00@std@@@std@@QEAAPEAU?$_Tree_node@U?$pair@$$CBIUEnumConstant@cldb@@@std@@PEAX@1@$$QEAU?$pair@$$CBIUEnumConstant@cldb@@@1@@Z@4HA 0000000180000000     clReflectCore:DatabaseTextSerialiser.obj
 0002:fffcc000       $unwind$??$_Buynode@U?$pair@$$CBIUEnum@cldb@@@std@@@?$_Tree_comp_alloc@V?$_Tmap_traits@IUEnum@cldb@@U?$less@I@std@@V?$allocator@U?$pair@$$CBIUEnum@cldb@@@std@@@4@$00@std@@@std@@QEAAPEAU?$_Tree_node@U?$pair@$$CBIUEnum@cldb@@@std@@PEAX@1@$$QEAU?$pair@$$CBIUEnum@cldb@@@1@@Z 0000000180000000     clReflectCore:DatabaseTextSerialiser.obj
 0004:fffba000       $pdata$??$_Buynode@U?$pair@$$CBIUEnum@cldb@@@std@@@?$_Tree_comp_alloc@V?$_Tmap_traits@IUEnum@cldb@@U?$less@I@std@@V?$allocator@U?$pair@$$CBIUEnum@cldb@@@std@@@4@$00@std@@@std@@QEAAPEAU?$_Tree_node@U?$pair@$$CBIUEnum@cldb@@@std@@PEAX@1@$$QEAU?$pair@$$CBIUEnum@cldb@@@1@@Z 0000000180000000     clReflectCore:DatabaseTextSerialiser.obj
 0002:fffcc000       $cppxdata$??$_Buynode@U?$pair@$$CBIUEnum@cldb@@@std@@@?$_Tree_comp_alloc@V?$_Tmap_traits@IUEnum@cldb@@U?$less@I@std@@V?$allocator@U?$pair@$$CBIUEnum@cldb@@@std@@@4@$00@std@@@std@@QEAAPEAU?$_Tree_node@U?$pair@$$CBIUEnum@cldb@@@std@@PEAX@1@$$QEAU?$pair@$$CBIUEnum@cldb@@@1@@Z 0000000180000000     clReflectCore:DatabaseTextSerialiser.obj
 0002:fffcc000       $stateUnwindMap$??$_Buynode@U?$pair@$$CBIUEnum@cldb@@@std@@@?$_Tree_comp_alloc@V?$_Tmap_traits@IUEnum@cldb@@U?$less@I@std@@V?$allocator@U?$pair@$$CBIUEnum@cldb@@@std@@@4@$00@std@@@std@@QEAAPEAU?$_Tree_node@U?$pair@$$CBIUEnum@cldb@@@std@@PEAX@1@$$QEAU?$pair@$$CBIUEnum@cldb@@@1@@Z 0000000180000000     clReflectCore:DatabaseTextSerialiser.obj
 0002:fffcc000       $tryMap$??$_Buynode@U?$pair@$$CBIUEnum@cldb@@@std@@@?$_Tree_comp_alloc@V?$_Tmap_traits@IUEnum@cldb@@U?$less@I@std@@V?$allocator@U?$pair@$$CBIUEnum@cldb@@@std@@@4@$00@std@@@std@@QEAAPEAU?$_Tree_node@U?$pair@$$CBIUEnum@cldb@@@std@@PEAX@1@$$QEAU?$pair@$$CBIUEnum@cldb@@@1@@Z 0000000180000000     clReflectCore:DatabaseTextSerialiser.obj
 0002:fffcc000       $handlerMap$0$??$_Buynode@U?$pair@$$CBIUEnum@cldb@@@std@@@?$_Tree_comp_alloc@V?$_Tmap_traits@IUEnum@cldb@@U?$less@I@std@@V?$allocator@U?$pair@$$CBIUEnum@cldb@@@std@@@4@$00@std@@@std@@QEAAPEAU?$_Tree_node@U?$pair@$$CBIUEnum@cldb@@@std@@PEAX@1@$$QEAU?$pair@$$CBIUEnum@cldb@@@1@@Z 0000000180000000     clReflectCore:DatabaseTextSerialiser.obj
 0002:fffcc000       $ip2state$??$_Buynode@U?$pair@$$CBIUEnum@cldb@@@std@@@?$_Tree_comp_alloc@V?$_Tmap_traits@IUEnum@cldb@@U?$less@I@std@@V?$allocator@U?$pair@$$CBIUEnum@cldb@@@std@@@4@$00@std@@@std@@QEAAPEAU?$_Tree_node@U?$pair@$$CBIUEnum@cldb@@@std@@PEAX@1@$$QEAU?$pair@$$CBIUEnum@cldb@@@1@@Z 0000000180000000     clReflectCore:DatabaseTextSerialiser.obj
 0004:fffba000       $pdata$?_Extract@?$_Tree_val@U?$_Tree_simple_types@U?$pair@$$CBIUField@cldb@@@std@@@std@@@std@@QEAAPEAU?$_Tree_node@U?$pair@$$CBIUField@cldb@@@std@@PEAX@2@V?$_Tree_const_iterator@V?$_Tree_val@U?$_Tree_simple_types@U?$pair@$$CBIUField@cldb@@@std@@@std@@@std@@@2@@Z 0000000180000000     clReflectCore:Database.obj
 0002:fffcc000       $unwind$?catch$3@?0???$_Buynode@U?$pair@$$CBIUEnum@cldb@@@std@@@?$_Tree_comp_alloc@V?$_Tmap_traits@IUEnum@cldb@@U?$less@I@std@@V?$allocator@U?$pair@$$CBIUEnum@cldb@@@std@@@4@$00@std@@@std@@QEAAPEAU?$_Tree_node@U?$pair@$$CBIUEnum@cldb@@@std@@PEAX@1@$$QEAU?$pair@$$CBIUEnum@cldb@@@1@@Z@4HA 0000000180000000     clReflectCore:DatabaseTextSerialiser.obj
 0004:fffba000       $pdata$?catch$3@?0???$_Buynode@U?$pair@$$CBIUEnum@cldb@@@std@@@?$_Tree_comp_alloc@V?$_Tmap_traits@IUEnum@cldb@@U?$less@I@std@@V?$allocator@U?$pair@$$CBIUEnum@cldb@@@std@@@4@$00@std@@@std@@QEAAPEAU?$_Tree_node@U?$pair@$$CBIUEnum@cldb@@@std@@PEAX@1@$$QEAU?$pair@$$CBIUEnum@cldb@@@1@@Z@4HA 0000000180000000     clReflectCore:DatabaseTextSerialiser.obj
 0002:fffcc000       $unwind$??$_Buynode@U?$pair@$$CBIUField@cldb@@@std@@@?$_Tree_comp_alloc@V?$_Tmap_traits@IUField@cldb@@U?$less@I@std@@V?$allocator@U?$pair@$$CBIUField@cldb@@@std@@@4@$00@std@@@std@@QEAAPEAU?$_Tree_node@U?$pair@$$CBIUField@cldb@@@std@@PEAX@1@$$QEAU?$pair@$$CBIUField@cldb@@@1@@Z 0000000180000000     clReflectCore:DatabaseTextSerialiser.obj
 0004:fffba000       $pdata$??$_Buynode@U?$pair@$$CBIUField@cldb@@@std@@@?$_Tree_comp_alloc@V?$_Tmap_traits@IUField@cldb@@U?$less@I@std@@V?$allocator@U?$pair@$$CBIUField@cldb@@@std@@@4@$00@std@@@std@@QEAAPEAU?$_Tree_node@U?$pair@$$CBIUField@cldb@@@std@@PEAX@1@$$QEAU?$pair@$$CBIUField@cldb@@@1@@Z 0000000180000000     clReflectCore:DatabaseTextSerialiser.obj
 0002:fffcc000       $cppxdata$??$_Buynode@U?$pair@$$CBIUField@cldb@@@std@@@?$_Tree_comp_alloc@V?$_Tmap_traits@IUField@cldb@@U?$less@I@std@@V?$allocator@U?$pair@$$CBIUField@cldb@@@std@@@4@$00@std@@@std@@QEAAPEAU?$_Tree_node@U?$pair@$$CBIUField@cldb@@@std@@PEAX@1@$$QEAU?$pair@$$CBIUField@cldb@@@1@@Z 0000000180000000     clReflectCore:DatabaseTextSerialiser.obj
 0002:fffcc000       $stateUnwindMap$??$_Buynode@U?$pair@$$CBIUField@cldb@@@std@@@?$_Tree_comp_alloc@V?$_Tmap_traits@IUField@cldb@@U?$less@I@std@@V?$allocator@U?$pair@$$CBIUField@cldb@@@std@@@4@$00@std@@@std@@QEAAPEAU?$_Tree_node@U?$pair@$$CBIUField@cldb@@@std@@PEAX@1@$$QEAU?$pair@$$CBIUField@cldb@@@1@@Z 0000000180000000     clReflectCore:DatabaseTextSerialiser.obj
 0002:fffcc000       $tryMap$??$_Buynode@U?$pair@$$CBIUField@cldb@@@std@@@?$_Tree_comp_alloc@V?$_Tmap_traits@IUField@cldb@@U?$less@I@std@@V?$allocator@U?$pair@$$CBIUField@cldb@@@std@@@4@$00@std@@@std@@QEAAPEAU?$_Tree_node@U?$pair@$$CBIUField@cldb@@@std@@PEAX@1@$$QEAU?$pair@$$CBIUField@cldb@@@1@@Z 0000000180000000     clReflectCore:DatabaseTextSerialiser.obj
 0002:fffcc000       $handlerMap$0$??$_Buynode@U?$pair@$$CBIUField@cldb@@@std@@@?$_Tree_comp_alloc@V?$_Tmap_traits@IUField@cldb@@U?$less@I@std@@V?$allocator@U?$pair@$$CBIUField@cldb@@@std@@@4@$00@std@@@std@@QEAAPEAU?$_Tree_node@U?$pair@$$CBIUField@cldb@@@std@@PEAX@1@$$QEAU?$pair@$$CBIUField@cldb@@@1@@Z 0000000180000000     clReflectCore:DatabaseTextSerialiser.obj
 0002:fffcc000       $ip2state$??$_Buynode@U?$pair@$$CBIUField@cldb@@@std@@@?$_Tree_comp_alloc@V?$_Tmap_traits@IUField@cldb@@U?$less@I@std@@V?$allocator@U?$pair@$$CBIUField@cldb@@@std@@@4@$00@std@@@std@@QEAAPEAU?$_Tree_node@U?$pair@$$CBIUField@cldb@@@std@@PEAX@1@$$QEAU?$pair@$$CBIUField@cldb@@@1@@Z 0000000180000000     clReflectCore:DatabaseTextSerialiser.obj
 0002:fffcc000       $unwind$?catch$1@?0???$_Buynode@U?$pair@$$CBIUField@cldb@@@std@@@?$_Tree_comp_alloc@V?$_Tmap_traits@IUField@cldb@@U?$less@I@std@@V?$allocator@U?$pair@$$CBIUField@cldb@@@std@@@4@$00@std@@@std@@QEAAPEAU?$_Tree_node@U?$pair@$$CBIUField@cldb@@@std@@PEAX@1@$$QEAU?$pair@$$CBIUField@cldb@@@1@@Z@4HA 0000000180000000     clReflectCore:DatabaseTextSerialiser.obj
 0004:fffba000       $pdata$?_Xlen@?$basic_string@DU?$char_traits@D@std@@V?$allocator@D@2@@std@@SAXXZ 0000000180000000     clReflectCore:FileUtils.obj
 0002:fffcc000       $unwind$?_Xlen@?$basic_string@DU?$char_traits@D@std@@V?$allocator@D@2@@std@@SAXXZ 0000000180000000     clReflectCore:FileUtils.obj
 0004:fffba000       $pdata$?catch$1@?0???$_Buynode@U?$pair@$$CBIUField@cldb@@@std@@@?$_Tree_comp_alloc@V?$_Tmap_traits@IUField@cldb@@U?$less@I@std@@V?$allocator@U?$pair@$$CBIUField@cldb@@@std@@@4@$00@std@@@std@@QEAAPEAU?$_Tree_node@U?$pair@$$CBIUField@cldb@@@std@@PEAX@1@$$QEAU?$pair@$$CBIUField@cldb@@@1@@Z@4HA 0000000180000000     clReflectCore:DatabaseTextSerialiser.obj
 0002:fffcc000       $unwind$??$_Buynode@U?$pair@$$CBIUFunction@cldb@@@std@@@?$_Tree_comp_alloc@V?$_Tmap_traits@IUFunction@cldb@@U?$less@I@std@@V?$allocator@U?$pair@$$CBIUFunction@cldb@@@std@@@4@$00@std@@@std@@QEAAPEAU?$_Tree_node@U?$pair@$$CBIUFunction@cldb@@@std@@PEAX@1@$$QEAU?$pair@$$CBIUFunction@cldb@@@1@@Z 0000000180000000     clReflectCore:DatabaseTextSerialiser.obj
 0004:fffba000       $pdata$??1?$basic_string@DU?$char_traits@D@std@@V?$allocator@D@2@@std@@QEAA@XZ 0000000180000000     clReflectCore:FileUtils.obj
 0002:fffcc000       $unwind$??1?$basic_string@DU?$char_traits@D@std@@V?$allocator@D@2@@std@@QEAA@XZ 0000000180000000     clReflectCore:FileUtils.obj
 0004:fffba000       $pdata$?_Construct_lv_contents@?$basic_string@DU?$char_traits@D@std@@V?$allocator@D@2@@std@@QEAAXAEBV12@@Z 0000000180000000     clReflectCore:FileUtils.obj
 0002:fffcc000       $unwind$?_Construct_lv_contents@?$basic_string@DU?$char_traits@D@std@@V?$allocator@D@2@@std@@QEAAXAEBV12@@Z 0000000180000000     clReflectCore:FileUtils.obj
 0004:fffba000       $pdata$?_Xran@?$_String_val@U?$_Simple_types@D@std@@@std@@SAXXZ 0000000180000000     clReflectCore:FileUtils.obj
 0002:fffcc000       $unwind$?_Xran@?$_String_val@U?$_Simple_types@D@std@@@std@@SAXXZ 0000000180000000     clReflectCore:FileUtils.obj
 0004:fffba000       $pdata$??$_Buynode@U?$pair@$$CBIUFunction@cldb@@@std@@@?$_Tree_comp_alloc@V?$_Tmap_traits@IUFunction@cldb@@U?$less@I@std@@V?$allocator@U?$pair@$$CBIUFunction@cldb@@@std@@@4@$00@std@@@std@@QEAAPEAU?$_Tree_node@U?$pair@$$CBIUFunction@cldb@@@std@@PEAX@1@$$QEAU?$pair@$$CBIUFunction@cldb@@@1@@Z 0000000180000000     clReflectCore:DatabaseTextSerialiser.obj
 0002:fffcc000       $cppxdata$??$_Buynode@U?$pair@$$CBIUFunction@cldb@@@std@@@?$_Tree_comp_alloc@V?$_Tmap_traits@IUFunction@cldb@@U?$less@I@std@@V?$allocator@U?$pair@$$CBIUFunction@cldb@@@std@@@4@$00@std@@@std@@QEAAPEAU?$_Tree_node@U?$pair@$$CBIUFunction@cldb@@@std@@PEAX@1@$$QEAU?$pair@$$CBIUFunction@cldb@@@1@@Z 0000000180000000     clReflectCore:DatabaseTextSerialiser.obj
 0004:fffba000       $pdata$?catch$1@?0???$_Buynode@U?$pair@$$CBIUTypeInheritance@cldb@@@std@@@?$_Tree_comp_alloc@V?$_Tmap_traits@IUTypeInheritance@cldb@@U?$less@I@std@@V?$allocator@U?$pair@$$CBIUTypeInheritance@cldb@@@std@@@4@$0A@@std@@@std@@QEAAPEAU?$_Tree_node@U?$pair@$$CBIUTypeInheritance@cldb@@@std@@PEAX@1@$$QEAU?$pair@$$CBIUTypeInheritance@cldb@@@1@@Z@4HA 0000000180000000     clReflectCore:DatabaseBinarySerialiser.obj
 0002:fffcc000       $unwind$?catch$1@?0???$_Buynode@U?$pair@$$CBIUTypeInheritance@cldb@@@std@@@?$_Tree_comp_alloc@V?$_Tmap_traits@IUTypeInheritance@cldb@@U?$less@I@std@@V?$allocator@U?$pair@$$CBIUTypeInheritance@cldb@@@std@@@4@$0A@@std@@@std@@QEAAPEAU?$_Tree_node@U?$pair@$$CBIUTypeInheritance@cldb@@@std@@PEAX@1@$$QEAU?$pair@$$CBIUTypeInheritance@cldb@@@1@@Z@4HA 0000000180000000     clReflectCore:DatabaseBinarySerialiser.obj
 0002:fffcc000       $ip2state$??$_Buynode@U?$pair@$$CBIUTypeInheritance@cldb@@@std@@@?$_Tree_comp_alloc@V?$_Tmap_traits@IUTypeInheritance@cldb@@U?$less@I@std@@V?$allocator@U?$pair@$$CBIUTypeInheritance@cldb@@@std@@@4@$0A@@std@@@std@@QEAAPEAU?$_Tree_node@U?$pair@$$CBIUTypeInheritance@cldb@@@std@@PEAX@1@$$QEAU?$pair@$$CBIUTypeInheritance@cldb@@@1@@Z 0000000180000000     clReflectCore:DatabaseBinarySerialiser.obj
 0002:fffcc000       $handlerMap$0$??$_Buynode@U?$pair@$$CBIUTypeInheritance@cldb@@@std@@@?$_Tree_comp_alloc@V?$_Tmap_traits@IUTypeInheritance@cldb@@U?$less@I@std@@V?$allocator@U?$pair@$$CBIUTypeInheritance@cldb@@@std@@@4@$0A@@std@@@std@@QEAAPEAU?$_Tree_node@U?$pair@$$CBIUTypeInheritance@cldb@@@std@@PEAX@1@$$QEAU?$pair@$$CBIUTypeInheritance@cldb@@@1@@Z 0000000180000000     clReflectCore:DatabaseBinarySerialiser.obj
 0002:fffcc000       $tryMap$??$_Buynode@U?$pair@$$CBIUTypeInheritance@cldb@@@std@@@?$_Tree_comp_alloc@V?$_Tmap_traits@IUTypeInheritance@cldb@@U?$less@I@std@@V?$allocator@U?$pair@$$CBIUTypeInheritance@cldb@@@std@@@4@$0A@@std@@@std@@QEAAPEAU?$_Tree_node@U?$pair@$$CBIUTypeInheritance@cldb@@@std@@PEAX@1@$$QEAU?$pair@$$CBIUTypeInheritance@cldb@@@1@@Z 0000000180000000     clReflectCore:DatabaseBinarySerialiser.obj
 0002:fffcc000       $stateUnwindMap$??$_Buynode@U?$pair@$$CBIUTypeInheritance@cldb@@@std@@@?$_Tree_comp_alloc@V?$_Tmap_traits@IUTypeInheritance@cldb@@U?$less@I@std@@V?$allocator@U?$pair@$$CBIUTypeInheritance@cldb@@@std@@@4@$0A@@std@@@std@@QEAAPEAU?$_Tree_node@U?$pair@$$CBIUTypeInheritance@cldb@@@std@@PEAX@1@$$QEAU?$pair@$$CBIUTypeInheritance@cldb@@@1@@Z 0000000180000000     clReflectCore:DatabaseBinarySerialiser.obj
 0002:fffcc000       $cppxdata$??$_Buynode@U?$pair@$$CBIUTypeInheritance@cldb@@@std@@@?$_Tree_comp_alloc@V?$_Tmap_traits@IUTypeInheritance@cldb@@U?$less@I@std@@V?$allocator@U?$pair@$$CBIUTypeInheritance@cldb@@@std@@@4@$0A@@std@@@std@@QEAAPEAU?$_Tree_node@U?$pair@$$CBIUTypeInheritance@cldb@@@std@@PEAX@1@$$QEAU?$pair@$$CBIUTypeInheritance@cldb@@@1@@Z 0000000180000000     clReflectCore:DatabaseBinarySerialiser.obj
 0004:fffba000       $pdata$??$_Buynode@U?$pair@$$CBIUTypeInheritance@cldb@@@std@@@?$_Tree_comp_alloc@V?$_Tmap_traits@IUTypeInheritance@cldb@@U?$less@I@std@@V?$allocator@U?$pair@$$CBIUTypeInheritance@cldb@@@std@@@4@$0A@@std@@@std@@QEAAPEAU?$_Tree_node@U?$pair@$$CBIUTypeInheritance@cldb@@@std@@PEAX@1@$$QEAU?$pair@$$CBIUTypeInheritance@cldb@@@1@@Z 0000000180000000     clReflectCore:DatabaseBinarySerialiser.obj
 0002:fffcc000       $unwind$??$_Buynode@U?$pair@$$CBIUTypeInheritance@cldb@@@std@@@?$_Tree_comp_alloc@V?$_Tmap_traits@IUTypeInheritance@cldb@@U?$less@I@std@@V?$allocator@U?$pair@$$CBIUTypeInheritance@cldb@@@std@@@4@$0A@@std@@@std@@QEAAPEAU?$_Tree_node@U?$pair@$$CBIUTypeInheritance@cldb@@@std@@PEAX@1@$$QEAU?$pair@$$CBIUTypeInheritance@cldb@@@1@@Z 0000000180000000     clReflectCore:DatabaseBinarySerialiser.obj
 0004:fffba000       $pdata$?catch$1@?0???$_Buynode@U?$pair@$$CBIUContainerInfo@cldb@@@std@@@?$_Tree_comp_alloc@V?$_Tmap_traits@IUContainerInfo@cldb@@U?$less@I@std@@V?$allocator@U?$pair@$$CBIUContainerInfo@cldb@@@std@@@4@$0A@@std@@@std@@QEAAPEAU?$_Tree_node@U?$pair@$$CBIUContainerInfo@cldb@@@std@@PEAX@1@$$QEAU?$pair@$$CBIUContainerInfo@cldb@@@1@@Z@4HA 0000000180000000     clReflectCore:DatabaseBinarySerialiser.obj
 0002:fffcc000       $unwind$?catch$1@?0???$_Buynode@U?$pair@$$CBIUContainerInfo@cldb@@@std@@@?$_Tree_comp_alloc@V?$_Tmap_traits@IUContainerInfo@cldb@@U?$less@I@std@@V?$allocator@U?$pair@$$CBIUContainerInfo@cldb@@@std@@@4@$0A@@std@@@std@@QEAAPEAU?$_Tree_node@U?$pair@$$CBIUContainerInfo@cldb@@@std@@PEAX@1@$$QEAU?$pair@$$CBIUContainerInfo@cldb@@@1@@Z@4HA 0000000180000000     clReflectCore:DatabaseBinarySerialiser.obj
 0002:fffcc000       $ip2state$??$_Buynode@U?$pair@$$CBIUContainerInfo@cldb@@@std@@@?$_Tree_comp_alloc@V?$_Tmap_traits@IUContainerInfo@cldb@@U?$less@I@std@@V?$allocator@U?$pair@$$CBIUContainerInfo@cldb@@@std@@@4@$0A@@std@@@std@@QEAAPEAU?$_Tree_node@U?$pair@$$CBIUContainerInfo@cldb@@@std@@PEAX@1@$$QEAU?$pair@$$CBIUContainerInfo@cldb@@@1@@Z 0000000180000000     clReflectCore:DatabaseBinarySerialiser.obj
 0002:fffcc000       $handlerMap$0$??$_Buynode@U?$pair@$$CBIUContainerInfo@cldb@@@std@@@?$_Tree_comp_alloc@V?$_Tmap_traits@IUContainerInfo@cldb@@U?$less@I@std@@V?$allocator@U?$pair@$$CBIUContainerInfo@cldb@@@std@@@4@$0A@@std@@@std@@QEAAPEAU?$_Tree_node@U?$pair@$$CBIUContainerInfo@cldb@@@std@@PEAX@1@$$QEAU?$pair@$$CBIUContainerInfo@cldb@@@1@@Z 0000000180000000     clReflectCore:DatabaseBinarySerialiser.obj
 0002:fffcc000       $tryMap$??$_Buynode@U?$pair@$$CBIUContainerInfo@cldb@@@std@@@?$_Tree_comp_alloc@V?$_Tmap_traits@IUContainerInfo@cldb@@U?$less@I@std@@V?$allocator@U?$pair@$$CBIUContainerInfo@cldb@@@std@@@4@$0A@@std@@@std@@QEAAPEAU?$_Tree_node@U?$pair@$$CBIUContainerInfo@cldb@@@std@@PEAX@1@$$QEAU?$pair@$$CBIUContainerInfo@cldb@@@1@@Z 0000000180000000     clReflectCore:DatabaseBinarySerialiser.obj
 0002:fffcc000       $stateUnwindMap$??$_Buynode@U?$pair@$$CBIUContainerInfo@cldb@@@std@@@?$_Tree_comp_alloc@V?$_Tmap_traits@IUContainerInfo@cldb@@U?$less@I@std@@V?$allocator@U?$pair@$$CBIUContainerInfo@cldb@@@std@@@4@$0A@@std@@@std@@QEAAPEAU?$_Tree_node@U?$pair@$$CBIUContainerInfo@cldb@@@std@@PEAX@1@$$QEAU?$pair@$$CBIUContainerInfo@cldb@@@1@@Z 0000000180000000     clReflectCore:DatabaseBinarySerialiser.obj
 0002:fffcc000       $cppxdata$??$_Buynode@U?$pair@$$CBIUContainerInfo@cldb@@@std@@@?$_Tree_comp_alloc@V?$_Tmap_traits@IUContainerInfo@cldb@@U?$less@I@std@@V?$allocator@U?$pair@$$CBIUContainerInfo@cldb@@@std@@@4@$0A@@std@@@std@@QEAAPEAU?$_Tree_node@U?$pair@$$CBIUContainerInfo@cldb@@@std@@PEAX@1@$$QEAU?$pair@$$CBIUContainerInfo@cldb@@@1@@Z 0000000180000000     clReflectCore:DatabaseBinarySerialiser.obj
 0004:fffba000       $pdata$??$_Buynode@U?$pair@$$CBIUContainerInfo@cldb@@@std@@@?$_Tree_comp_alloc@V?$_Tmap_traits@IUContainerInfo@cldb@@U?$less@I@std@@V?$allocator@U?$pair@$$CBIUContainerInfo@cldb@@@std@@@4@$0A@@std@@@std@@QEAAPEAU?$_Tree_node@U?$pair@$$CBIUContainerInfo@cldb@@@std@@PEAX@1@$$QEAU?$pair@$$CBIUContainerInfo@cldb@@@1@@Z 0000000180000000     clReflectCore:DatabaseBinarySerialiser.obj
 0002:fffcc000       $unwind$??$_Buynode@U?$pair@$$CBIUContainerInfo@cldb@@@std@@@?$_Tree_comp_alloc@V?$_Tmap_traits@IUContainerInfo@cldb@@U?$less@I@std@@V?$allocator@U?$pair@$$CBIUContainerInfo@cldb@@@std@@@4@$0A@@std@@@std@@QEAAPEAU?$_Tree_node@U?$pair@$$CBIUContainerInfo@cldb@@@std@@PEAX@1@$$QEAU?$pair@$$CBIUContainerInfo@cldb@@@1@@Z 0000000180000000     clReflectCore:DatabaseBinarySerialiser.obj
 0004:fffba000       $pdata$?catch$0@?0???$_Buynode@U?$pair@$$CBIUTextAttribute@cldb@@@std@@@?$_Tree_comp_alloc@V?$_Tmap_traits@IUTextAttribute@cldb@@U?$less@I@std@@V?$allocator@U?$pair@$$CBIUTextAttribute@cldb@@@std@@@4@$00@std@@@std@@QEAAPEAU?$_Tree_node@U?$pair@$$CBIUTextAttribute@cldb@@@std@@PEAX@1@$$QEAU?$pair@$$CBIUTextAttribute@cldb@@@1@@Z@4HA 0000000180000000     clReflectCore:DatabaseBinarySerialiser.obj
 0002:fffcc000       $unwind$?catch$0@?0???$_Buynode@U?$pair@$$CBIUTextAttribute@cldb@@@std@@@?$_Tree_comp_alloc@V?$_Tmap_traits@IUTextAttribute@cldb@@U?$less@I@std@@V?$allocator@U?$pair@$$CBIUTextAttribute@cldb@@@std@@@4@$00@std@@@std@@QEAAPEAU?$_Tree_node@U?$pair@$$CBIUTextAttribute@cldb@@@std@@PEAX@1@$$QEAU?$pair@$$CBIUTextAttribute@cldb@@@1@@Z@4HA 0000000180000000     clReflectCore:DatabaseBinarySerialiser.obj
 0002:fffcc000       $ip2state$??$_Buynode@U?$pair@$$CBIUTextAttribute@cldb@@@std@@@?$_Tree_comp_alloc@V?$_Tmap_traits@IUTextAttribute@cldb@@U?$less@I@std@@V?$allocator@U?$pair@$$CBIUTextAttribute@cldb@@@std@@@4@$00@std@@@std@@QEAAPEAU?$_Tree_node@U?$pair@$$CBIUTextAttribute@cldb@@@std@@PEAX@1@$$QEAU?$pair@$$CBIUTextAttribute@cldb@@@1@@Z 0000000180000000     clReflectCore:DatabaseBinarySerialiser.obj
 0002:fffcc000       $handlerMap$0$??$_Buynode@U?$pair@$$CBIUTextAttribute@cldb@@@std@@@?$_Tree_comp_alloc@V?$_Tmap_traits@IUTextAttribute@cldb@@U?$less@I@std@@V?$allocator@U?$pair@$$CBIUTextAttribute@cldb@@@std@@@4@$00@std@@@std@@QEAAPEAU?$_Tree_node@U?$pair@$$CBIUTextAttribute@cldb@@@std@@PEAX@1@$$QEAU?$pair@$$CBIUTextAttribute@cldb@@@1@@Z 0000000180000000     clReflectCore:DatabaseBinarySerialiser.obj
 0002:fffcc000       $tryMap$??$_Buynode@U?$pair@$$CBIUTextAttribute@cldb@@@std@@@?$_Tree_comp_alloc@V?$_Tmap_traits@IUTextAttribute@cldb@@U?$less@I@std@@V?$allocator@U?$pair@$$CBIUTextAttribute@cldb@@@std@@@4@$00@std@@@std@@QEAAPEAU?$_Tree_node@U?$pair@$$CBIUTextAttribute@cldb@@@std@@PEAX@1@$$QEAU?$pair@$$CBIUTextAttribute@cldb@@@1@@Z 0000000180000000     clReflectCore:DatabaseBinarySerialiser.obj
 0002:fffcc000       $stateUnwindMap$??$_Buynode@U?$pair@$$CBIUTextAttribute@cldb@@@std@@@?$_Tree_comp_alloc@V?$_Tmap_traits@IUTextAttribute@cldb@@U?$less@I@std@@V?$allocator@U?$pair@$$CBIUTextAttribute@cldb@@@std@@@4@$00@std@@@std@@QEAAPEAU?$_Tree_node@U?$pair@$$CBIUTextAttribute@cldb@@@std@@PEAX@1@$$QEAU?$pair@$$CBIUTextAttribute@cldb@@@1@@Z 0000000180000000     clReflectCore:DatabaseBinarySerialiser.obj
 0002:fffcc000       $cppxdata$??$_Buynode@U?$pair@$$CBIUTextAttribute@cldb@@@std@@@?$_Tree_comp_alloc@V?$_Tmap_traits@IUTextAttribute@cldb@@U?$less@I@std@@V?$allocator@U?$pair@$$CBIUTextAttribute@cldb@@@std@@@4@$00@std@@@std@@QEAAPEAU?$_Tree_node@U?$pair@$$CBIUTextAttribute@cldb@@@std@@PEAX@1@$$QEAU?$pair@$$CBIUTextAttribute@cldb@@@1@@Z 0000000180000000     clReflectCore:DatabaseBinarySerialiser.obj
 0004:fffba000       $pdata$??$_Buynode@U?$pair@$$CBIUTextAttribute@cldb@@@std@@@?$_Tree_comp_alloc@V?$_Tmap_traits@IUTextAttribute@cldb@@U?$less@I@std@@V?$allocator@U?$pair@$$CBIUTextAttribute@cldb@@@std@@@4@$00@std@@@std@@QEAAPEAU?$_Tree_node@U?$pair@$$CBIUTextAttribute@cldb@@@std@@PEAX@1@$$QEAU?$pair@$$CBIUTextAttribute@cldb@@@1@@Z 0000000180000000     clReflectCore:DatabaseBinarySerialiser.obj
 0002:fffcc000       $unwind$??$_Buynode@U?$pair@$$CBIUTextAttribute@cldb@@@std@@@?$_Tree_comp_alloc@V?$_Tmap_traits@IUTextAttribute@cldb@@U?$less@I@std@@V?$allocator@U?$pair@$$CBIUTextAttribute@cldb@@@std@@@4@$00@std@@@std@@QEAAPEAU?$_Tree_node@U?$pair@$$CBIUTextAttribute@cldb@@@std@@PEAX@1@$$QEAU?$pair@$$CBIUTextAttribute@cldb@@@1@@Z 0000000180000000     clReflectCore:DatabaseBinarySerialiser.obj
 0004:fffba000       $pdata$?catch$1@?0???$_Buynode@U?$pair@$$CBIUPrimitiveAttribute@cldb@@@std@@@?$_Tree_comp_alloc@V?$_Tmap_traits@IUPrimitiveAttribute@cldb@@U?$less@I@std@@V?$allocator@U?$pair@$$CBIUPrimitiveAttribute@cldb@@@std@@@4@$00@std@@@std@@QEAAPEAU?$_Tree_node@U?$pair@$$CBIUPrimitiveAttribute@cldb@@@std@@PEAX@1@$$QEAU?$pair@$$CBIUPrimitiveAttribute@cldb@@@1@@Z@4HA 0000000180000000     clReflectCore:DatabaseBinarySerialiser.obj
 0002:fffcc000       $unwind$?catch$1@?0???$_Buynode@U?$pair@$$CBIUPrimitiveAttribute@cldb@@@std@@@?$_Tree_comp_alloc@V?$_Tmap_traits@IUPrimitiveAttribute@cldb@@U?$less@I@std@@V?$allocator@U?$pair@$$CBIUPrimitiveAttribute@cldb@@@std@@@4@$00@std@@@std@@QEAAPEAU?$_Tree_node@U?$pair@$$CBIUPrimitiveAttribute@cldb@@@std@@PEAX@1@$$QEAU?$pair@$$CBIUPrimitiveAttribute@cldb@@@1@@Z@4HA 0000000180000000     clReflectCore:DatabaseBinarySerialiser.obj
 0002:fffcc000       $ip2state$??$_Buynode@U?$pair@$$CBIUPrimitiveAttribute@cldb@@@std@@@?$_Tree_comp_alloc@V?$_Tmap_traits@IUPrimitiveAttribute@cldb@@U?$less@I@std@@V?$allocator@U?$pair@$$CBIUPrimitiveAttribute@cldb@@@std@@@4@$00@std@@@std@@QEAAPEAU?$_Tree_node@U?$pair@$$CBIUPrimitiveAttribute@cldb@@@std@@PEAX@1@$$QEAU?$pair@$$CBIUPrimitiveAttribute@cldb@@@1@@Z 0000000180000000     clReflectCore:DatabaseBinarySerialiser.obj
 0002:fffcc000       $handlerMap$0$??$_Buynode@U?$pair@$$CBIUPrimitiveAttribute@cldb@@@std@@@?$_Tree_comp_alloc@V?$_Tmap_traits@IUPrimitiveAttribute@cldb@@U?$less@I@std@@V?$allocator@U?$pair@$$CBIUPrimitiveAttribute@cldb@@@std@@@4@$00@std@@@std@@QEAAPEAU?$_Tree_node@U?$pair@$$CBIUPrimitiveAttribute@cldb@@@std@@PEAX@1@$$QEAU?$pair@$$CBIUPrimitiveAttribute@cldb@@@1@@Z 0000000180000000     clReflectCore:DatabaseBinarySerialiser.obj
 0002:fffcc000       $tryMap$??$_Buynode@U?$pair@$$CBIUPrimitiveAttribute@cldb@@@std@@@?$_Tree_comp_alloc@V?$_Tmap_traits@IUPrimitiveAttribute@cldb@@U?$less@I@std@@V?$allocator@U?$pair@$$CBIUPrimitiveAttribute@cldb@@@std@@@4@$00@std@@@std@@QEAAPEAU?$_Tree_node@U?$pair@$$CBIUPrimitiveAttribute@cldb@@@std@@PEAX@1@$$QEAU?$pair@$$CBIUPrimitiveAttribute@cldb@@@1@@Z 0000000180000000     clReflectCore:DatabaseBinarySerialiser.obj
 0002:fffcc000       $stateUnwindMap$??$_Buynode@U?$pair@$$CBIUPrimitiveAttribute@cldb@@@std@@@?$_Tree_comp_alloc@V?$_Tmap_traits@IUPrimitiveAttribute@cldb@@U?$less@I@std@@V?$allocator@U?$pair@$$CBIUPrimitiveAttribute@cldb@@@std@@@4@$00@std@@@std@@QEAAPEAU?$_Tree_node@U?$pair@$$CBIUPrimitiveAttribute@cldb@@@std@@PEAX@1@$$QEAU?$pair@$$CBIUPrimitiveAttribute@cldb@@@1@@Z 0000000180000000     clReflectCore:DatabaseBinarySerialiser.obj
 0002:fffcc000       $cppxdata$??$_Buynode@U?$pair@$$CBIUPrimitiveAttribute@cldb@@@std@@@?$_Tree_comp_alloc@V?$_Tmap_traits@IUPrimitiveAttribute@cldb@@U?$less@I@std@@V?$allocator@U?$pair@$$CBIUPrimitiveAttribute@cldb@@@std@@@4@$00@std@@@std@@QEAAPEAU?$_Tree_node@U?$pair@$$CBIUPrimitiveAttribute@cldb@@@std@@PEAX@1@$$QEAU?$pair@$$CBIUPrimitiveAttribute@cldb@@@1@@Z 0000000180000000     clReflectCore:DatabaseBinarySerialiser.obj
 0004:fffba000       $pdata$??$_Buynode@U?$pair@$$CBIUPrimitiveAttribute@cldb@@@std@@@?$_Tree_comp_alloc@V?$_Tmap_traits@IUPrimitiveAttribute@cldb@@U?$less@I@std@@V?$allocator@U?$pair@$$CBIUPrimitiveAttribute@cldb@@@std@@@4@$00@std@@@std@@QEAAPEAU?$_Tree_node@U?$pair@$$CBIUPrimitiveAttribute@cldb@@@std@@PEAX@1@$$QEAU?$pair@$$CBIUPrimitiveAttribute@cldb@@@1@@Z 0000000180000000     clReflectCore:DatabaseBinarySerialiser.obj
 0002:fffcc000       $unwind$??$_Buynode@U?$pair@$$CBIUPrimitiveAttribute@cldb@@@std@@@?$_Tree_comp_alloc@V?$_Tmap_traits@IUPrimitiveAttribute@cldb@@U?$less@I@std@@V?$allocator@U?$pair@$$CBIUPrimitiveAttribute@cldb@@@std@@@4@$00@std@@@std@@QEAAPEAU?$_Tree_node@U?$pair@$$CBIUPrimitiveAttribute@cldb@@@std@@PEAX@1@$$QEAU?$pair@$$CBIUPrimitiveAttribute@cldb@@@1@@Z 0000000180000000     clReflectCore:DatabaseBinarySerialiser.obj
 0004:fffba000       $pdata$?catch$3@?0???$_Buynode@U?$pair@$$CBIUFloatAttribute@cldb@@@std@@@?$_Tree_comp_alloc@V?$_Tmap_traits@IUFloatAttribute@cldb@@U?$less@I@std@@V?$allocator@U?$pair@$$CBIUFloatAttribute@cldb@@@std@@@4@$00@std@@@std@@QEAAPEAU?$_Tree_node@U?$pair@$$CBIUFloatAttribute@cldb@@@std@@PEAX@1@$$QEAU?$pair@$$CBIUFloatAttribute@cldb@@@1@@Z@4HA 0000000180000000     clReflectCore:DatabaseBinarySerialiser.obj
 0002:fffcc000       $unwind$?catch$3@?0???$_Buynode@U?$pair@$$CBIUFloatAttribute@cldb@@@std@@@?$_Tree_comp_alloc@V?$_Tmap_traits@IUFloatAttribute@cldb@@U?$less@I@std@@V?$allocator@U?$pair@$$CBIUFloatAttribute@cldb@@@std@@@4@$00@std@@@std@@QEAAPEAU?$_Tree_node@U?$pair@$$CBIUFloatAttribute@cldb@@@std@@PEAX@1@$$QEAU?$pair@$$CBIUFloatAttribute@cldb@@@1@@Z@4HA 0000000180000000     clReflectCore:DatabaseBinarySerialiser.obj
 0002:fffcc000       $ip2state$??$_Buynode@U?$pair@$$CBIUFloatAttribute@cldb@@@std@@@?$_Tree_comp_alloc@V?$_Tmap_traits@IUFloatAttribute@cldb@@U?$less@I@std@@V?$allocator@U?$pair@$$CBIUFloatAttribute@cldb@@@std@@@4@$00@std@@@std@@QEAAPEAU?$_Tree_node@U?$pair@$$CBIUFloatAttribute@cldb@@@std@@PEAX@1@$$QEAU?$pair@$$CBIUFloatAttribute@cldb@@@1@@Z 0000000180000000     clReflectCore:DatabaseBinarySerialiser.obj
 0002:fffcc000       $handlerMap$0$??$_Buynode@U?$pair@$$CBIUFloatAttribute@cldb@@@std@@@?$_Tree_comp_alloc@V?$_Tmap_traits@IUFloatAttribute@cldb@@U?$less@I@std@@V?$allocator@U?$pair@$$CBIUFloatAttribute@cldb@@@std@@@4@$00@std@@@std@@QEAAPEAU?$_Tree_node@U?$pair@$$CBIUFloatAttribute@cldb@@@std@@PEAX@1@$$QEAU?$pair@$$CBIUFloatAttribute@cldb@@@1@@Z 0000000180000000     clReflectCore:DatabaseBinarySerialiser.obj
 0002:fffcc000       $tryMap$??$_Buynode@U?$pair@$$CBIUFloatAttribute@cldb@@@std@@@?$_Tree_comp_alloc@V?$_Tmap_traits@IUFloatAttribute@cldb@@U?$less@I@std@@V?$allocator@U?$pair@$$CBIUFloatAttribute@cldb@@@std@@@4@$00@std@@@std@@QEAAPEAU?$_Tree_node@U?$pair@$$CBIUFloatAttribute@cldb@@@std@@PEAX@1@$$QEAU?$pair@$$CBIUFloatAttribute@cldb@@@1@@Z 0000000180000000     clReflectCore:DatabaseBinarySerialiser.obj
 0002:fffcc000       $stateUnwindMap$??$_Buynode@U?$pair@$$CBIUFloatAttribute@cldb@@@std@@@?$_Tree_comp_alloc@V?$_Tmap_traits@IUFloatAttribute@cldb@@U?$less@I@std@@V?$allocator@U?$pair@$$CBIUFloatAttribute@cldb@@@std@@@4@$00@std@@@std@@QEAAPEAU?$_Tree_node@U?$pair@$$CBIUFloatAttribute@cldb@@@std@@PEAX@1@$$QEAU?$pair@$$CBIUFloatAttribute@cldb@@@1@@Z 0000000180000000     clReflectCore:DatabaseBinarySerialiser.obj
 0002:fffcc000       $cppxdata$??$_Buynode@U?$pair@$$CBIUFloatAttribute@cldb@@@std@@@?$_Tree_comp_alloc@V?$_Tmap_traits@IUFloatAttribute@cldb@@U?$less@I@std@@V?$allocator@U?$pair@$$CBIUFloatAttribute@cldb@@@std@@@4@$00@std@@@std@@QEAAPEAU?$_Tree_node@U?$pair@$$CBIUFloatAttribute@cldb@@@std@@PEAX@1@$$QEAU?$pair@$$CBIUFloatAttribute@cldb@@@1@@Z 0000000180000000     clReflectCore:DatabaseBinarySerialiser.obj
 0004:fffba000       $pdata$??$_Buynode@U?$pair@$$CBIUFloatAttribute@cldb@@@std@@@?$_Tree_comp_alloc@V?$_Tmap_traits@IUFloatAttribute@cldb@@U?$less@I@std@@V?$allocator@U?$pair@$$CBIUFloatAttribute@cldb@@@std@@@4@$00@std@@@std@@QEAAPEAU?$_Tree_node@U?$pair@$$CBIUFloatAttribute@cldb@@@std@@PEAX@1@$$QEAU?$pair@$$CBIUFloatAttribute@cldb@@@1@@Z 0000000180000000     clReflectCore:DatabaseBinarySerialiser.obj
 0002:fffcc000       $unwind$??$_Buynode@U?$pair@$$CBIUFloatAttribute@cldb@@@std@@@?$_Tree_comp_alloc@V?$_Tmap_traits@IUFloatAttribute@cldb@@U?$less@I@std@@V?$allocator@U?$pair@$$CBIUFloatAttribute@cldb@@@std@@@4@$00@std@@@std@@QEAAPEAU?$_Tree_node@U?$pair@$$CBIUFloatAttribute@cldb@@@std@@PEAX@1@$$QEAU?$pair@$$CBIUFloatAttribute@cldb@@@1@@Z 0000000180000000     clReflectCore:DatabaseBinarySerialiser.obj
 0004:fffba000       $pdata$?catch$3@?0???$_Buynode@U?$pair@$$CBIUIntAttribute@cldb@@@std@@@?$_Tree_comp_alloc@V?$_Tmap_traits@IUIntAttribute@cldb@@U?$less@I@std@@V?$allocator@U?$pair@$$CBIUIntAttribute@cldb@@@std@@@4@$00@std@@@std@@QEAAPEAU?$_Tree_node@U?$pair@$$CBIUIntAttribute@cldb@@@std@@PEAX@1@$$QEAU?$pair@$$CBIUIntAttribute@cldb@@@1@@Z@4HA 0000000180000000     clReflectCore:DatabaseBinarySerialiser.obj
 0002:fffcc000       $unwind$?catch$3@?0???$_Buynode@U?$pair@$$CBIUIntAttribute@cldb@@@std@@@?$_Tree_comp_alloc@V?$_Tmap_traits@IUIntAttribute@cldb@@U?$less@I@std@@V?$allocator@U?$pair@$$CBIUIntAttribute@cldb@@@std@@@4@$00@std@@@std@@QEAAPEAU?$_Tree_node@U?$pair@$$CBIUIntAttribute@cldb@@@std@@PEAX@1@$$QEAU?$pair@$$CBIUIntAttribute@cldb@@@1@@Z@4HA 0000000180000000     clReflectCore:DatabaseBinarySerialiser.obj
 0002:fffcc000       $ip2state$??$_Buynode@U?$pair@$$CBIUIntAttribute@cldb@@@std@@@?$_Tree_comp_alloc@V?$_Tmap_traits@IUIntAttribute@cldb@@U?$less@I@std@@V?$allocator@U?$pair@$$CBIUIntAttribute@cldb@@@std@@@4@$00@std@@@std@@QEAAPEAU?$_Tree_node@U?$pair@$$CBIUIntAttribute@cldb@@@std@@PEAX@1@$$QEAU?$pair@$$CBIUIntAttribute@cldb@@@1@@Z 0000000180000000     clReflectCore:DatabaseBinarySerialiser.obj
 0002:fffcc000       $handlerMap$0$??$_Buynode@U?$pair@$$CBIUIntAttribute@cldb@@@std@@@?$_Tree_comp_alloc@V?$_Tmap_traits@IUIntAttribute@cldb@@U?$less@I@std@@V?$allocator@U?$pair@$$CBIUIntAttribute@cldb@@@std@@@4@$00@std@@@std@@QEAAPEAU?$_Tree_node@U?$pair@$$CBIUIntAttribute@cldb@@@std@@PEAX@1@$$QEAU?$pair@$$CBIUIntAttribute@cldb@@@1@@Z 0000000180000000     clReflectCore:DatabaseBinarySerialiser.obj
 0002:fffcc000       $tryMap$??$_Buynode@U?$pair@$$CBIUIntAttribute@cldb@@@std@@@?$_Tree_comp_alloc@V?$_Tmap_traits@IUIntAttribute@cldb@@U?$less@I@std@@V?$allocator@U?$pair@$$CBIUIntAttribute@cldb@@@std@@@4@$00@std@@@std@@QEAAPEAU?$_Tree_node@U?$pair@$$CBIUIntAttribute@cldb@@@std@@PEAX@1@$$QEAU?$pair@$$CBIUIntAttribute@cldb@@@1@@Z 0000000180000000     clReflectCore:DatabaseBinarySerialiser.obj
 0002:fffcc000       $stateUnwindMap$??$_Buynode@U?$pair@$$CBIUIntAttribute@cldb@@@std@@@?$_Tree_comp_alloc@V?$_Tmap_traits@IUIntAttribute@cldb@@U?$less@I@std@@V?$allocator@U?$pair@$$CBIUIntAttribute@cldb@@@std@@@4@$00@std@@@std@@QEAAPEAU?$_Tree_node@U?$pair@$$CBIUIntAttribute@cldb@@@std@@PEAX@1@$$QEAU?$pair@$$CBIUIntAttribute@cldb@@@1@@Z 0000000180000000     clReflectCore:DatabaseBinarySerialiser.obj
 0002:fffcc000       $cppxdata$??$_Buynode@U?$pair@$$CBIUIntAttribute@cldb@@@std@@@?$_Tree_comp_alloc@V?$_Tmap_traits@IUIntAttribute@cldb@@U?$less@I@std@@V?$allocator@U?$pair@$$CBIUIntAttribute@cldb@@@std@@@4@$00@std@@@std@@QEAAPEAU?$_Tree_node@U?$pair@$$CBIUIntAttribute@cldb@@@std@@PEAX@1@$$QEAU?$pair@$$CBIUIntAttribute@cldb@@@1@@Z 0000000180000000     clReflectCore:DatabaseBinarySerialiser.obj
 0004:fffba000       $pdata$??$_Buynode@U?$pair@$$CBIUIntAttribute@cldb@@@std@@@?$_Tree_comp_alloc@V?$_Tmap_traits@IUIntAttribute@cldb@@U?$less@I@std@@V?$allocator@U?$pair@$$CBIUIntAttribute@cldb@@@std@@@4@$00@std@@@std@@QEAAPEAU?$_Tree_node@U?$pair@$$CBIUIntAttribute@cldb@@@std@@PEAX@1@$$QEAU?$pair@$$CBIUIntAttribute@cldb@@@1@@Z 0000000180000000     clReflectCore:DatabaseBinarySerialiser.obj
 0002:fffcc000       $unwind$??$_Buynode@U?$pair@$$CBIUIntAttribute@cldb@@@std@@@?$_Tree_comp_alloc@V?$_Tmap_traits@IUIntAttribute@cldb@@U?$less@I@std@@V?$allocator@U?$pair@$$CBIUIntAttribute@cldb@@@std@@@4@$00@std@@@std@@QEAAPEAU?$_Tree_node@U?$pair@$$CBIUIntAttribute@cldb@@@std@@PEAX@1@$$QEAU?$pair@$$CBIUIntAttribute@cldb@@@1@@Z 0000000180000000     clReflectCore:DatabaseBinarySerialiser.obj
 0004:fffba000       $pdata$?catch$3@?0???$_Buynode@U?$pair@$$CBIUFlagAttribute@cldb@@@std@@@?$_Tree_comp_alloc@V?$_Tmap_traits@IUFlagAttribute@cldb@@U?$less@I@std@@V?$allocator@U?$pair@$$CBIUFlagAttribute@cldb@@@std@@@4@$00@std@@@std@@QEAAPEAU?$_Tree_node@U?$pair@$$CBIUFlagAttribute@cldb@@@std@@PEAX@1@$$QEAU?$pair@$$CBIUFlagAttribute@cldb@@@1@@Z@4HA 0000000180000000     clReflectCore:DatabaseBinarySerialiser.obj
 0002:fffcc000       $unwind$?catch$3@?0???$_Buynode@U?$pair@$$CBIUFlagAttribute@cldb@@@std@@@?$_Tree_comp_alloc@V?$_Tmap_traits@IUFlagAttribute@cldb@@U?$less@I@std@@V?$allocator@U?$pair@$$CBIUFlagAttribute@cldb@@@std@@@4@$00@std@@@std@@QEAAPEAU?$_Tree_node@U?$pair@$$CBIUFlagAttribute@cldb@@@std@@PEAX@1@$$QEAU?$pair@$$CBIUFlagAttribute@cldb@@@1@@Z@4HA 0000000180000000     clReflectCore:DatabaseBinarySerialiser.obj
 0002:fffcc000       $ip2state$??$_Buynode@U?$pair@$$CBIUFlagAttribute@cldb@@@std@@@?$_Tree_comp_alloc@V?$_Tmap_traits@IUFlagAttribute@cldb@@U?$less@I@std@@V?$allocator@U?$pair@$$CBIUFlagAttribute@cldb@@@std@@@4@$00@std@@@std@@QEAAPEAU?$_Tree_node@U?$pair@$$CBIUFlagAttribute@cldb@@@std@@PEAX@1@$$QEAU?$pair@$$CBIUFlagAttribute@cldb@@@1@@Z 0000000180000000     clReflectCore:DatabaseBinarySerialiser.obj
 0002:fffcc000       $handlerMap$0$??$_Buynode@U?$pair@$$CBIUFlagAttribute@cldb@@@std@@@?$_Tree_comp_alloc@V?$_Tmap_traits@IUFlagAttribute@cldb@@U?$less@I@std@@V?$allocator@U?$pair@$$CBIUFlagAttribute@cldb@@@std@@@4@$00@std@@@std@@QEAAPEAU?$_Tree_node@U?$pair@$$CBIUFlagAttribute@cldb@@@std@@PEAX@1@$$QEAU?$pair@$$CBIUFlagAttribute@cldb@@@1@@Z 0000000180000000     clReflectCore:DatabaseBinarySerialiser.obj
 0002:fffcc000       $tryMap$??$_Buynode@U?$pair@$$CBIUFlagAttribute@cldb@@@std@@@?$_Tree_comp_alloc@V?$_Tmap_traits@IUFlagAttribute@cldb@@U?$less@I@std@@V?$allocator@U?$pair@$$CBIUFlagAttribute@cldb@@@std@@@4@$00@std@@@std@@QEAAPEAU?$_Tree_node@U?$pair@$$CBIUFlagAttribute@cldb@@@std@@PEAX@1@$$QEAU?$pair@$$CBIUFlagAttribute@cldb@@@1@@Z 0000000180000000     clReflectCore:DatabaseBinarySerialiser.obj
 0002:fffcc000       $stateUnwindMap$??$_Buynode@U?$pair@$$CBIUFlagAttribute@cldb@@@std@@@?$_Tree_comp_alloc@V?$_Tmap_traits@IUFlagAttribute@cldb@@U?$less@I@std@@V?$allocator@U?$pair@$$CBIUFlagAttribute@cldb@@@std@@@4@$00@std@@@std@@QEAAPEAU?$_Tree_node@U?$pair@$$CBIUFlagAttribute@cldb@@@std@@PEAX@1@$$QEAU?$pair@$$CBIUFlagAttribute@cldb@@@1@@Z 0000000180000000     clReflectCore:DatabaseBinarySerialiser.obj
 0002:fffcc000       $cppxdata$??$_Buynode@U?$pair@$$CBIUFlagAttribute@cldb@@@std@@@?$_Tree_comp_alloc@V?$_Tmap_traits@IUFlagAttribute@cldb@@U?$less@I@std@@V?$allocator@U?$pair@$$CBIUFlagAttribute@cldb@@@std@@@4@$00@std@@@std@@QEAAPEAU?$_Tree_node@U?$pair@$$CBIUFlagAttribute@cldb@@@std@@PEAX@1@$$QEAU?$pair@$$CBIUFlagAttribute@cldb@@@1@@Z 0000000180000000     clReflectCore:DatabaseBinarySerialiser.obj
 0004:fffba000       $pdata$??$_Buynode@U?$pair@$$CBIUFlagAttribute@cldb@@@std@@@?$_Tree_comp_alloc@V?$_Tmap_traits@IUFlagAttribute@cldb@@U?$less@I@std@@V?$allocator@U?$pair@$$CBIUFlagAttribute@cldb@@@std@@@4@$00@std@@@std@@QEAAPEAU?$_Tree_node@U?$pair@$$CBIUFlagAttribute@cldb@@@std@@PEAX@1@$$QEAU?$pair@$$CBIUFlagAttribute@cldb@@@1@@Z 0000000180000000     clReflectCore:DatabaseBinarySerialiser.obj
 0002:fffcc000       $unwind$??$_Buynode@U?$pair@$$CBIUFlagAttribute@cldb@@@std@@@?$_Tree_comp_alloc@V?$_Tmap_traits@IUFlagAttribute@cldb@@U?$less@I@std@@V?$allocator@U?$pair@$$CBIUFlagAttribute@cldb@@@std@@@4@$00@std@@@std@@QEAAPEAU?$_Tree_node@U?$pair@$$CBIUFlagAttribute@cldb@@@std@@PEAX@1@$$QEAU?$pair@$$CBIUFlagAttribute@cldb@@@1@@Z 0000000180000000     clReflectCore:DatabaseBinarySerialiser.obj
 0004:fffba000       $pdata$?catch$2@?0???$_Buynode@U?$pair@$$CBIUNamespace@cldb@@@std@@@?$_Tree_comp_alloc@V?$_Tmap_traits@IUNamespace@cldb@@U?$less@I@std@@V?$allocator@U?$pair@$$CBIUNamespace@cldb@@@std@@@4@$00@std@@@std@@QEAAPEAU?$_Tree_node@U?$pair@$$CBIUNamespace@cldb@@@std@@PEAX@1@$$QEAU?$pair@$$CBIUNamespace@cldb@@@1@@Z@4HA 0000000180000000     clReflectCore:DatabaseBinarySerialiser.obj
 0002:fffcc000       $unwind$?catch$2@?0???$_Buynode@U?$pair@$$CBIUNamespace@cldb@@@std@@@?$_Tree_comp_alloc@V?$_Tmap_traits@IUNamespace@cldb@@U?$less@I@std@@V?$allocator@U?$pair@$$CBIUNamespace@cldb@@@std@@@4@$00@std@@@std@@QEAAPEAU?$_Tree_node@U?$pair@$$CBIUNamespace@cldb@@@std@@PEAX@1@$$QEAU?$pair@$$CBIUNamespace@cldb@@@1@@Z@4HA 0000000180000000     clReflectCore:DatabaseBinarySerialiser.obj
 0002:fffcc000       $ip2state$??$_Buynode@U?$pair@$$CBIUNamespace@cldb@@@std@@@?$_Tree_comp_alloc@V?$_Tmap_traits@IUNamespace@cldb@@U?$less@I@std@@V?$allocator@U?$pair@$$CBIUNamespace@cldb@@@std@@@4@$00@std@@@std@@QEAAPEAU?$_Tree_node@U?$pair@$$CBIUNamespace@cldb@@@std@@PEAX@1@$$QEAU?$pair@$$CBIUNamespace@cldb@@@1@@Z 0000000180000000     clReflectCore:DatabaseBinarySerialiser.obj
 0002:fffcc000       $handlerMap$0$??$_Buynode@U?$pair@$$CBIUNamespace@cldb@@@std@@@?$_Tree_comp_alloc@V?$_Tmap_traits@IUNamespace@cldb@@U?$less@I@std@@V?$allocator@U?$pair@$$CBIUNamespace@cldb@@@std@@@4@$00@std@@@std@@QEAAPEAU?$_Tree_node@U?$pair@$$CBIUNamespace@cldb@@@std@@PEAX@1@$$QEAU?$pair@$$CBIUNamespace@cldb@@@1@@Z 0000000180000000     clReflectCore:DatabaseBinarySerialiser.obj
 0002:fffcc000       $tryMap$??$_Buynode@U?$pair@$$CBIUNamespace@cldb@@@std@@@?$_Tree_comp_alloc@V?$_Tmap_traits@IUNamespace@cldb@@U?$less@I@std@@V?$allocator@U?$pair@$$CBIUNamespace@cldb@@@std@@@4@$00@std@@@std@@QEAAPEAU?$_Tree_node@U?$pair@$$CBIUNamespace@cldb@@@std@@PEAX@1@$$QEAU?$pair@$$CBIUNamespace@cldb@@@1@@Z 0000000180000000     clReflectCore:DatabaseBinarySerialiser.obj
 0002:fffcc000       $stateUnwindMap$??$_Buynode@U?$pair@$$CBIUNamespace@cldb@@@std@@@?$_Tree_comp_alloc@V?$_Tmap_traits@IUNamespace@cldb@@U?$less@I@std@@V?$allocator@U?$pair@$$CBIUNamespace@cldb@@@std@@@4@$00@std@@@std@@QEAAPEAU?$_Tree_node@U?$pair@$$CBIUNamespace@cldb@@@std@@PEAX@1@$$QEAU?$pair@$$CBIUNamespace@cldb@@@1@@Z 0000000180000000     clReflectCore:DatabaseBinarySerialiser.obj
 0002:fffcc000       $cppxdata$??$_Buynode@U?$pair@$$CBIUNamespace@cldb@@@std@@@?$_Tree_comp_alloc@V?$_Tmap_traits@IUNamespace@cldb@@U?$less@I@std@@V?$allocator@U?$pair@$$CBIUNamespace@cldb@@@std@@@4@$00@std@@@std@@QEAAPEAU?$_Tree_node@U?$pair@$$CBIUNamespace@cldb@@@std@@PEAX@1@$$QEAU?$pair@$$CBIUNamespace@cldb@@@1@@Z 0000000180000000     clReflectCore:DatabaseBinarySerialiser.obj
 0004:fffba000       $pdata$??$_Buynode@U?$pair@$$CBIUNamespace@cldb@@@std@@@?$_Tree_comp_alloc@V?$_Tmap_traits@IUNamespace@cldb@@U?$less@I@std@@V?$allocator@U?$pair@$$CBIUNamespace@cldb@@@std@@@4@$00@std@@@std@@QEAAPEAU?$_Tree_node@U?$pair@$$CBIUNamespace@cldb@@@std@@PEAX@1@$$QEAU?$pair@$$CBIUNamespace@cldb@@@1@@Z 0000000180000000     clReflectCore:DatabaseBinarySerialiser.obj
 0002:fffcc000       $unwind$??$_Buynode@U?$pair@$$CBIUNamespace@cldb@@@std@@@?$_Tree_comp_alloc@V?$_Tmap_traits@IUNamespace@cldb@@U?$less@I@std@@V?$allocator@U?$pair@$$CBIUNamespace@cldb@@@std@@@4@$00@std@@@std@@QEAAPEAU?$_Tree_node@U?$pair@$$CBIUNamespace@cldb@@@std@@PEAX@1@$$QEAU?$pair@$$CBIUNamespace@cldb@@@1@@Z 0000000180000000     clReflectCore:DatabaseBinarySerialiser.obj
 0004:fffba000       $pdata$?catch$1@?0???$_Buynode@U?$pair@$$CBIUTemplateType@cldb@@@std@@@?$_Tree_comp_alloc@V?$_Tmap_traits@IUTemplateType@cldb@@U?$less@I@std@@V?$allocator@U?$pair@$$CBIUTemplateType@cldb@@@std@@@4@$00@std@@@std@@QEAAPEAU?$_Tree_node@U?$pair@$$CBIUTemplateType@cldb@@@std@@PEAX@1@$$QEAU?$pair@$$CBIUTemplateType@cldb@@@1@@Z@4HA 0000000180000000     clReflectCore:DatabaseBinarySerialiser.obj
 0002:fffcc000       $unwind$?catch$1@?0???$_Buynode@U?$pair@$$CBIUTemplateType@cldb@@@std@@@?$_Tree_comp_alloc@V?$_Tmap_traits@IUTemplateType@cldb@@U?$less@I@std@@V?$allocator@U?$pair@$$CBIUTemplateType@cldb@@@std@@@4@$00@std@@@std@@QEAAPEAU?$_Tree_node@U?$pair@$$CBIUTemplateType@cldb@@@std@@PEAX@1@$$QEAU?$pair@$$CBIUTemplateType@cldb@@@1@@Z@4HA 0000000180000000     clReflectCore:DatabaseBinarySerialiser.obj
 0002:fffcc000       $ip2state$??$_Buynode@U?$pair@$$CBIUTemplateType@cldb@@@std@@@?$_Tree_comp_alloc@V?$_Tmap_traits@IUTemplateType@cldb@@U?$less@I@std@@V?$allocator@U?$pair@$$CBIUTemplateType@cldb@@@std@@@4@$00@std@@@std@@QEAAPEAU?$_Tree_node@U?$pair@$$CBIUTemplateType@cldb@@@std@@PEAX@1@$$QEAU?$pair@$$CBIUTemplateType@cldb@@@1@@Z 0000000180000000     clReflectCore:DatabaseBinarySerialiser.obj
 0002:fffcc000       $handlerMap$0$??$_Buynode@U?$pair@$$CBIUTemplateType@cldb@@@std@@@?$_Tree_comp_alloc@V?$_Tmap_traits@IUTemplateType@cldb@@U?$less@I@std@@V?$allocator@U?$pair@$$CBIUTemplateType@cldb@@@std@@@4@$00@std@@@std@@QEAAPEAU?$_Tree_node@U?$pair@$$CBIUTemplateType@cldb@@@std@@PEAX@1@$$QEAU?$pair@$$CBIUTemplateType@cldb@@@1@@Z 0000000180000000     clReflectCore:DatabaseBinarySerialiser.obj
 0002:fffcc000       $tryMap$??$_Buynode@U?$pair@$$CBIUTemplateType@cldb@@@std@@@?$_Tree_comp_alloc@V?$_Tmap_traits@IUTemplateType@cldb@@U?$less@I@std@@V?$allocator@U?$pair@$$CBIUTemplateType@cldb@@@std@@@4@$00@std@@@std@@QEAAPEAU?$_Tree_node@U?$pair@$$CBIUTemplateType@cldb@@@std@@PEAX@1@$$QEAU?$pair@$$CBIUTemplateType@cldb@@@1@@Z 0000000180000000     clReflectCore:DatabaseBinarySerialiser.obj
 0002:fffcc000       $stateUnwindMap$??$_Buynode@U?$pair@$$CBIUTemplateType@cldb@@@std@@@?$_Tree_comp_alloc@V?$_Tmap_traits@IUTemplateType@cldb@@U?$less@I@std@@V?$allocator@U?$pair@$$CBIUTemplateType@cldb@@@std@@@4@$00@std@@@std@@QEAAPEAU?$_Tree_node@U?$pair@$$CBIUTemplateType@cldb@@@std@@PEAX@1@$$QEAU?$pair@$$CBIUTemplateType@cldb@@@1@@Z 0000000180000000     clReflectCore:DatabaseBinarySerialiser.obj
 0002:fffcc000       $cppxdata$??$_Buynode@U?$pair@$$CBIUTemplateType@cldb@@@std@@@?$_Tree_comp_alloc@V?$_Tmap_traits@IUTemplateType@cldb@@U?$less@I@std@@V?$allocator@U?$pair@$$CBIUTemplateType@cldb@@@std@@@4@$00@std@@@std@@QEAAPEAU?$_Tree_node@U?$pair@$$CBIUTemplateType@cldb@@@std@@PEAX@1@$$QEAU?$pair@$$CBIUTemplateType@cldb@@@1@@Z 0000000180000000     clReflectCore:DatabaseBinarySerialiser.obj
 0004:fffba000       $pdata$??$_Buynode@U?$pair@$$CBIUTemplateType@cldb@@@std@@@?$_Tree_comp_alloc@V?$_Tmap_traits@IUTemplateType@cldb@@U?$less@I@std@@V?$allocator@U?$pair@$$CBIUTemplateType@cldb@@@std@@@4@$00@std@@@std@@QEAAPEAU?$_Tree_node@U?$pair@$$CBIUTemplateType@cldb@@@std@@PEAX@1@$$QEAU?$pair@$$CBIUTemplateType@cldb@@@1@@Z 0000000180000000     clReflectCore:DatabaseBinarySerialiser.obj
 0002:fffcc000       $unwind$??$_Buynode@U?$pair@$$CBIUTemplateType@cldb@@@std@@@?$_Tree_comp_alloc@V?$_Tmap_traits@IUTemplateType@cldb@@U?$less@I@std@@V?$allocator@U?$pair@$$CBIUTemplateType@cldb@@@std@@@4@$00@std@@@std@@QEAAPEAU?$_Tree_node@U?$pair@$$CBIUTemplateType@cldb@@@std@@PEAX@1@$$QEAU?$pair@$$CBIUTemplateType@cldb@@@1@@Z 0000000180000000     clReflectCore:DatabaseBinarySerialiser.obj
 0004:fffba000       $pdata$?catch$2@?0???$_Buynode@U?$pair@$$CBIUTemplate@cldb@@@std@@@?$_Tree_comp_alloc@V?$_Tmap_traits@IUTemplate@cldb@@U?$less@I@std@@V?$allocator@U?$pair@$$CBIUTemplate@cldb@@@std@@@4@$00@std@@@std@@QEAAPEAU?$_Tree_node@U?$pair@$$CBIUTemplate@cldb@@@std@@PEAX@1@$$QEAU?$pair@$$CBIUTemplate@cldb@@@1@@Z@4HA 0000000180000000     clReflectCore:DatabaseBinarySerialiser.obj
 0002:fffcc000       $unwind$?catch$2@?0???$_Buynode@U?$pair@$$CBIUTemplate@cldb@@@std@@@?$_Tree_comp_alloc@V?$_Tmap_traits@IUTemplate@cldb@@U?$less@I@std@@V?$allocator@U?$pair@$$CBIUTemplate@cldb@@@std@@@4@$00@std@@@std@@QEAAPEAU?$_Tree_node@U?$pair@$$CBIUTemplate@cldb@@@std@@PEAX@1@$$QEAU?$pair@$$CBIUTemplate@cldb@@@1@@Z@4HA 0000000180000000     clReflectCore:DatabaseBinarySerialiser.obj
 0002:fffcc000       $ip2state$??$_Buynode@U?$pair@$$CBIUTemplate@cldb@@@std@@@?$_Tree_comp_alloc@V?$_Tmap_traits@IUTemplate@cldb@@U?$less@I@std@@V?$allocator@U?$pair@$$CBIUTemplate@cldb@@@std@@@4@$00@std@@@std@@QEAAPEAU?$_Tree_node@U?$pair@$$CBIUTemplate@cldb@@@std@@PEAX@1@$$QEAU?$pair@$$CBIUTemplate@cldb@@@1@@Z 0000000180000000     clReflectCore:DatabaseBinarySerialiser.obj
 0002:fffcc000       $handlerMap$0$??$_Buynode@U?$pair@$$CBIUTemplate@cldb@@@std@@@?$_Tree_comp_alloc@V?$_Tmap_traits@IUTemplate@cldb@@U?$less@I@std@@V?$allocator@U?$pair@$$CBIUTemplate@cldb@@@std@@@4@$00@std@@@std@@QEAAPEAU?$_Tree_node@U?$pair@$$CBIUTemplate@cldb@@@std@@PEAX@1@$$QEAU?$pair@$$CBIUTemplate@cldb@@@1@@Z 0000000180000000     clReflectCore:DatabaseBinarySerialiser.obj
 0002:fffcc000       $tryMap$??$_Buynode@U?$pair@$$CBIUTemplate@cldb@@@std@@@?$_Tree_comp_alloc@V?$_Tmap_traits@IUTemplate@cldb@@U?$less@I@std@@V?$allocator@U?$pair@$$CBIUTemplate@cldb@@@std@@@4@$00@std@@@std@@QEAAPEAU?$_Tree_node@U?$pair@$$CBIUTemplate@cldb@@@std@@PEAX@1@$$QEAU?$pair@$$CBIUTemplate@cldb@@@1@@Z 0000000180000000     clReflectCore:DatabaseBinarySerialiser.obj
 0002:fffcc000       $stateUnwindMap$??$_Buynode@U?$pair@$$CBIUTemplate@cldb@@@std@@@?$_Tree_comp_alloc@V?$_Tmap_traits@IUTemplate@cldb@@U?$less@I@std@@V?$allocator@U?$pair@$$CBIUTemplate@cldb@@@std@@@4@$00@std@@@std@@QEAAPEAU?$_Tree_node@U?$pair@$$CBIUTemplate@cldb@@@std@@PEAX@1@$$QEAU?$pair@$$CBIUTemplate@cldb@@@1@@Z 0000000180000000     clReflectCore:DatabaseBinarySerialiser.obj
 0002:fffcc000       $cppxdata$??$_Buynode@U?$pair@$$CBIUTemplate@cldb@@@std@@@?$_Tree_comp_alloc@V?$_Tmap_traits@IUTemplate@cldb@@U?$less@I@std@@V?$allocator@U?$pair@$$CBIUTemplate@cldb@@@std@@@4@$00@std@@@std@@QEAAPEAU?$_Tree_node@U?$pair@$$CBIUTemplate@cldb@@@std@@PEAX@1@$$QEAU?$pair@$$CBIUTemplate@cldb@@@1@@Z 0000000180000000     clReflectCore:DatabaseBinarySerialiser.obj
 0004:fffba000       $pdata$??$_Buynode@U?$pair@$$CBIUTemplate@cldb@@@std@@@?$_Tree_comp_alloc@V?$_Tmap_traits@IUTemplate@cldb@@U?$less@I@std@@V?$allocator@U?$pair@$$CBIUTemplate@cldb@@@std@@@4@$00@std@@@std@@QEAAPEAU?$_Tree_node@U?$pair@$$CBIUTemplate@cldb@@@std@@PEAX@1@$$QEAU?$pair@$$CBIUTemplate@cldb@@@1@@Z 0000000180000000     clReflectCore:DatabaseBinarySerialiser.obj
 0002:fffcc000       $unwind$??$_Buynode@U?$pair@$$CBIUTemplate@cldb@@@std@@@?$_Tree_comp_alloc@V?$_Tmap_traits@IUTemplate@cldb@@U?$less@I@std@@V?$allocator@U?$pair@$$CBIUTemplate@cldb@@@std@@@4@$00@std@@@std@@QEAAPEAU?$_Tree_node@U?$pair@$$CBIUTemplate@cldb@@@std@@PEAX@1@$$QEAU?$pair@$$CBIUTemplate@cldb@@@1@@Z 0000000180000000     clReflectCore:DatabaseBinarySerialiser.obj
 0004:fffba000       $pdata$?catch$3@?0???$_Buynode@U?$pair@$$CBIUClass@cldb@@@std@@@?$_Tree_comp_alloc@V?$_Tmap_traits@IUClass@cldb@@U?$less@I@std@@V?$allocator@U?$pair@$$CBIUClass@cldb@@@std@@@4@$00@std@@@std@@QEAAPEAU?$_Tree_node@U?$pair@$$CBIUClass@cldb@@@std@@PEAX@1@$$QEAU?$pair@$$CBIUClass@cldb@@@1@@Z@4HA 0000000180000000     clReflectCore:DatabaseBinarySerialiser.obj
 0002:fffcc000       $unwind$?catch$3@?0???$_Buynode@U?$pair@$$CBIUClass@cldb@@@std@@@?$_Tree_comp_alloc@V?$_Tmap_traits@IUClass@cldb@@U?$less@I@std@@V?$allocator@U?$pair@$$CBIUClass@cldb@@@std@@@4@$00@std@@@std@@QEAAPEAU?$_Tree_node@U?$pair@$$CBIUClass@cldb@@@std@@PEAX@1@$$QEAU?$pair@$$CBIUClass@cldb@@@1@@Z@4HA 0000000180000000     clReflectCore:DatabaseBinarySerialiser.obj
 0002:fffcc000       $ip2state$??$_Buynode@U?$pair@$$CBIUClass@cldb@@@std@@@?$_Tree_comp_alloc@V?$_Tmap_traits@IUClass@cldb@@U?$less@I@std@@V?$allocator@U?$pair@$$CBIUClass@cldb@@@std@@@4@$00@std@@@std@@QEAAPEAU?$_Tree_node@U?$pair@$$CBIUClass@cldb@@@std@@PEAX@1@$$QEAU?$pair@$$CBIUClass@cldb@@@1@@Z 0000000180000000     clReflectCore:DatabaseBinarySerialiser.obj
 0002:fffcc000       $handlerMap$0$??$_Buynode@U?$pair@$$CBIUClass@cldb@@@std@@@?$_Tree_comp_alloc@V?$_Tmap_traits@IUClass@cldb@@U?$less@I@std@@V?$allocator@U?$pair@$$CBIUClass@cldb@@@std@@@4@$00@std@@@std@@QEAAPEAU?$_Tree_node@U?$pair@$$CBIUClass@cldb@@@std@@PEAX@1@$$QEAU?$pair@$$CBIUClass@cldb@@@1@@Z 0000000180000000     clReflectCore:DatabaseBinarySerialiser.obj
 0002:fffcc000       $tryMap$??$_Buynode@U?$pair@$$CBIUClass@cldb@@@std@@@?$_Tree_comp_alloc@V?$_Tmap_traits@IUClass@cldb@@U?$less@I@std@@V?$allocator@U?$pair@$$CBIUClass@cldb@@@std@@@4@$00@std@@@std@@QEAAPEAU?$_Tree_node@U?$pair@$$CBIUClass@cldb@@@std@@PEAX@1@$$QEAU?$pair@$$CBIUClass@cldb@@@1@@Z 0000000180000000     clReflectCore:DatabaseBinarySerialiser.obj
 0002:fffcc000       $stateUnwindMap$??$_Buynode@U?$pair@$$CBIUClass@cldb@@@std@@@?$_Tree_comp_alloc@V?$_Tmap_traits@IUClass@cldb@@U?$less@I@std@@V?$allocator@U?$pair@$$CBIUClass@cldb@@@std@@@4@$00@std@@@std@@QEAAPEAU?$_Tree_node@U?$pair@$$CBIUClass@cldb@@@std@@PEAX@1@$$QEAU?$pair@$$CBIUClass@cldb@@@1@@Z 0000000180000000     clReflectCore:DatabaseBinarySerialiser.obj
 0002:fffcc000       $cppxdata$??$_Buynode@U?$pair@$$CBIUClass@cldb@@@std@@@?$_Tree_comp_alloc@V?$_Tmap_traits@IUClass@cldb@@U?$less@I@std@@V?$allocator@U?$pair@$$CBIUClass@cldb@@@std@@@4@$00@std@@@std@@QEAAPEAU?$_Tree_node@U?$pair@$$CBIUClass@cldb@@@std@@PEAX@1@$$QEAU?$pair@$$CBIUClass@cldb@@@1@@Z 0000000180000000     clReflectCore:DatabaseBinarySerialiser.obj
 0004:fffba000       $pdata$??$_Buynode@U?$pair@$$CBIUClass@cldb@@@std@@@?$_Tree_comp_alloc@V?$_Tmap_traits@IUClass@cldb@@U?$less@I@std@@V?$allocator@U?$pair@$$CBIUClass@cldb@@@std@@@4@$00@std@@@std@@QEAAPEAU?$_Tree_node@U?$pair@$$CBIUClass@cldb@@@std@@PEAX@1@$$QEAU?$pair@$$CBIUClass@cldb@@@1@@Z 0000000180000000     clReflectCore:DatabaseBinarySerialiser.obj
 0002:fffcc000       $unwind$??$_Buynode@U?$pair@$$CBIUClass@cldb@@@std@@@?$_Tree_comp_alloc@V?$_Tmap_traits@IUClass@cldb@@U?$less@I@std@@V?$allocator@U?$pair@$$CBIUClass@cldb@@@std@@@4@$00@std@@@std@@QEAAPEAU?$_Tree_node@U?$pair@$$CBIUClass@cldb@@@std@@PEAX@1@$$QEAU?$pair@$$CBIUClass@cldb@@@1@@Z 0000000180000000     clReflectCore:DatabaseBinarySerialiser.obj
 0004:fffba000       $pdata$?catch$2@?0???$_Buynode@U?$pair@$$CBIUFunction@cldb@@@std@@@?$_Tree_comp_alloc@V?$_Tmap_traits@IUFunction@cldb@@U?$less@I@std@@V?$allocator@U?$pair@$$CBIUFunction@cldb@@@std@@@4@$00@std@@@std@@QEAAPEAU?$_Tree_node@U?$pair@$$CBIUFunction@cldb@@@std@@PEAX@1@$$QEAU?$pair@$$CBIUFunction@cldb@@@1@@Z@4HA 0000000180000000     clReflectCore:DatabaseBinarySerialiser.obj
 0002:fffcc000       $unwind$?catch$2@?0???$_Buynode@U?$pair@$$CBIUFunction@cldb@@@std@@@?$_Tree_comp_alloc@V?$_Tmap_traits@IUFunction@cldb@@U?$less@I@std@@V?$allocator@U?$pair@$$CBIUFunction@cldb@@@std@@@4@$00@std@@@std@@QEAAPEAU?$_Tree_node@U?$pair@$$CBIUFunction@cldb@@@std@@PEAX@1@$$QEAU?$pair@$$CBIUFunction@cldb@@@1@@Z@4HA 0000000180000000     clReflectCore:DatabaseBinarySerialiser.obj
 0002:fffcc000       $ip2state$??$_Buynode@U?$pair@$$CBIUFunction@cldb@@@std@@@?$_Tree_comp_alloc@V?$_Tmap_traits@IUFunction@cldb@@U?$less@I@std@@V?$allocator@U?$pair@$$CBIUFunction@cldb@@@std@@@4@$00@std@@@std@@QEAAPEAU?$_Tree_node@U?$pair@$$CBIUFunction@cldb@@@std@@PEAX@1@$$QEAU?$pair@$$CBIUFunction@cldb@@@1@@Z 0000000180000000     clReflectCore:DatabaseBinarySerialiser.obj
 0002:fffcc000       $handlerMap$0$??$_Buynode@U?$pair@$$CBIUFunction@cldb@@@std@@@?$_Tree_comp_alloc@V?$_Tmap_traits@IUFunction@cldb@@U?$less@I@std@@V?$allocator@U?$pair@$$CBIUFunction@cldb@@@std@@@4@$00@std@@@std@@QEAAPEAU?$_Tree_node@U?$pair@$$CBIUFunction@cldb@@@std@@PEAX@1@$$QEAU?$pair@$$CBIUFunction@cldb@@@1@@Z 0000000180000000     clReflectCore:DatabaseBinarySerialiser.obj
 0002:fffcc000       $tryMap$??$_Buynode@U?$pair@$$CBIUFunction@cldb@@@std@@@?$_Tree_comp_alloc@V?$_Tmap_traits@IUFunction@cldb@@U?$less@I@std@@V?$allocator@U?$pair@$$CBIUFunction@cldb@@@std@@@4@$00@std@@@std@@QEAAPEAU?$_Tree_node@U?$pair@$$CBIUFunction@cldb@@@std@@PEAX@1@$$QEAU?$pair@$$CBIUFunction@cldb@@@1@@Z 0000000180000000     clReflectCore:DatabaseBinarySerialiser.obj
 0002:fffcc000       $stateUnwindMap$??$_Buynode@U?$pair@$$CBIUFunction@cldb@@@std@@@?$_Tree_comp_alloc@V?$_Tmap_traits@IUFunction@cldb@@U?$less@I@std@@V?$allocator@U?$pair@$$CBIUFunction@cldb@@@std@@@4@$00@std@@@std@@QEAAPEAU?$_Tree_node@U?$pair@$$CBIUFunction@cldb@@@std@@PEAX@1@$$QEAU?$pair@$$CBIUFunction@cldb@@@1@@Z 0000000180000000     clReflectCore:DatabaseBinarySerialiser.obj
 0002:fffcc000       $cppxdata$??$_Buynode@U?$pair@$$CBIUFunction@cldb@@@std@@@?$_Tree_comp_alloc@V?$_Tmap_traits@IUFunction@cldb@@U?$less@I@std@@V?$allocator@U?$pair@$$CBIUFunction@cldb@@@std@@@4@$00@std@@@std@@QEAAPEAU?$_Tree_node@U?$pair@$$CBIUFunction@cldb@@@std@@PEAX@1@$$QEAU?$pair@$$CBIUFunction@cldb@@@1@@Z 0000000180000000     clReflectCore:DatabaseBinarySerialiser.obj
 0004:fffba000       $pdata$??$_Buynode@U?$pair@$$CBIUFunction@cldb@@@std@@@?$_Tree_comp_alloc@V?$_Tmap_traits@IUFunction@cldb@@U?$less@I@std@@V?$allocator@U?$pair@$$CBIUFunction@cldb@@@std@@@4@$00@std@@@std@@QEAAPEAU?$_Tree_node@U?$pair@$$CBIUFunction@cldb@@@std@@PEAX@1@$$QEAU?$pair@$$CBIUFunction@cldb@@@1@@Z 0000000180000000     clReflectCore:DatabaseBinarySerialiser.obj
 0002:fffcc000       $unwind$??$_Buynode@U?$pair@$$CBIUFunction@cldb@@@std@@@?$_Tree_comp_alloc@V?$_Tmap_traits@IUFunction@cldb@@U?$less@I@std@@V?$allocator@U?$pair@$$CBIUFunction@cldb@@@std@@@4@$00@std@@@std@@QEAAPEAU?$_Tree_node@U?$pair@$$CBIUFunction@cldb@@@std@@PEAX@1@$$QEAU?$pair@$$CBIUFunction@cldb@@@1@@Z 0000000180000000     clReflectCore:DatabaseBinarySerialiser.obj
 0004:fffba000       $pdata$?catch$1@?0???$_Buynode@U?$pair@$$CBIUField@cldb@@@std@@@?$_Tree_comp_alloc@V?$_Tmap_traits@IUField@cldb@@U?$less@I@std@@V?$allocator@U?$pair@$$CBIUField@cldb@@@std@@@4@$00@std@@@std@@QEAAPEAU?$_Tree_node@U?$pair@$$CBIUField@cldb@@@std@@PEAX@1@$$QEAU?$pair@$$CBIUField@cldb@@@1@@Z@4HA 0000000180000000     clReflectCore:DatabaseBinarySerialiser.obj
 0002:fffcc000       $unwind$?catch$1@?0???$_Buynode@U?$pair@$$CBIUField@cldb@@@std@@@?$_Tree_comp_alloc@V?$_Tmap_traits@IUField@cldb@@U?$less@I@std@@V?$allocator@U?$pair@$$CBIUField@cldb@@@std@@@4@$00@std@@@std@@QEAAPEAU?$_Tree_node@U?$pair@$$CBIUField@cldb@@@std@@PEAX@1@$$QEAU?$pair@$$CBIUField@cldb@@@1@@Z@4HA 0000000180000000     clReflectCore:DatabaseBinarySerialiser.obj
 0002:fffcc000       $ip2state$??$_Buynode@U?$pair@$$CBIUField@cldb@@@std@@@?$_Tree_comp_alloc@V?$_Tmap_traits@IUField@cldb@@U?$less@I@std@@V?$allocator@U?$pair@$$CBIUField@cldb@@@std@@@4@$00@std@@@std@@QEAAPEAU?$_Tree_node@U?$pair@$$CBIUField@cldb@@@std@@PEAX@1@$$QEAU?$pair@$$CBIUField@cldb@@@1@@Z 0000000180000000     clReflectCore:DatabaseBinarySerialiser.obj
 0002:fffcc000       $handlerMap$0$??$_Buynode@U?$pair@$$CBIUField@cldb@@@std@@@?$_Tree_comp_alloc@V?$_Tmap_traits@IUField@cldb@@U?$less@I@std@@V?$allocator@U?$pair@$$CBIUField@cldb@@@std@@@4@$00@std@@@std@@QEAAPEAU?$_Tree_node@U?$pair@$$CBIUField@cldb@@@std@@PEAX@1@$$QEAU?$pair@$$CBIUField@cldb@@@1@@Z 0000000180000000     clReflectCore:DatabaseBinarySerialiser.obj
 0002:fffcc000       $tryMap$??$_Buynode@U?$pair@$$CBIUField@cldb@@@std@@@?$_Tree_comp_alloc@V?$_Tmap_traits@IUField@cldb@@U?$less@I@std@@V?$allocator@U?$pair@$$CBIUField@cldb@@@std@@@4@$00@std@@@std@@QEAAPEAU?$_Tree_node@U?$pair@$$CBIUField@cldb@@@std@@PEAX@1@$$QEAU?$pair@$$CBIUField@cldb@@@1@@Z 0000000180000000     clReflectCore:DatabaseBinarySerialiser.obj
 0002:fffcc000       $stateUnwindMap$??$_Buynode@U?$pair@$$CBIUField@cldb@@@std@@@?$_Tree_comp_alloc@V?$_Tmap_traits@IUField@cldb@@U?$less@I@std@@V?$allocator@U?$pair@$$CBIUField@cldb@@@std@@@4@$00@std@@@std@@QEAAPEAU?$_Tree_node@U?$pair@$$CBIUField@cldb@@@std@@PEAX@1@$$QEAU?$pair@$$CBIUField@cldb@@@1@@Z 0000000180000000     clReflectCore:DatabaseBinarySerialiser.obj
 0002:fffcc000       $cppxdata$??$_Buynode@U?$pair@$$CBIUField@cldb@@@std@@@?$_Tree_comp_alloc@V?$_Tmap_traits@IUField@cldb@@U?$less@I@std@@V?$allocator@U?$pair@$$CBIUField@cldb@@@std@@@4@$00@std@@@std@@QEAAPEAU?$_Tree_node@U?$pair@$$CBIUField@cldb@@@std@@PEAX@1@$$QEAU?$pair@$$CBIUField@cldb@@@1@@Z 0000000180000000     clReflectCore:DatabaseBinarySerialiser.obj
 0004:fffba000       $pdata$??$_Buynode@U?$pair@$$CBIUField@cldb@@@std@@@?$_Tree_comp_alloc@V?$_Tmap_traits@IUField@cldb@@U?$less@I@std@@V?$allocator@U?$pair@$$CBIUField@cldb@@@std@@@4@$00@std@@@std@@QEAAPEAU?$_Tree_node@U?$pair@$$CBIUField@cldb@@@std@@PEAX@1@$$QEAU?$pair@$$CBIUField@cldb@@@1@@Z 0000000180000000     clReflectCore:DatabaseBinarySerialiser.obj
 0002:fffcc000       $unwind$??$_Buynode@U?$pair@$$CBIUField@cldb@@@std@@@?$_Tree_comp_alloc@V?$_Tmap_traits@IUField@cldb@@U?$less@I@std@@V?$allocator@U?$pair@$$CBIUField@cldb@@@std@@@4@$00@std@@@std@@QEAAPEAU?$_Tree_node@U?$pair@$$CBIUField@cldb@@@std@@PEAX@1@$$QEAU?$pair@$$CBIUField@cldb@@@1@@Z 0000000180000000     clReflectCore:DatabaseBinarySerialiser.obj
 0004:fffba000       $pdata$?catch$3@?0???$_Buynode@U?$pair@$$CBIUEnum@cldb@@@std@@@?$_Tree_comp_alloc@V?$_Tmap_traits@IUEnum@cldb@@U?$less@I@std@@V?$allocator@U?$pair@$$CBIUEnum@cldb@@@std@@@4@$00@std@@@std@@QEAAPEAU?$_Tree_node@U?$pair@$$CBIUEnum@cldb@@@std@@PEAX@1@$$QEAU?$pair@$$CBIUEnum@cldb@@@1@@Z@4HA 0000000180000000     clReflectCore:DatabaseBinarySerialiser.obj
 0002:fffcc000       $unwind$?catch$3@?0???$_Buynode@U?$pair@$$CBIUEnum@cldb@@@std@@@?$_Tree_comp_alloc@V?$_Tmap_traits@IUEnum@cldb@@U?$less@I@std@@V?$allocator@U?$pair@$$CBIUEnum@cldb@@@std@@@4@$00@std@@@std@@QEAAPEAU?$_Tree_node@U?$pair@$$CBIUEnum@cldb@@@std@@PEAX@1@$$QEAU?$pair@$$CBIUEnum@cldb@@@1@@Z@4HA 0000000180000000     clReflectCore:DatabaseBinarySerialiser.obj
 0002:fffcc000       $ip2state$??$_Buynode@U?$pair@$$CBIUEnum@cldb@@@std@@@?$_Tree_comp_alloc@V?$_Tmap_traits@IUEnum@cldb@@U?$less@I@std@@V?$allocator@U?$pair@$$CBIUEnum@cldb@@@std@@@4@$00@std@@@std@@QEAAPEAU?$_Tree_node@U?$pair@$$CBIUEnum@cldb@@@std@@PEAX@1@$$QEAU?$pair@$$CBIUEnum@cldb@@@1@@Z 0000000180000000     clReflectCore:DatabaseBinarySerialiser.obj
 0002:fffcc000       $handlerMap$0$??$_Buynode@U?$pair@$$CBIUEnum@cldb@@@std@@@?$_Tree_comp_alloc@V?$_Tmap_traits@IUEnum@cldb@@U?$less@I@std@@V?$allocator@U?$pair@$$CBIUEnum@cldb@@@std@@@4@$00@std@@@std@@QEAAPEAU?$_Tree_node@U?$pair@$$CBIUEnum@cldb@@@std@@PEAX@1@$$QEAU?$pair@$$CBIUEnum@cldb@@@1@@Z 0000000180000000     clReflectCore:DatabaseBinarySerialiser.obj
 0002:fffcc000       $tryMap$??$_Buynode@U?$pair@$$CBIUEnum@cldb@@@std@@@?$_Tree_comp_alloc@V?$_Tmap_traits@IUEnum@cldb@@U?$less@I@std@@V?$allocator@U?$pair@$$CBIUEnum@cldb@@@std@@@4@$00@std@@@std@@QEAAPEAU?$_Tree_node@U?$pair@$$CBIUEnum@cldb@@@std@@PEAX@1@$$QEAU?$pair@$$CBIUEnum@cldb@@@1@@Z 0000000180000000     clReflectCore:DatabaseBinarySerialiser.obj
 0002:fffcc000       $stateUnwindMap$??$_Buynode@U?$pair@$$CBIUEnum@cldb@@@std@@@?$_Tree_comp_alloc@V?$_Tmap_traits@IUEnum@cldb@@U?$less@I@std@@V?$allocator@U?$pair@$$CBIUEnum@cldb@@@std@@@4@$00@std@@@std@@QEAAPEAU?$_Tree_node@U?$pair@$$CBIUEnum@cldb@@@std@@PEAX@1@$$QEAU?$pair@$$CBIUEnum@cldb@@@1@@Z 0000000180000000     clReflectCore:DatabaseBinarySerialiser.obj
 0002:fffcc000       $cppxdata$??$_Buynode@U?$pair@$$CBIUEnum@cldb@@@std@@@?$_Tree_comp_alloc@V?$_Tmap_traits@IUEnum@cldb@@U?$less@I@std@@V?$allocator@U?$pair@$$CBIUEnum@cldb@@@std@@@4@$00@std@@@std@@QEAAPEAU?$_Tree_node@U?$pair@$$CBIUEnum@cldb@@@std@@PEAX@1@$$QEAU?$pair@$$CBIUEnum@cldb@@@1@@Z 0000000180000000     clReflectCore:DatabaseBinarySerialiser.obj
 0004:fffba000       $pdata$??$_Buynode@U?$pair@$$CBIUEnum@cldb@@@std@@@?$_Tree_comp_alloc@V?$_Tmap_traits@IUEnum@cldb@@U?$less@I@std@@V?$allocator@U?$pair@$$CBIUEnum@cldb@@@std@@@4@$00@std@@@std@@QEAAPEAU?$_Tree_node@U?$pair@$$CBIUEnum@cldb@@@std@@PEAX@1@$$QEAU?$pair@$$CBIUEnum@cldb@@@1@@Z 0000000180000000     clReflectCore:DatabaseBinarySerialiser.obj
 0002:fffcc000       $unwind$??$_Buynode@U?$pair@$$CBIUEnum@cldb@@@std@@@?$_Tree_comp_alloc@V?$_Tmap_traits@IUEnum@cldb@@U?$less@I@std@@V?$allocator@U?$pair@$$CBIUEnum@cldb@@@std@@@4@$00@std@@@std@@QEAAPEAU?$_Tree_node@U?$pair@$$CBIUEnum@cldb@@@std@@PEAX@1@$$QEAU?$pair@$$CBIUEnum@cldb@@@1@@Z 0000000180000000     clReflectCore:DatabaseBinarySerialiser.obj
 0004:fffba000       $pdata$?catch$2@?0???$_Buynode@U?$pair@$$CBIUEnumConstant@cldb@@@std@@@?$_Tree_comp_alloc@V?$_Tmap_traits@IUEnumConstant@cldb@@U?$less@I@std@@V?$allocator@U?$pair@$$CBIUEnumConstant@cldb@@@std@@@4@$00@std@@@std@@QEAAPEAU?$_Tree_node@U?$pair@$$CBIUEnumConstant@cldb@@@std@@PEAX@1@$$QEAU?$pair@$$CBIUEnumConstant@cldb@@@1@@Z@4HA 0000000180000000     clReflectCore:DatabaseBinarySerialiser.obj
 0002:fffcc000       $unwind$?catch$2@?0???$_Buynode@U?$pair@$$CBIUEnumConstant@cldb@@@std@@@?$_Tree_comp_alloc@V?$_Tmap_traits@IUEnumConstant@cldb@@U?$less@I@std@@V?$allocator@U?$pair@$$CBIUEnumConstant@cldb@@@std@@@4@$00@std@@@std@@QEAAPEAU?$_Tree_node@U?$pair@$$CBIUEnumConstant@cldb@@@std@@PEAX@1@$$QEAU?$pair@$$CBIUEnumConstant@cldb@@@1@@Z@4HA 0000000180000000     clReflectCore:DatabaseBinarySerialiser.obj
 0002:fffcc000       $ip2state$??$_Buynode@U?$pair@$$CBIUEnumConstant@cldb@@@std@@@?$_Tree_comp_alloc@V?$_Tmap_traits@IUEnumConstant@cldb@@U?$less@I@std@@V?$allocator@U?$pair@$$CBIUEnumConstant@cldb@@@std@@@4@$00@std@@@std@@QEAAPEAU?$_Tree_node@U?$pair@$$CBIUEnumConstant@cldb@@@std@@PEAX@1@$$QEAU?$pair@$$CBIUEnumConstant@cldb@@@1@@Z 0000000180000000     clReflectCore:DatabaseBinarySerialiser.obj
 0002:fffcc000       $handlerMap$0$??$_Buynode@U?$pair@$$CBIUEnumConstant@cldb@@@std@@@?$_Tree_comp_alloc@V?$_Tmap_traits@IUEnumConstant@cldb@@U?$less@I@std@@V?$allocator@U?$pair@$$CBIUEnumConstant@cldb@@@std@@@4@$00@std@@@std@@QEAAPEAU?$_Tree_node@U?$pair@$$CBIUEnumConstant@cldb@@@std@@PEAX@1@$$QEAU?$pair@$$CBIUEnumConstant@cldb@@@1@@Z 0000000180000000     clReflectCore:DatabaseBinarySerialiser.obj
 0002:fffcc000       $tryMap$??$_Buynode@U?$pair@$$CBIUEnumConstant@cldb@@@std@@@?$_Tree_comp_alloc@V?$_Tmap_traits@IUEnumConstant@cldb@@U?$less@I@std@@V?$allocator@U?$pair@$$CBIUEnumConstant@cldb@@@std@@@4@$00@std@@@std@@QEAAPEAU?$_Tree_node@U?$pair@$$CBIUEnumConstant@cldb@@@std@@PEAX@1@$$QEAU?$pair@$$CBIUEnumConstant@cldb@@@1@@Z 0000000180000000     clReflectCore:DatabaseBinarySerialiser.obj
 0002:fffcc000       $stateUnwindMap$??$_Buynode@U?$pair@$$CBIUEnumConstant@cldb@@@std@@@?$_Tree_comp_alloc@V?$_Tmap_traits@IUEnumConstant@cldb@@U?$less@I@std@@V?$allocator@U?$pair@$$CBIUEnumConstant@cldb@@@std@@@4@$00@std@@@std@@QEAAPEAU?$_Tree_node@U?$pair@$$CBIUEnumConstant@cldb@@@std@@PEAX@1@$$QEAU?$pair@$$CBIUEnumConstant@cldb@@@1@@Z 0000000180000000     clReflectCore:DatabaseBinarySerialiser.obj
 0002:fffcc000       $cppxdata$??$_Buynode@U?$pair@$$CBIUEnumConstant@cldb@@@std@@@?$_Tree_comp_alloc@V?$_Tmap_traits@IUEnumConstant@cldb@@U?$less@I@std@@V?$allocator@U?$pair@$$CBIUEnumConstant@cldb@@@std@@@4@$00@std@@@std@@QEAAPEAU?$_Tree_node@U?$pair@$$CBIUEnumConstant@cldb@@@std@@PEAX@1@$$QEAU?$pair@$$CBIUEnumConstant@cldb@@@1@@Z 0000000180000000     clReflectCore:DatabaseBinarySerialiser.obj
 0004:fffba000       $pdata$??$_Buynode@U?$pair@$$CBIUEnumConstant@cldb@@@std@@@?$_Tree_comp_alloc@V?$_Tmap_traits@IUEnumConstant@cldb@@U?$less@I@std@@V?$allocator@U?$pair@$$CBIUEnumConstant@cldb@@@std@@@4@$00@std@@@std@@QEAAPEAU?$_Tree_node@U?$pair@$$CBIUEnumConstant@cldb@@@std@@PEAX@1@$$QEAU?$pair@$$CBIUEnumConstant@cldb@@@1@@Z 0000000180000000     clReflectCore:DatabaseBinarySerialiser.obj
 0002:fffcc000       $unwind$??$_Buynode@U?$pair@$$CBIUEnumConstant@cldb@@@std@@@?$_Tree_comp_alloc@V?$_Tmap_traits@IUEnumConstant@cldb@@U?$less@I@std@@V?$allocator@U?$pair@$$CBIUEnumConstant@cldb@@@std@@@4@$00@std@@@std@@QEAAPEAU?$_Tree_node@U?$pair@$$CBIUEnumConstant@cldb@@@std@@PEAX@1@$$QEAU?$pair@$$CBIUEnumConstant@cldb@@@1@@Z 0000000180000000     clReflectCore:DatabaseBinarySerialiser.obj
 0004:fffba000       $pdata$?catch$2@?0???$_Buynode@U?$pair@$$CBIUType@cldb@@@std@@@?$_Tree_comp_alloc@V?$_Tmap_traits@IUType@cldb@@U?$less@I@std@@V?$allocator@U?$pair@$$CBIUType@cldb@@@std@@@4@$00@std@@@std@@QEAAPEAU?$_Tree_node@U?$pair@$$CBIUType@cldb@@@std@@PEAX@1@$$QEAU?$pair@$$CBIUType@cldb@@@1@@Z@4HA 0000000180000000     clReflectCore:DatabaseBinarySerialiser.obj
 0002:fffcc000       $unwind$?catch$2@?0???$_Buynode@U?$pair@$$CBIUType@cldb@@@std@@@?$_Tree_comp_alloc@V?$_Tmap_traits@IUType@cldb@@U?$less@I@std@@V?$allocator@U?$pair@$$CBIUType@cldb@@@std@@@4@$00@std@@@std@@QEAAPEAU?$_Tree_node@U?$pair@$$CBIUType@cldb@@@std@@PEAX@1@$$QEAU?$pair@$$CBIUType@cldb@@@1@@Z@4HA 0000000180000000     clReflectCore:DatabaseBinarySerialiser.obj
 0002:fffcc000       $ip2state$??$_Buynode@U?$pair@$$CBIUType@cldb@@@std@@@?$_Tree_comp_alloc@V?$_Tmap_traits@IUType@cldb@@U?$less@I@std@@V?$allocator@U?$pair@$$CBIUType@cldb@@@std@@@4@$00@std@@@std@@QEAAPEAU?$_Tree_node@U?$pair@$$CBIUType@cldb@@@std@@PEAX@1@$$QEAU?$pair@$$CBIUType@cldb@@@1@@Z 0000000180000000     clReflectCore:DatabaseBinarySerialiser.obj
 0002:fffcc000       $handlerMap$0$??$_Buynode@U?$pair@$$CBIUType@cldb@@@std@@@?$_Tree_comp_alloc@V?$_Tmap_traits@IUType@cldb@@U?$less@I@std@@V?$allocator@U?$pair@$$CBIUType@cldb@@@std@@@4@$00@std@@@std@@QEAAPEAU?$_Tree_node@U?$pair@$$CBIUType@cldb@@@std@@PEAX@1@$$QEAU?$pair@$$CBIUType@cldb@@@1@@Z 0000000180000000     clReflectCore:DatabaseBinarySerialiser.obj
 0002:fffcc000       $tryMap$??$_Buynode@U?$pair@$$CBIUType@cldb@@@std@@@?$_Tree_comp_alloc@V?$_Tmap_traits@IUType@cldb@@U?$less@I@std@@V?$allocator@U?$pair@$$CBIUType@cldb@@@std@@@4@$00@std@@@std@@QEAAPEAU?$_Tree_node@U?$pair@$$CBIUType@cldb@@@std@@PEAX@1@$$QEAU?$pair@$$CBIUType@cldb@@@1@@Z 0000000180000000     clReflectCore:DatabaseBinarySerialiser.obj
 0002:fffcc000       $stateUnwindMap$??$_Buynode@U?$pair@$$CBIUType@cldb@@@std@@@?$_Tree_comp_alloc@V?$_Tmap_traits@IUType@cldb@@U?$less@I@std@@V?$allocator@U?$pair@$$CBIUType@cldb@@@std@@@4@$00@std@@@std@@QEAAPEAU?$_Tree_node@U?$pair@$$CBIUType@cldb@@@std@@PEAX@1@$$QEAU?$pair@$$CBIUType@cldb@@@1@@Z 0000000180000000     clReflectCore:DatabaseBinarySerialiser.obj
 0002:fffcc000       $cppxdata$??$_Buynode@U?$pair@$$CBIUType@cldb@@@std@@@?$_Tree_comp_alloc@V?$_Tmap_traits@IUType@cldb@@U?$less@I@std@@V?$allocator@U?$pair@$$CBIUType@cldb@@@std@@@4@$00@std@@@std@@QEAAPEAU?$_Tree_node@U?$pair@$$CBIUType@cldb@@@std@@PEAX@1@$$QEAU?$pair@$$CBIUType@cldb@@@1@@Z 0000000180000000     clReflectCore:DatabaseBinarySerialiser.obj
 0004:fffba000       $pdata$??$_Buynode@U?$pair@$$CBIUType@cldb@@@std@@@?$_Tree_comp_alloc@V?$_Tmap_traits@IUType@cldb@@U?$less@I@std@@V?$allocator@U?$pair@$$CBIUType@cldb@@@std@@@4@$00@std@@@std@@QEAAPEAU?$_Tree_node@U?$pair@$$CBIUType@cldb@@@std@@PEAX@1@$$QEAU?$pair@$$CBIUType@cldb@@@1@@Z 0000000180000000     clReflectCore:DatabaseBinarySerialiser.obj
 0002:fffcc000       $unwind$??$_Buynode@U?$pair@$$CBIUType@cldb@@@std@@@?$_Tree_comp_alloc@V?$_Tmap_traits@IUType@cldb@@U?$less@I@std@@V?$allocator@U?$pair@$$CBIUType@cldb@@@std@@@4@$00@std@@@std@@QEAAPEAU?$_Tree_node@U?$pair@$$CBIUType@cldb@@@std@@PEAX@1@$$QEAU?$pair@$$CBIUType@cldb@@@1@@Z 0000000180000000     clReflectCore:DatabaseBinarySerialiser.obj
 0002:fffcc000       $stateUnwindMap$??$_Buynode@U?$pair@$$CBIUFunction@cldb@@@std@@@?$_Tree_comp_alloc@V?$_Tmap_traits@IUFunction@cldb@@U?$less@I@std@@V?$allocator@U?$pair@$$CBIUFunction@cldb@@@std@@@4@$00@std@@@std@@QEAAPEAU?$_Tree_node@U?$pair@$$CBIUFunction@cldb@@@std@@PEAX@1@$$QEAU?$pair@$$CBIUFunction@cldb@@@1@@Z 0000000180000000     clReflectCore:DatabaseTextSerialiser.obj
 0002:fffcc000       $tryMap$??$_Buynode@U?$pair@$$CBIUFunction@cldb@@@std@@@?$_Tree_comp_alloc@V?$_Tmap_traits@IUFunction@cldb@@U?$less@I@std@@V?$allocator@U?$pair@$$CBIUFunction@cldb@@@std@@@4@$00@std@@@std@@QEAAPEAU?$_Tree_node@U?$pair@$$CBIUFunction@cldb@@@std@@PEAX@1@$$QEAU?$pair@$$CBIUFunction@cldb@@@1@@Z 0000000180000000     clReflectCore:DatabaseTextSerialiser.obj
 0002:fffcc000       $unwind$?erase@?$_Tree@V?$_Tmap_traits@IUField@cldb@@U?$less@I@std@@V?$allocator@U?$pair@$$CBIUField@cldb@@@std@@@4@$00@std@@@std@@QEAA?AV?$_Tree_iterator@V?$_Tree_val@U?$_Tree_simple_types@U?$pair@$$CBIUField@cldb@@@std@@@std@@@std@@@2@V?$_Tree_const_iterator@V?$_Tree_val@U?$_Tree_simple_types@U?$pair@$$CBIUField@cldb@@@std@@@std@@@std@@@2@@Z 0000000180000000     clReflectCore:Database.obj
 0002:fffcc000       $handlerMap$0$??$_Buynode@U?$pair@$$CBIUFunction@cldb@@@std@@@?$_Tree_comp_alloc@V?$_Tmap_traits@IUFunction@cldb@@U?$less@I@std@@V?$allocator@U?$pair@$$CBIUFunction@cldb@@@std@@@4@$00@std@@@std@@QEAAPEAU?$_Tree_node@U?$pair@$$CBIUFunction@cldb@@@std@@PEAX@1@$$QEAU?$pair@$$CBIUFunction@cldb@@@1@@Z 0000000180000000     clReflectCore:DatabaseTextSerialiser.obj
 0002:fffcc000       $ip2state$??$_Buynode@U?$pair@$$CBIUFunction@cldb@@@std@@@?$_Tree_comp_alloc@V?$_Tmap_traits@IUFunction@cldb@@U?$less@I@std@@V?$allocator@U?$pair@$$CBIUFunction@cldb@@@std@@@4@$00@std@@@std@@QEAAPEAU?$_Tree_node@U?$pair@$$CBIUFunction@cldb@@@std@@PEAX@1@$$QEAU?$pair@$$CBIUFunction@cldb@@@1@@Z 0000000180000000     clReflectCore:DatabaseTextSerialiser.obj
 0004:fffba000       $pdata$?catch$0@?0???$_Insert_nohint@AEAU?$pair@$$CBIUName@cldb@@@std@@PEAU?$_Tree_node@U?$pair@$$CBIUName@cldb@@@std@@PEAX@2@@?$_Tree@V?$_Tmap_traits@IUName@cldb@@U?$less@I@std@@V?$allocator@U?$pair@$$CBIUName@cldb@@@std@@@4@$0A@@std@@@std@@IEAA?AU?$pair@V?$_Tree_iterator@V?$_Tree_val@U?$_Tree_simple_types@U?$pair@$$CBIUName@cldb@@@std@@@std@@@std@@@std@@_N@1@_NAEAU?$pair@$$CBIUName@cldb@@@1@PEAU?$_Tree_node@U?$pair@$$CBIUName@cldb@@@std@@PEAX@1@@Z@4HA 0000000180000000     clReflectCore:DatabaseBinarySerialiser.obj
 0002:fffcc000       $unwind$?catch$0@?0???$_Insert_nohint@AEAU?$pair@$$CBIUName@cldb@@@std@@PEAU?$_Tree_node@U?$pair@$$CBIUName@cldb@@@std@@PEAX@2@@?$_Tree@V?$_Tmap_traits@IUName@cldb@@U?$less@I@std@@V?$allocator@U?$pair@$$CBIUName@cldb@@@std@@@4@$0A@@std@@@std@@IEAA?AU?$pair@V?$_Tree_iterator@V?$_Tree_val@U?$_Tree_simple_types@U?$pair@$$CBIUName@cldb@@@std@@@std@@@std@@@std@@_N@1@_NAEAU?$pair@$$CBIUName@cldb@@@1@PEAU?$_Tree_node@U?$pair@$$CBIUName@cldb@@@std@@PEAX@1@@Z@4HA 0000000180000000     clReflectCore:DatabaseBinarySerialiser.obj
 0002:fffcc000       $ip2state$??$_Insert_nohint@AEAU?$pair@$$CBIUName@cldb@@@std@@PEAU?$_Tree_node@U?$pair@$$CBIUName@cldb@@@std@@PEAX@2@@?$_Tree@V?$_Tmap_traits@IUName@cldb@@U?$less@I@std@@V?$allocator@U?$pair@$$CBIUName@cldb@@@std@@@4@$0A@@std@@@std@@IEAA?AU?$pair@V?$_Tree_iterator@V?$_Tree_val@U?$_Tree_simple_types@U?$pair@$$CBIUName@cldb@@@std@@@std@@@std@@@std@@_N@1@_NAEAU?$pair@$$CBIUName@cldb@@@1@PEAU?$_Tree_node@U?$pair@$$CBIUName@cldb@@@std@@PEAX@1@@Z 0000000180000000     clReflectCore:DatabaseBinarySerialiser.obj
 0002:fffcc000       $handlerMap$0$??$_Insert_nohint@AEAU?$pair@$$CBIUName@cldb@@@std@@PEAU?$_Tree_node@U?$pair@$$CBIUName@cldb@@@std@@PEAX@2@@?$_Tree@V?$_Tmap_traits@IUName@cldb@@U?$less@I@std@@V?$allocator@U?$pair@$$CBIUName@cldb@@@std@@@4@$0A@@std@@@std@@IEAA?AU?$pair@V?$_Tree_iterator@V?$_Tree_val@U?$_Tree_simple_types@U?$pair@$$CBIUName@cldb@@@std@@@std@@@std@@@std@@_N@1@_NAEAU?$pair@$$CBIUName@cldb@@@1@PEAU?$_Tree_node@U?$pair@$$CBIUName@cldb@@@std@@PEAX@1@@Z 0000000180000000     clReflectCore:DatabaseBinarySerialiser.obj
 0002:fffcc000       $tryMap$??$_Insert_nohint@AEAU?$pair@$$CBIUName@cldb@@@std@@PEAU?$_Tree_node@U?$pair@$$CBIUName@cldb@@@std@@PEAX@2@@?$_Tree@V?$_Tmap_traits@IUName@cldb@@U?$less@I@std@@V?$allocator@U?$pair@$$CBIUName@cldb@@@std@@@4@$0A@@std@@@std@@IEAA?AU?$pair@V?$_Tree_iterator@V?$_Tree_val@U?$_Tree_simple_types@U?$pair@$$CBIUName@cldb@@@std@@@std@@@std@@@std@@_N@1@_NAEAU?$pair@$$CBIUName@cldb@@@1@PEAU?$_Tree_node@U?$pair@$$CBIUName@cldb@@@std@@PEAX@1@@Z 0000000180000000     clReflectCore:DatabaseBinarySerialiser.obj
 0002:fffcc000       $stateUnwindMap$??$_Insert_nohint@AEAU?$pair@$$CBIUName@cldb@@@std@@PEAU?$_Tree_node@U?$pair@$$CBIUName@cldb@@@std@@PEAX@2@@?$_Tree@V?$_Tmap_traits@IUName@cldb@@U?$less@I@std@@V?$allocator@U?$pair@$$CBIUName@cldb@@@std@@@4@$0A@@std@@@std@@IEAA?AU?$pair@V?$_Tree_iterator@V?$_Tree_val@U?$_Tree_simple_types@U?$pair@$$CBIUName@cldb@@@std@@@std@@@std@@@std@@_N@1@_NAEAU?$pair@$$CBIUName@cldb@@@1@PEAU?$_Tree_node@U?$pair@$$CBIUName@cldb@@@std@@PEAX@1@@Z 0000000180000000     clReflectCore:DatabaseBinarySerialiser.obj
 0002:fffcc000       $cppxdata$??$_Insert_nohint@AEAU?$pair@$$CBIUName@cldb@@@std@@PEAU?$_Tree_node@U?$pair@$$CBIUName@cldb@@@std@@PEAX@2@@?$_Tree@V?$_Tmap_traits@IUName@cldb@@U?$less@I@std@@V?$allocator@U?$pair@$$CBIUName@cldb@@@std@@@4@$0A@@std@@@std@@IEAA?AU?$pair@V?$_Tree_iterator@V?$_Tree_val@U?$_Tree_simple_types@U?$pair@$$CBIUName@cldb@@@std@@@std@@@std@@@std@@_N@1@_NAEAU?$pair@$$CBIUName@cldb@@@1@PEAU?$_Tree_node@U?$pair@$$CBIUName@cldb@@@std@@PEAX@1@@Z 0000000180000000     clReflectCore:DatabaseBinarySerialiser.obj
 0004:fffba000       $pdata$??$_Insert_nohint@AEAU?$pair@$$CBIUName@cldb@@@std@@PEAU?$_Tree_node@U?$pair@$$CBIUName@cldb@@@std@@PEAX@2@@?$_Tree@V?$_Tmap_traits@IUName@cldb@@U?$less@I@std@@V?$allocator@U?$pair@$$CBIUName@cldb@@@std@@@4@$0A@@std@@@std@@IEAA?AU?$pair@V?$_Tree_iterator@V?$_Tree_val@U?$_Tree_simple_types@U?$pair@$$CBIUName@cldb@@@std@@@std@@@std@@@std@@_N@1@_NAEAU?$pair@$$CBIUName@cldb@@@1@PEAU?$_Tree_node@U?$pair@$$CBIUName@cldb@@@std@@PEAX@1@@Z 0000000180000000     clReflectCore:DatabaseBinarySerialiser.obj
